{
   <insert_a_suppression_name_here>
   Helgrind:Race
   fun:_ZN2tf8Executor7_invokeERNS_6WorkerEPNS_4NodeE
   fun:_ZN2tf8Executor13_exploit_taskERNS_6WorkerERPNS_4NodeE
   fun:_ZZN2tf8Executor6_spawnEmSt10shared_ptrINS_15WorkerInterfaceEEENKUlvE_clEv
   fun:_ZSt13__invoke_implIvZN2tf8Executor6_spawnEmSt10shared_ptrINS0_15WorkerInterfaceEEEUlvE_JEET_St14__invoke_otherOT0_DpOT1_
   fun:_ZSt8__invokeIZN2tf8Executor6_spawnEmSt10shared_ptrINS0_15WorkerInterfaceEEEUlvE_JEENSt15__invoke_resultIT_JDpT0_EE4typeEOS7_DpOS8_
   fun:_ZNSt6thread8_InvokerISt5tupleIJZN2tf8Executor6_spawnEmSt10shared_ptrINS2_15WorkerInterfaceEEEUlvE_EEE9_M_invokeIJLm0EEEEvSt12_Index_tupleIJXspT_EEE
   fun:_ZNSt6thread8_InvokerISt5tupleIJZN2tf8Executor6_spawnEmSt10shared_ptrINS2_15WorkerInterfaceEEEUlvE_EEEclEv
   fun:_ZNSt6thread11_State_implINS_8_InvokerISt5tupleIJZN2tf8Executor6_spawnEmSt10shared_ptrINS3_15WorkerInterfaceEEEUlvE_EEEEE6_M_runEv
   obj:/usr/lib/x86_64-linux-gnu/libstdc++.so.6.0.33
   obj:/usr/libexec/valgrind/vgpreload_helgrind-amd64-linux.so
   fun:start_thread
   fun:clone
}
{
   <insert_a_suppression_name_here>
   Helgrind:Race
   fun:_ZNK2tf4Node20_is_parent_cancelledEv
   fun:_ZN2tf8Executor7_invokeERNS_6WorkerEPNS_4NodeE
   fun:_ZN2tf8Executor13_exploit_taskERNS_6WorkerERPNS_4NodeE
   fun:_ZZN2tf8Executor6_spawnEmSt10shared_ptrINS_15WorkerInterfaceEEENKUlvE_clEv
   fun:_ZSt13__invoke_implIvZN2tf8Executor6_spawnEmSt10shared_ptrINS0_15WorkerInterfaceEEEUlvE_JEET_St14__invoke_otherOT0_DpOT1_
   fun:_ZSt8__invokeIZN2tf8Executor6_spawnEmSt10shared_ptrINS0_15WorkerInterfaceEEEUlvE_JEENSt15__invoke_resultIT_JDpT0_EE4typeEOS7_DpOS8_
   fun:_ZNSt6thread8_InvokerISt5tupleIJZN2tf8Executor6_spawnEmSt10shared_ptrINS2_15WorkerInterfaceEEEUlvE_EEE9_M_invokeIJLm0EEEEvSt12_Index_tupleIJXspT_EEE
   fun:_ZNSt6thread8_InvokerISt5tupleIJZN2tf8Executor6_spawnEmSt10shared_ptrINS2_15WorkerInterfaceEEEUlvE_EEEclEv
   fun:_ZNSt6thread11_State_implINS_8_InvokerISt5tupleIJZN2tf8Executor6_spawnEmSt10shared_ptrINS3_15WorkerInterfaceEEEUlvE_EEEEE6_M_runEv
   obj:/usr/lib/x86_64-linux-gnu/libstdc++.so.6.0.33
   obj:/usr/libexec/valgrind/vgpreload_helgrind-amd64-linux.so
   fun:start_thread
}
{
   <insert_a_suppression_name_here>
   Helgrind:Race
   fun:load
   fun:_ZNK2tf4Node20_is_parent_cancelledEv
   fun:_ZN2tf8Executor7_invokeERNS_6WorkerEPNS_4NodeE
   fun:_ZN2tf8Executor13_exploit_taskERNS_6WorkerERPNS_4NodeE
   fun:_ZZN2tf8Executor6_spawnEmSt10shared_ptrINS_15WorkerInterfaceEEENKUlvE_clEv
   fun:_ZSt13__invoke_implIvZN2tf8Executor6_spawnEmSt10shared_ptrINS0_15WorkerInterfaceEEEUlvE_JEET_St14__invoke_otherOT0_DpOT1_
   fun:_ZSt8__invokeIZN2tf8Executor6_spawnEmSt10shared_ptrINS0_15WorkerInterfaceEEEUlvE_JEENSt15__invoke_resultIT_JDpT0_EE4typeEOS7_DpOS8_
   fun:_ZNSt6thread8_InvokerISt5tupleIJZN2tf8Executor6_spawnEmSt10shared_ptrINS2_15WorkerInterfaceEEEUlvE_EEE9_M_invokeIJLm0EEEEvSt12_Index_tupleIJXspT_EEE
   fun:_ZNSt6thread8_InvokerISt5tupleIJZN2tf8Executor6_spawnEmSt10shared_ptrINS2_15WorkerInterfaceEEEUlvE_EEEclEv
   fun:_ZNSt6thread11_State_implINS_8_InvokerISt5tupleIJZN2tf8Executor6_spawnEmSt10shared_ptrINS3_15WorkerInterfaceEEEUlvE_EEEEE6_M_runEv
   obj:/usr/lib/x86_64-linux-gnu/libstdc++.so.6.0.33
   obj:/usr/libexec/valgrind/vgpreload_helgrind-amd64-linux.so
   fun:start_thread
}
{
   <insert_a_suppression_name_here>
   Helgrind:Race
   fun:_ZNK2tf4Node20_is_parent_cancelledEv
   fun:_ZN2tf8Executor7_invokeERNS_6WorkerEPNS_4NodeE
   fun:_ZN2tf8Executor13_exploit_taskERNS_6WorkerERPNS_4NodeE
   fun:_ZZN2tf8Executor6_spawnEmSt10shared_ptrINS_15WorkerInterfaceEEENKUlvE_clEv
   fun:_ZSt13__invoke_implIvZN2tf8Executor6_spawnEmSt10shared_ptrINS0_15WorkerInterfaceEEEUlvE_JEET_St14__invoke_otherOT0_DpOT1_
   fun:_ZSt8__invokeIZN2tf8Executor6_spawnEmSt10shared_ptrINS0_15WorkerInterfaceEEEUlvE_JEENSt15__invoke_resultIT_JDpT0_EE4typeEOS7_DpOS8_
   fun:_ZNSt6thread8_InvokerISt5tupleIJZN2tf8Executor6_spawnEmSt10shared_ptrINS2_15WorkerInterfaceEEEUlvE_EEE9_M_invokeIJLm0EEEEvSt12_Index_tupleIJXspT_EEE
   fun:_ZNSt6thread8_InvokerISt5tupleIJZN2tf8Executor6_spawnEmSt10shared_ptrINS2_15WorkerInterfaceEEEUlvE_EEEclEv
   fun:_ZNSt6thread11_State_implINS_8_InvokerISt5tupleIJZN2tf8Executor6_spawnEmSt10shared_ptrINS3_15WorkerInterfaceEEEUlvE_EEEEE6_M_runEv
   obj:/usr/lib/x86_64-linux-gnu/libstdc++.so.6.0.33
   obj:/usr/libexec/valgrind/vgpreload_helgrind-amd64-linux.so
   fun:start_thread
}
{
   <insert_a_suppression_name_here>
   Helgrind:Race
   fun:_ZNKSt15__uniq_ptr_implIN2tf4Node10SemaphoresESt14default_deleteIS2_EE6_M_ptrEv
   fun:_ZNKSt10unique_ptrIN2tf4Node10SemaphoresESt14default_deleteIS2_EE3getEv
   fun:_ZNKSt10unique_ptrIN2tf4Node10SemaphoresESt14default_deleteIS2_EEcvbEv
   fun:_ZN2tf8Executor7_invokeERNS_6WorkerEPNS_4NodeE
   fun:_ZN2tf8Executor13_exploit_taskERNS_6WorkerERPNS_4NodeE
   fun:_ZZN2tf8Executor6_spawnEmSt10shared_ptrINS_15WorkerInterfaceEEENKUlvE_clEv
   fun:_ZSt13__invoke_implIvZN2tf8Executor6_spawnEmSt10shared_ptrINS0_15WorkerInterfaceEEEUlvE_JEET_St14__invoke_otherOT0_DpOT1_
   fun:_ZSt8__invokeIZN2tf8Executor6_spawnEmSt10shared_ptrINS0_15WorkerInterfaceEEEUlvE_JEENSt15__invoke_resultIT_JDpT0_EE4typeEOS7_DpOS8_
   fun:_ZNSt6thread8_InvokerISt5tupleIJZN2tf8Executor6_spawnEmSt10shared_ptrINS2_15WorkerInterfaceEEEUlvE_EEE9_M_invokeIJLm0EEEEvSt12_Index_tupleIJXspT_EEE
   fun:_ZNSt6thread8_InvokerISt5tupleIJZN2tf8Executor6_spawnEmSt10shared_ptrINS2_15WorkerInterfaceEEEUlvE_EEEclEv
   fun:_ZNSt6thread11_State_implINS_8_InvokerISt5tupleIJZN2tf8Executor6_spawnEmSt10shared_ptrINS3_15WorkerInterfaceEEEUlvE_EEEEE6_M_runEv
   obj:/usr/lib/x86_64-linux-gnu/libstdc++.so.6.0.33
}
{
   <insert_a_suppression_name_here>
   Helgrind:Race
   fun:_ZNKSt7variantIJSt9monostateN2tf4Node6StaticENS2_7RuntimeENS2_20NonpreemptiveRuntimeENS2_7SubflowENS2_9ConditionENS2_14MultiConditionENS2_6ModuleENS2_5AsyncENS2_14DependentAsyncEEE5indexEv
   fun:_ZN2tf8Executor7_invokeERNS_6WorkerEPNS_4NodeE
   fun:_ZN2tf8Executor13_exploit_taskERNS_6WorkerERPNS_4NodeE
   fun:_ZZN2tf8Executor6_spawnEmSt10shared_ptrINS_15WorkerInterfaceEEENKUlvE_clEv
   fun:_ZSt13__invoke_implIvZN2tf8Executor6_spawnEmSt10shared_ptrINS0_15WorkerInterfaceEEEUlvE_JEET_St14__invoke_otherOT0_DpOT1_
   fun:_ZSt8__invokeIZN2tf8Executor6_spawnEmSt10shared_ptrINS0_15WorkerInterfaceEEEUlvE_JEENSt15__invoke_resultIT_JDpT0_EE4typeEOS7_DpOS8_
   fun:_ZNSt6thread8_InvokerISt5tupleIJZN2tf8Executor6_spawnEmSt10shared_ptrINS2_15WorkerInterfaceEEEUlvE_EEE9_M_invokeIJLm0EEEEvSt12_Index_tupleIJXspT_EEE
   fun:_ZNSt6thread8_InvokerISt5tupleIJZN2tf8Executor6_spawnEmSt10shared_ptrINS2_15WorkerInterfaceEEEUlvE_EEEclEv
   fun:_ZNSt6thread11_State_implINS_8_InvokerISt5tupleIJZN2tf8Executor6_spawnEmSt10shared_ptrINS3_15WorkerInterfaceEEEUlvE_EEEEE6_M_runEv
   obj:/usr/lib/x86_64-linux-gnu/libstdc++.so.6.0.33
   obj:/usr/libexec/valgrind/vgpreload_helgrind-amd64-linux.so
   fun:start_thread
}
{
   <insert_a_suppression_name_here>
   Helgrind:Race
   fun:_ZNKSt14_Function_base8_M_emptyEv
   fun:_ZNKSt8functionIFvvEEclEv
   fun:_ZN2tf8Executor19_invoke_static_taskERNS_6WorkerEPNS_4NodeE
   fun:_ZN2tf8Executor7_invokeERNS_6WorkerEPNS_4NodeE
   fun:_ZN2tf8Executor13_exploit_taskERNS_6WorkerERPNS_4NodeE
   fun:_ZZN2tf8Executor6_spawnEmSt10shared_ptrINS_15WorkerInterfaceEEENKUlvE_clEv
   fun:_ZSt13__invoke_implIvZN2tf8Executor6_spawnEmSt10shared_ptrINS0_15WorkerInterfaceEEEUlvE_JEET_St14__invoke_otherOT0_DpOT1_
   fun:_ZSt8__invokeIZN2tf8Executor6_spawnEmSt10shared_ptrINS0_15WorkerInterfaceEEEUlvE_JEENSt15__invoke_resultIT_JDpT0_EE4typeEOS7_DpOS8_
   fun:_ZNSt6thread8_InvokerISt5tupleIJZN2tf8Executor6_spawnEmSt10shared_ptrINS2_15WorkerInterfaceEEEUlvE_EEE9_M_invokeIJLm0EEEEvSt12_Index_tupleIJXspT_EEE
   fun:_ZNSt6thread8_InvokerISt5tupleIJZN2tf8Executor6_spawnEmSt10shared_ptrINS2_15WorkerInterfaceEEEUlvE_EEEclEv
   fun:_ZNSt6thread11_State_implINS_8_InvokerISt5tupleIJZN2tf8Executor6_spawnEmSt10shared_ptrINS3_15WorkerInterfaceEEEUlvE_EEEEE6_M_runEv
   obj:/usr/lib/x86_64-linux-gnu/libstdc++.so.6.0.33
}
{
   <insert_a_suppression_name_here>
   Helgrind:Race
   fun:_ZNKSt8functionIFvvEEclEv
   fun:_ZN2tf8Executor19_invoke_static_taskERNS_6WorkerEPNS_4NodeE
   fun:_ZN2tf8Executor7_invokeERNS_6WorkerEPNS_4NodeE
   fun:_ZN2tf8Executor13_exploit_taskERNS_6WorkerERPNS_4NodeE
   fun:_ZZN2tf8Executor6_spawnEmSt10shared_ptrINS_15WorkerInterfaceEEENKUlvE_clEv
   fun:_ZSt13__invoke_implIvZN2tf8Executor6_spawnEmSt10shared_ptrINS0_15WorkerInterfaceEEEUlvE_JEET_St14__invoke_otherOT0_DpOT1_
   fun:_ZSt8__invokeIZN2tf8Executor6_spawnEmSt10shared_ptrINS0_15WorkerInterfaceEEEUlvE_JEENSt15__invoke_resultIT_JDpT0_EE4typeEOS7_DpOS8_
   fun:_ZNSt6thread8_InvokerISt5tupleIJZN2tf8Executor6_spawnEmSt10shared_ptrINS2_15WorkerInterfaceEEEUlvE_EEE9_M_invokeIJLm0EEEEvSt12_Index_tupleIJXspT_EEE
   fun:_ZNSt6thread8_InvokerISt5tupleIJZN2tf8Executor6_spawnEmSt10shared_ptrINS2_15WorkerInterfaceEEEUlvE_EEEclEv
   fun:_ZNSt6thread11_State_implINS_8_InvokerISt5tupleIJZN2tf8Executor6_spawnEmSt10shared_ptrINS3_15WorkerInterfaceEEEUlvE_EEEEE6_M_runEv
   obj:/usr/lib/x86_64-linux-gnu/libstdc++.so.6.0.33
   obj:/usr/libexec/valgrind/vgpreload_helgrind-amd64-linux.so
}
{
   <insert_a_suppression_name_here>
   Helgrind:Race
   fun:_ZNSt14_Function_base13_Base_managerIZN4mpcf15parallel_reduceIN9__gnu_cxx17__normal_iteratorIPNS1_3PcfIddEESt6vectorIS6_SaIS6_EEEEEENSt15iterator_traitsIT_E10value_typeESD_SD_St8functionIFNSF_10value_typeERKNSF_14rectangle_typeEEEmRNS1_8ExecutorEEUlvE_E14_M_get_pointerERKSt9_Any_data
   fun:_ZNSt17_Function_handlerIFvvEZN4mpcf15parallel_reduceIN9__gnu_cxx17__normal_iteratorIPNS1_3PcfIddEESt6vectorIS6_SaIS6_EEEEEENSt15iterator_traitsIT_E10value_typeESD_SD_St8functionIFNSF_10value_typeERKNSF_14rectangle_typeEEEmRNS1_8ExecutorEEUlvE_E9_M_invokeERKSt9_Any_data
   fun:_ZNKSt8functionIFvvEEclEv
   fun:_ZN2tf8Executor19_invoke_static_taskERNS_6WorkerEPNS_4NodeE
   fun:_ZN2tf8Executor7_invokeERNS_6WorkerEPNS_4NodeE
   fun:_ZN2tf8Executor13_exploit_taskERNS_6WorkerERPNS_4NodeE
   fun:_ZZN2tf8Executor6_spawnEmSt10shared_ptrINS_15WorkerInterfaceEEENKUlvE_clEv
   fun:_ZSt13__invoke_implIvZN2tf8Executor6_spawnEmSt10shared_ptrINS0_15WorkerInterfaceEEEUlvE_JEET_St14__invoke_otherOT0_DpOT1_
   fun:_ZSt8__invokeIZN2tf8Executor6_spawnEmSt10shared_ptrINS0_15WorkerInterfaceEEEUlvE_JEENSt15__invoke_resultIT_JDpT0_EE4typeEOS7_DpOS8_
   fun:_ZNSt6thread8_InvokerISt5tupleIJZN2tf8Executor6_spawnEmSt10shared_ptrINS2_15WorkerInterfaceEEEUlvE_EEE9_M_invokeIJLm0EEEEvSt12_Index_tupleIJXspT_EEE
   fun:_ZNSt6thread8_InvokerISt5tupleIJZN2tf8Executor6_spawnEmSt10shared_ptrINS2_15WorkerInterfaceEEEUlvE_EEEclEv
   fun:_ZNSt6thread11_State_implINS_8_InvokerISt5tupleIJZN2tf8Executor6_spawnEmSt10shared_ptrINS3_15WorkerInterfaceEEEUlvE_EEEEE6_M_runEv
}
{
   <insert_a_suppression_name_here>
   Helgrind:Race
   fun:_ZZN4mpcf15parallel_reduceIN9__gnu_cxx17__normal_iteratorIPNS_3PcfIddEESt6vectorIS4_SaIS4_EEEEEENSt15iterator_traitsIT_E10value_typeESB_SB_St8functionIFNSD_10value_typeERKNSD_14rectangle_typeEEEmRNS_8ExecutorEENKUlvE_clEv
   fun:_ZSt13__invoke_implIvRZN4mpcf15parallel_reduceIN9__gnu_cxx17__normal_iteratorIPNS0_3PcfIddEESt6vectorIS5_SaIS5_EEEEEENSt15iterator_traitsIT_E10value_typeESC_SC_St8functionIFNSE_10value_typeERKNSE_14rectangle_typeEEEmRNS0_8ExecutorEEUlvE_JEESC_St14__invoke_otherOT0_DpOT1_
   fun:_ZSt10__invoke_rIvRZN4mpcf15parallel_reduceIN9__gnu_cxx17__normal_iteratorIPNS0_3PcfIddEESt6vectorIS5_SaIS5_EEEEEENSt15iterator_traitsIT_E10value_typeESC_SC_St8functionIFNSE_10value_typeERKNSE_14rectangle_typeEEEmRNS0_8ExecutorEEUlvE_JEENSt9enable_ifIX16is_invocable_r_vISC_T0_DpT1_EESC_E4typeEOSR_DpOSS_
   fun:_ZNSt17_Function_handlerIFvvEZN4mpcf15parallel_reduceIN9__gnu_cxx17__normal_iteratorIPNS1_3PcfIddEESt6vectorIS6_SaIS6_EEEEEENSt15iterator_traitsIT_E10value_typeESD_SD_St8functionIFNSF_10value_typeERKNSF_14rectangle_typeEEEmRNS1_8ExecutorEEUlvE_E9_M_invokeERKSt9_Any_data
   fun:_ZNKSt8functionIFvvEEclEv
   fun:_ZN2tf8Executor19_invoke_static_taskERNS_6WorkerEPNS_4NodeE
   fun:_ZN2tf8Executor7_invokeERNS_6WorkerEPNS_4NodeE
   fun:_ZN2tf8Executor13_exploit_taskERNS_6WorkerERPNS_4NodeE
   fun:_ZZN2tf8Executor6_spawnEmSt10shared_ptrINS_15WorkerInterfaceEEENKUlvE_clEv
   fun:_ZSt13__invoke_implIvZN2tf8Executor6_spawnEmSt10shared_ptrINS0_15WorkerInterfaceEEEUlvE_JEET_St14__invoke_otherOT0_DpOT1_
   fun:_ZSt8__invokeIZN2tf8Executor6_spawnEmSt10shared_ptrINS0_15WorkerInterfaceEEEUlvE_JEENSt15__invoke_resultIT_JDpT0_EE4typeEOS7_DpOS8_
   fun:_ZNSt6thread8_InvokerISt5tupleIJZN2tf8Executor6_spawnEmSt10shared_ptrINS2_15WorkerInterfaceEEEUlvE_EEE9_M_invokeIJLm0EEEEvSt12_Index_tupleIJXspT_EEE
}
{
   <insert_a_suppression_name_here>
   Helgrind:Race
   fun:_ZZN4mpcf15parallel_reduceIN9__gnu_cxx17__normal_iteratorIPNS_3PcfIddEESt6vectorIS4_SaIS4_EEEEEENSt15iterator_traitsIT_E10value_typeESB_SB_St8functionIFNSD_10value_typeERKNSD_14rectangle_typeEEEmRNS_8ExecutorEENKUlvE_clEv
   fun:_ZSt13__invoke_implIvRZN4mpcf15parallel_reduceIN9__gnu_cxx17__normal_iteratorIPNS0_3PcfIddEESt6vectorIS5_SaIS5_EEEEEENSt15iterator_traitsIT_E10value_typeESC_SC_St8functionIFNSE_10value_typeERKNSE_14rectangle_typeEEEmRNS0_8ExecutorEEUlvE_JEESC_St14__invoke_otherOT0_DpOT1_
   fun:_ZSt10__invoke_rIvRZN4mpcf15parallel_reduceIN9__gnu_cxx17__normal_iteratorIPNS0_3PcfIddEESt6vectorIS5_SaIS5_EEEEEENSt15iterator_traitsIT_E10value_typeESC_SC_St8functionIFNSE_10value_typeERKNSE_14rectangle_typeEEEmRNS0_8ExecutorEEUlvE_JEENSt9enable_ifIX16is_invocable_r_vISC_T0_DpT1_EESC_E4typeEOSR_DpOSS_
   fun:_ZNSt17_Function_handlerIFvvEZN4mpcf15parallel_reduceIN9__gnu_cxx17__normal_iteratorIPNS1_3PcfIddEESt6vectorIS6_SaIS6_EEEEEENSt15iterator_traitsIT_E10value_typeESD_SD_St8functionIFNSF_10value_typeERKNSF_14rectangle_typeEEEmRNS1_8ExecutorEEUlvE_E9_M_invokeERKSt9_Any_data
   fun:_ZNKSt8functionIFvvEEclEv
   fun:_ZN2tf8Executor19_invoke_static_taskERNS_6WorkerEPNS_4NodeE
   fun:_ZN2tf8Executor7_invokeERNS_6WorkerEPNS_4NodeE
   fun:_ZN2tf8Executor13_exploit_taskERNS_6WorkerERPNS_4NodeE
   fun:_ZZN2tf8Executor6_spawnEmSt10shared_ptrINS_15WorkerInterfaceEEENKUlvE_clEv
   fun:_ZSt13__invoke_implIvZN2tf8Executor6_spawnEmSt10shared_ptrINS0_15WorkerInterfaceEEEUlvE_JEET_St14__invoke_otherOT0_DpOT1_
   fun:_ZSt8__invokeIZN2tf8Executor6_spawnEmSt10shared_ptrINS0_15WorkerInterfaceEEEUlvE_JEENSt15__invoke_resultIT_JDpT0_EE4typeEOS7_DpOS8_
   fun:_ZNSt6thread8_InvokerISt5tupleIJZN2tf8Executor6_spawnEmSt10shared_ptrINS2_15WorkerInterfaceEEEUlvE_EEE9_M_invokeIJLm0EEEEvSt12_Index_tupleIJXspT_EEE
}
{
   <insert_a_suppression_name_here>
   Helgrind:Race
   fun:_ZNK9__gnu_cxx17__normal_iteratorIPN4mpcf3PcfIddEESt6vectorIS3_SaIS3_EEEplEl
   fun:_ZZN4mpcf15parallel_reduceIN9__gnu_cxx17__normal_iteratorIPNS_3PcfIddEESt6vectorIS4_SaIS4_EEEEEENSt15iterator_traitsIT_E10value_typeESB_SB_St8functionIFNSD_10value_typeERKNSD_14rectangle_typeEEEmRNS_8ExecutorEENKUlvE_clEv
   fun:_ZSt13__invoke_implIvRZN4mpcf15parallel_reduceIN9__gnu_cxx17__normal_iteratorIPNS0_3PcfIddEESt6vectorIS5_SaIS5_EEEEEENSt15iterator_traitsIT_E10value_typeESC_SC_St8functionIFNSE_10value_typeERKNSE_14rectangle_typeEEEmRNS0_8ExecutorEEUlvE_JEESC_St14__invoke_otherOT0_DpOT1_
   fun:_ZSt10__invoke_rIvRZN4mpcf15parallel_reduceIN9__gnu_cxx17__normal_iteratorIPNS0_3PcfIddEESt6vectorIS5_SaIS5_EEEEEENSt15iterator_traitsIT_E10value_typeESC_SC_St8functionIFNSE_10value_typeERKNSE_14rectangle_typeEEEmRNS0_8ExecutorEEUlvE_JEENSt9enable_ifIX16is_invocable_r_vISC_T0_DpT1_EESC_E4typeEOSR_DpOSS_
   fun:_ZNSt17_Function_handlerIFvvEZN4mpcf15parallel_reduceIN9__gnu_cxx17__normal_iteratorIPNS1_3PcfIddEESt6vectorIS6_SaIS6_EEEEEENSt15iterator_traitsIT_E10value_typeESD_SD_St8functionIFNSF_10value_typeERKNSF_14rectangle_typeEEEmRNS1_8ExecutorEEUlvE_E9_M_invokeERKSt9_Any_data
   fun:_ZNKSt8functionIFvvEEclEv
   fun:_ZN2tf8Executor19_invoke_static_taskERNS_6WorkerEPNS_4NodeE
   fun:_ZN2tf8Executor7_invokeERNS_6WorkerEPNS_4NodeE
   fun:_ZN2tf8Executor13_exploit_taskERNS_6WorkerERPNS_4NodeE
   fun:_ZZN2tf8Executor6_spawnEmSt10shared_ptrINS_15WorkerInterfaceEEENKUlvE_clEv
   fun:_ZSt13__invoke_implIvZN2tf8Executor6_spawnEmSt10shared_ptrINS0_15WorkerInterfaceEEEUlvE_JEET_St14__invoke_otherOT0_DpOT1_
   fun:_ZSt8__invokeIZN2tf8Executor6_spawnEmSt10shared_ptrINS0_15WorkerInterfaceEEEUlvE_JEENSt15__invoke_resultIT_JDpT0_EE4typeEOS7_DpOS8_
}
{
   <insert_a_suppression_name_here>
   Helgrind:Race
   fun:_ZZN4mpcf15parallel_reduceIN9__gnu_cxx17__normal_iteratorIPNS_3PcfIddEESt6vectorIS4_SaIS4_EEEEEENSt15iterator_traitsIT_E10value_typeESB_SB_St8functionIFNSD_10value_typeERKNSD_14rectangle_typeEEEmRNS_8ExecutorEENKUlvE_clEv
   fun:_ZSt13__invoke_implIvRZN4mpcf15parallel_reduceIN9__gnu_cxx17__normal_iteratorIPNS0_3PcfIddEESt6vectorIS5_SaIS5_EEEEEENSt15iterator_traitsIT_E10value_typeESC_SC_St8functionIFNSE_10value_typeERKNSE_14rectangle_typeEEEmRNS0_8ExecutorEEUlvE_JEESC_St14__invoke_otherOT0_DpOT1_
   fun:_ZSt10__invoke_rIvRZN4mpcf15parallel_reduceIN9__gnu_cxx17__normal_iteratorIPNS0_3PcfIddEESt6vectorIS5_SaIS5_EEEEEENSt15iterator_traitsIT_E10value_typeESC_SC_St8functionIFNSE_10value_typeERKNSE_14rectangle_typeEEEmRNS0_8ExecutorEEUlvE_JEENSt9enable_ifIX16is_invocable_r_vISC_T0_DpT1_EESC_E4typeEOSR_DpOSS_
   fun:_ZNSt17_Function_handlerIFvvEZN4mpcf15parallel_reduceIN9__gnu_cxx17__normal_iteratorIPNS1_3PcfIddEESt6vectorIS6_SaIS6_EEEEEENSt15iterator_traitsIT_E10value_typeESD_SD_St8functionIFNSF_10value_typeERKNSF_14rectangle_typeEEEmRNS1_8ExecutorEEUlvE_E9_M_invokeERKSt9_Any_data
   fun:_ZNKSt8functionIFvvEEclEv
   fun:_ZN2tf8Executor19_invoke_static_taskERNS_6WorkerEPNS_4NodeE
   fun:_ZN2tf8Executor7_invokeERNS_6WorkerEPNS_4NodeE
   fun:_ZN2tf8Executor13_exploit_taskERNS_6WorkerERPNS_4NodeE
   fun:_ZZN2tf8Executor6_spawnEmSt10shared_ptrINS_15WorkerInterfaceEEENKUlvE_clEv
   fun:_ZSt13__invoke_implIvZN2tf8Executor6_spawnEmSt10shared_ptrINS0_15WorkerInterfaceEEEUlvE_JEET_St14__invoke_otherOT0_DpOT1_
   fun:_ZSt8__invokeIZN2tf8Executor6_spawnEmSt10shared_ptrINS0_15WorkerInterfaceEEEUlvE_JEENSt15__invoke_resultIT_JDpT0_EE4typeEOS7_DpOS8_
   fun:_ZNSt6thread8_InvokerISt5tupleIJZN2tf8Executor6_spawnEmSt10shared_ptrINS2_15WorkerInterfaceEEEUlvE_EEE9_M_invokeIJLm0EEEEvSt12_Index_tupleIJXspT_EEE
}
{
   <insert_a_suppression_name_here>
   Helgrind:Race
   fun:_ZZN4mpcf15parallel_reduceIN9__gnu_cxx17__normal_iteratorIPNS_3PcfIddEESt6vectorIS4_SaIS4_EEEEEENSt15iterator_traitsIT_E10value_typeESB_SB_St8functionIFNSD_10value_typeERKNSD_14rectangle_typeEEEmRNS_8ExecutorEENKUlvE_clEv
   fun:_ZSt13__invoke_implIvRZN4mpcf15parallel_reduceIN9__gnu_cxx17__normal_iteratorIPNS0_3PcfIddEESt6vectorIS5_SaIS5_EEEEEENSt15iterator_traitsIT_E10value_typeESC_SC_St8functionIFNSE_10value_typeERKNSE_14rectangle_typeEEEmRNS0_8ExecutorEEUlvE_JEESC_St14__invoke_otherOT0_DpOT1_
   fun:_ZSt10__invoke_rIvRZN4mpcf15parallel_reduceIN9__gnu_cxx17__normal_iteratorIPNS0_3PcfIddEESt6vectorIS5_SaIS5_EEEEEENSt15iterator_traitsIT_E10value_typeESC_SC_St8functionIFNSE_10value_typeERKNSE_14rectangle_typeEEEmRNS0_8ExecutorEEUlvE_JEENSt9enable_ifIX16is_invocable_r_vISC_T0_DpT1_EESC_E4typeEOSR_DpOSS_
   fun:_ZNSt17_Function_handlerIFvvEZN4mpcf15parallel_reduceIN9__gnu_cxx17__normal_iteratorIPNS1_3PcfIddEESt6vectorIS6_SaIS6_EEEEEENSt15iterator_traitsIT_E10value_typeESD_SD_St8functionIFNSF_10value_typeERKNSF_14rectangle_typeEEEmRNS1_8ExecutorEEUlvE_E9_M_invokeERKSt9_Any_data
   fun:_ZNKSt8functionIFvvEEclEv
   fun:_ZN2tf8Executor19_invoke_static_taskERNS_6WorkerEPNS_4NodeE
   fun:_ZN2tf8Executor7_invokeERNS_6WorkerEPNS_4NodeE
   fun:_ZN2tf8Executor13_exploit_taskERNS_6WorkerERPNS_4NodeE
   fun:_ZZN2tf8Executor6_spawnEmSt10shared_ptrINS_15WorkerInterfaceEEENKUlvE_clEv
   fun:_ZSt13__invoke_implIvZN2tf8Executor6_spawnEmSt10shared_ptrINS0_15WorkerInterfaceEEEUlvE_JEET_St14__invoke_otherOT0_DpOT1_
   fun:_ZSt8__invokeIZN2tf8Executor6_spawnEmSt10shared_ptrINS0_15WorkerInterfaceEEEUlvE_JEENSt15__invoke_resultIT_JDpT0_EE4typeEOS7_DpOS8_
   fun:_ZNSt6thread8_InvokerISt5tupleIJZN2tf8Executor6_spawnEmSt10shared_ptrINS2_15WorkerInterfaceEEEUlvE_EEE9_M_invokeIJLm0EEEEvSt12_Index_tupleIJXspT_EEE
}
{
   <insert_a_suppression_name_here>
   Helgrind:Race
   fun:_ZNSt6vectorIN4mpcf11AccumulatorINS0_3PcfIddEEEESaIS4_EEixEm
   fun:_ZZN4mpcf15parallel_reduceIN9__gnu_cxx17__normal_iteratorIPNS_3PcfIddEESt6vectorIS4_SaIS4_EEEEEENSt15iterator_traitsIT_E10value_typeESB_SB_St8functionIFNSD_10value_typeERKNSD_14rectangle_typeEEEmRNS_8ExecutorEENKUlvE_clEv
   fun:_ZSt13__invoke_implIvRZN4mpcf15parallel_reduceIN9__gnu_cxx17__normal_iteratorIPNS0_3PcfIddEESt6vectorIS5_SaIS5_EEEEEENSt15iterator_traitsIT_E10value_typeESC_SC_St8functionIFNSE_10value_typeERKNSE_14rectangle_typeEEEmRNS0_8ExecutorEEUlvE_JEESC_St14__invoke_otherOT0_DpOT1_
   fun:_ZSt10__invoke_rIvRZN4mpcf15parallel_reduceIN9__gnu_cxx17__normal_iteratorIPNS0_3PcfIddEESt6vectorIS5_SaIS5_EEEEEENSt15iterator_traitsIT_E10value_typeESC_SC_St8functionIFNSE_10value_typeERKNSE_14rectangle_typeEEEmRNS0_8ExecutorEEUlvE_JEENSt9enable_ifIX16is_invocable_r_vISC_T0_DpT1_EESC_E4typeEOSR_DpOSS_
   fun:_ZNSt17_Function_handlerIFvvEZN4mpcf15parallel_reduceIN9__gnu_cxx17__normal_iteratorIPNS1_3PcfIddEESt6vectorIS6_SaIS6_EEEEEENSt15iterator_traitsIT_E10value_typeESD_SD_St8functionIFNSF_10value_typeERKNSF_14rectangle_typeEEEmRNS1_8ExecutorEEUlvE_E9_M_invokeERKSt9_Any_data
   fun:_ZNKSt8functionIFvvEEclEv
   fun:_ZN2tf8Executor19_invoke_static_taskERNS_6WorkerEPNS_4NodeE
   fun:_ZN2tf8Executor7_invokeERNS_6WorkerEPNS_4NodeE
   fun:_ZN2tf8Executor13_exploit_taskERNS_6WorkerERPNS_4NodeE
   fun:_ZZN2tf8Executor6_spawnEmSt10shared_ptrINS_15WorkerInterfaceEEENKUlvE_clEv
   fun:_ZSt13__invoke_implIvZN2tf8Executor6_spawnEmSt10shared_ptrINS0_15WorkerInterfaceEEEUlvE_JEET_St14__invoke_otherOT0_DpOT1_
   fun:_ZSt8__invokeIZN2tf8Executor6_spawnEmSt10shared_ptrINS0_15WorkerInterfaceEEEUlvE_JEENSt15__invoke_resultIT_JDpT0_EE4typeEOS7_DpOS8_
}
{
   <insert_a_suppression_name_here>
   Helgrind:Race
   fun:_ZN9__gnu_cxx17__normal_iteratorIPKN4mpcf5PointIddEESt6vectorIS3_SaIS3_EEEC1ERKS5_
   fun:_ZNKSt6vectorIN4mpcf5PointIddEESaIS2_EE3endEv
   fun:_ZNKSt6vectorIN4mpcf5PointIddEESaIS2_EE5emptyEv
   fun:_ZN4mpcf11AccumulatorINS_3PcfIddEEEpLERKS2_
   fun:_ZZN4mpcf15parallel_reduceIN9__gnu_cxx17__normal_iteratorIPNS_3PcfIddEESt6vectorIS4_SaIS4_EEEEEENSt15iterator_traitsIT_E10value_typeESB_SB_St8functionIFNSD_10value_typeERKNSD_14rectangle_typeEEEmRNS_8ExecutorEENKUlvE_clEv
   fun:_ZSt13__invoke_implIvRZN4mpcf15parallel_reduceIN9__gnu_cxx17__normal_iteratorIPNS0_3PcfIddEESt6vectorIS5_SaIS5_EEEEEENSt15iterator_traitsIT_E10value_typeESC_SC_St8functionIFNSE_10value_typeERKNSE_14rectangle_typeEEEmRNS0_8ExecutorEEUlvE_JEESC_St14__invoke_otherOT0_DpOT1_
   fun:_ZSt10__invoke_rIvRZN4mpcf15parallel_reduceIN9__gnu_cxx17__normal_iteratorIPNS0_3PcfIddEESt6vectorIS5_SaIS5_EEEEEENSt15iterator_traitsIT_E10value_typeESC_SC_St8functionIFNSE_10value_typeERKNSE_14rectangle_typeEEEmRNS0_8ExecutorEEUlvE_JEENSt9enable_ifIX16is_invocable_r_vISC_T0_DpT1_EESC_E4typeEOSR_DpOSS_
   fun:_ZNSt17_Function_handlerIFvvEZN4mpcf15parallel_reduceIN9__gnu_cxx17__normal_iteratorIPNS1_3PcfIddEESt6vectorIS6_SaIS6_EEEEEENSt15iterator_traitsIT_E10value_typeESD_SD_St8functionIFNSF_10value_typeERKNSF_14rectangle_typeEEEmRNS1_8ExecutorEEUlvE_E9_M_invokeERKSt9_Any_data
   fun:_ZNKSt8functionIFvvEEclEv
   fun:_ZN2tf8Executor19_invoke_static_taskERNS_6WorkerEPNS_4NodeE
   fun:_ZN2tf8Executor7_invokeERNS_6WorkerEPNS_4NodeE
   fun:_ZN2tf8Executor13_exploit_taskERNS_6WorkerERPNS_4NodeE
}
{
   <insert_a_suppression_name_here>
   Helgrind:Race
   fun:_ZN9__gnu_cxx17__normal_iteratorIPKN4mpcf5PointIddEESt6vectorIS3_SaIS3_EEEC1ERKS5_
   fun:_ZNKSt6vectorIN4mpcf5PointIddEESaIS2_EE5beginEv
   fun:_ZNKSt6vectorIN4mpcf5PointIddEESaIS2_EE5emptyEv
   fun:_ZN4mpcf11AccumulatorINS_3PcfIddEEEpLERKS2_
   fun:_ZZN4mpcf15parallel_reduceIN9__gnu_cxx17__normal_iteratorIPNS_3PcfIddEESt6vectorIS4_SaIS4_EEEEEENSt15iterator_traitsIT_E10value_typeESB_SB_St8functionIFNSD_10value_typeERKNSD_14rectangle_typeEEEmRNS_8ExecutorEENKUlvE_clEv
   fun:_ZSt13__invoke_implIvRZN4mpcf15parallel_reduceIN9__gnu_cxx17__normal_iteratorIPNS0_3PcfIddEESt6vectorIS5_SaIS5_EEEEEENSt15iterator_traitsIT_E10value_typeESC_SC_St8functionIFNSE_10value_typeERKNSE_14rectangle_typeEEEmRNS0_8ExecutorEEUlvE_JEESC_St14__invoke_otherOT0_DpOT1_
   fun:_ZSt10__invoke_rIvRZN4mpcf15parallel_reduceIN9__gnu_cxx17__normal_iteratorIPNS0_3PcfIddEESt6vectorIS5_SaIS5_EEEEEENSt15iterator_traitsIT_E10value_typeESC_SC_St8functionIFNSE_10value_typeERKNSE_14rectangle_typeEEEmRNS0_8ExecutorEEUlvE_JEENSt9enable_ifIX16is_invocable_r_vISC_T0_DpT1_EESC_E4typeEOSR_DpOSS_
   fun:_ZNSt17_Function_handlerIFvvEZN4mpcf15parallel_reduceIN9__gnu_cxx17__normal_iteratorIPNS1_3PcfIddEESt6vectorIS6_SaIS6_EEEEEENSt15iterator_traitsIT_E10value_typeESD_SD_St8functionIFNSF_10value_typeERKNSF_14rectangle_typeEEEmRNS1_8ExecutorEEUlvE_E9_M_invokeERKSt9_Any_data
   fun:_ZNKSt8functionIFvvEEclEv
   fun:_ZN2tf8Executor19_invoke_static_taskERNS_6WorkerEPNS_4NodeE
   fun:_ZN2tf8Executor7_invokeERNS_6WorkerEPNS_4NodeE
   fun:_ZN2tf8Executor13_exploit_taskERNS_6WorkerERPNS_4NodeE
}
{
   <insert_a_suppression_name_here>
   Helgrind:Race
   fun:_ZNKSt6vectorIN4mpcf5PointIddEESaIS2_EE8capacityEv
   fun:_ZNSt6vectorIN4mpcf5PointIddEESaIS2_EEaSERKS4_
   fun:_ZN4mpcf11AccumulatorINS_3PcfIddEEEpLERKS2_
   fun:_ZZN4mpcf15parallel_reduceIN9__gnu_cxx17__normal_iteratorIPNS_3PcfIddEESt6vectorIS4_SaIS4_EEEEEENSt15iterator_traitsIT_E10value_typeESB_SB_St8functionIFNSD_10value_typeERKNSD_14rectangle_typeEEEmRNS_8ExecutorEENKUlvE_clEv
   fun:_ZSt13__invoke_implIvRZN4mpcf15parallel_reduceIN9__gnu_cxx17__normal_iteratorIPNS0_3PcfIddEESt6vectorIS5_SaIS5_EEEEEENSt15iterator_traitsIT_E10value_typeESC_SC_St8functionIFNSE_10value_typeERKNSE_14rectangle_typeEEEmRNS0_8ExecutorEEUlvE_JEESC_St14__invoke_otherOT0_DpOT1_
   fun:_ZSt10__invoke_rIvRZN4mpcf15parallel_reduceIN9__gnu_cxx17__normal_iteratorIPNS0_3PcfIddEESt6vectorIS5_SaIS5_EEEEEENSt15iterator_traitsIT_E10value_typeESC_SC_St8functionIFNSE_10value_typeERKNSE_14rectangle_typeEEEmRNS0_8ExecutorEEUlvE_JEENSt9enable_ifIX16is_invocable_r_vISC_T0_DpT1_EESC_E4typeEOSR_DpOSS_
   fun:_ZNSt17_Function_handlerIFvvEZN4mpcf15parallel_reduceIN9__gnu_cxx17__normal_iteratorIPNS1_3PcfIddEESt6vectorIS6_SaIS6_EEEEEENSt15iterator_traitsIT_E10value_typeESD_SD_St8functionIFNSF_10value_typeERKNSF_14rectangle_typeEEEmRNS1_8ExecutorEEUlvE_E9_M_invokeERKSt9_Any_data
   fun:_ZNKSt8functionIFvvEEclEv
   fun:_ZN2tf8Executor19_invoke_static_taskERNS_6WorkerEPNS_4NodeE
   fun:_ZN2tf8Executor7_invokeERNS_6WorkerEPNS_4NodeE
   fun:_ZN2tf8Executor13_exploit_taskERNS_6WorkerERPNS_4NodeE
   fun:_ZZN2tf8Executor6_spawnEmSt10shared_ptrINS_15WorkerInterfaceEEENKUlvE_clEv
}
{
   <insert_a_suppression_name_here>
   Helgrind:Race
   fun:_ZNSt6vectorIN4mpcf5PointIddEESaIS2_EEaSERKS4_
   fun:_ZN4mpcf11AccumulatorINS_3PcfIddEEEpLERKS2_
   fun:_ZZN4mpcf15parallel_reduceIN9__gnu_cxx17__normal_iteratorIPNS_3PcfIddEESt6vectorIS4_SaIS4_EEEEEENSt15iterator_traitsIT_E10value_typeESB_SB_St8functionIFNSD_10value_typeERKNSD_14rectangle_typeEEEmRNS_8ExecutorEENKUlvE_clEv
   fun:_ZSt13__invoke_implIvRZN4mpcf15parallel_reduceIN9__gnu_cxx17__normal_iteratorIPNS0_3PcfIddEESt6vectorIS5_SaIS5_EEEEEENSt15iterator_traitsIT_E10value_typeESC_SC_St8functionIFNSE_10value_typeERKNSE_14rectangle_typeEEEmRNS0_8ExecutorEEUlvE_JEESC_St14__invoke_otherOT0_DpOT1_
   fun:_ZSt10__invoke_rIvRZN4mpcf15parallel_reduceIN9__gnu_cxx17__normal_iteratorIPNS0_3PcfIddEESt6vectorIS5_SaIS5_EEEEEENSt15iterator_traitsIT_E10value_typeESC_SC_St8functionIFNSE_10value_typeERKNSE_14rectangle_typeEEEmRNS0_8ExecutorEEUlvE_JEENSt9enable_ifIX16is_invocable_r_vISC_T0_DpT1_EESC_E4typeEOSR_DpOSS_
   fun:_ZNSt17_Function_handlerIFvvEZN4mpcf15parallel_reduceIN9__gnu_cxx17__normal_iteratorIPNS1_3PcfIddEESt6vectorIS6_SaIS6_EEEEEENSt15iterator_traitsIT_E10value_typeESD_SD_St8functionIFNSF_10value_typeERKNSF_14rectangle_typeEEEmRNS1_8ExecutorEEUlvE_E9_M_invokeERKSt9_Any_data
   fun:_ZNKSt8functionIFvvEEclEv
   fun:_ZN2tf8Executor19_invoke_static_taskERNS_6WorkerEPNS_4NodeE
   fun:_ZN2tf8Executor7_invokeERNS_6WorkerEPNS_4NodeE
   fun:_ZN2tf8Executor13_exploit_taskERNS_6WorkerERPNS_4NodeE
   fun:_ZZN2tf8Executor6_spawnEmSt10shared_ptrINS_15WorkerInterfaceEEENKUlvE_clEv
   fun:_ZSt13__invoke_implIvZN2tf8Executor6_spawnEmSt10shared_ptrINS0_15WorkerInterfaceEEEUlvE_JEET_St14__invoke_otherOT0_DpOT1_
}
{
   <insert_a_suppression_name_here>
   Helgrind:Race
   fun:_ZNSt6vectorIN4mpcf5PointIddEESaIS2_EEaSERKS4_
   fun:_ZN4mpcf11AccumulatorINS_3PcfIddEEEpLERKS2_
   fun:_ZZN4mpcf15parallel_reduceIN9__gnu_cxx17__normal_iteratorIPNS_3PcfIddEESt6vectorIS4_SaIS4_EEEEEENSt15iterator_traitsIT_E10value_typeESB_SB_St8functionIFNSD_10value_typeERKNSD_14rectangle_typeEEEmRNS_8ExecutorEENKUlvE_clEv
   fun:_ZSt13__invoke_implIvRZN4mpcf15parallel_reduceIN9__gnu_cxx17__normal_iteratorIPNS0_3PcfIddEESt6vectorIS5_SaIS5_EEEEEENSt15iterator_traitsIT_E10value_typeESC_SC_St8functionIFNSE_10value_typeERKNSE_14rectangle_typeEEEmRNS0_8ExecutorEEUlvE_JEESC_St14__invoke_otherOT0_DpOT1_
   fun:_ZSt10__invoke_rIvRZN4mpcf15parallel_reduceIN9__gnu_cxx17__normal_iteratorIPNS0_3PcfIddEESt6vectorIS5_SaIS5_EEEEEENSt15iterator_traitsIT_E10value_typeESC_SC_St8functionIFNSE_10value_typeERKNSE_14rectangle_typeEEEmRNS0_8ExecutorEEUlvE_JEENSt9enable_ifIX16is_invocable_r_vISC_T0_DpT1_EESC_E4typeEOSR_DpOSS_
   fun:_ZNSt17_Function_handlerIFvvEZN4mpcf15parallel_reduceIN9__gnu_cxx17__normal_iteratorIPNS1_3PcfIddEESt6vectorIS6_SaIS6_EEEEEENSt15iterator_traitsIT_E10value_typeESD_SD_St8functionIFNSF_10value_typeERKNSF_14rectangle_typeEEEmRNS1_8ExecutorEEUlvE_E9_M_invokeERKSt9_Any_data
   fun:_ZNKSt8functionIFvvEEclEv
   fun:_ZN2tf8Executor19_invoke_static_taskERNS_6WorkerEPNS_4NodeE
   fun:_ZN2tf8Executor7_invokeERNS_6WorkerEPNS_4NodeE
   fun:_ZN2tf8Executor13_exploit_taskERNS_6WorkerERPNS_4NodeE
   fun:_ZZN2tf8Executor6_spawnEmSt10shared_ptrINS_15WorkerInterfaceEEENKUlvE_clEv
   fun:_ZSt13__invoke_implIvZN2tf8Executor6_spawnEmSt10shared_ptrINS0_15WorkerInterfaceEEEUlvE_JEET_St14__invoke_otherOT0_DpOT1_
}
{
   <insert_a_suppression_name_here>
   Helgrind:Race
   fun:_ZNSt6vectorIN4mpcf5PointIddEESaIS2_EEaSERKS4_
   fun:_ZN4mpcf11AccumulatorINS_3PcfIddEEEpLERKS2_
   fun:_ZZN4mpcf15parallel_reduceIN9__gnu_cxx17__normal_iteratorIPNS_3PcfIddEESt6vectorIS4_SaIS4_EEEEEENSt15iterator_traitsIT_E10value_typeESB_SB_St8functionIFNSD_10value_typeERKNSD_14rectangle_typeEEEmRNS_8ExecutorEENKUlvE_clEv
   fun:_ZSt13__invoke_implIvRZN4mpcf15parallel_reduceIN9__gnu_cxx17__normal_iteratorIPNS0_3PcfIddEESt6vectorIS5_SaIS5_EEEEEENSt15iterator_traitsIT_E10value_typeESC_SC_St8functionIFNSE_10value_typeERKNSE_14rectangle_typeEEEmRNS0_8ExecutorEEUlvE_JEESC_St14__invoke_otherOT0_DpOT1_
   fun:_ZSt10__invoke_rIvRZN4mpcf15parallel_reduceIN9__gnu_cxx17__normal_iteratorIPNS0_3PcfIddEESt6vectorIS5_SaIS5_EEEEEENSt15iterator_traitsIT_E10value_typeESC_SC_St8functionIFNSE_10value_typeERKNSE_14rectangle_typeEEEmRNS0_8ExecutorEEUlvE_JEENSt9enable_ifIX16is_invocable_r_vISC_T0_DpT1_EESC_E4typeEOSR_DpOSS_
   fun:_ZNSt17_Function_handlerIFvvEZN4mpcf15parallel_reduceIN9__gnu_cxx17__normal_iteratorIPNS1_3PcfIddEESt6vectorIS6_SaIS6_EEEEEENSt15iterator_traitsIT_E10value_typeESD_SD_St8functionIFNSF_10value_typeERKNSF_14rectangle_typeEEEmRNS1_8ExecutorEEUlvE_E9_M_invokeERKSt9_Any_data
   fun:_ZNKSt8functionIFvvEEclEv
   fun:_ZN2tf8Executor19_invoke_static_taskERNS_6WorkerEPNS_4NodeE
   fun:_ZN2tf8Executor7_invokeERNS_6WorkerEPNS_4NodeE
   fun:_ZN2tf8Executor13_exploit_taskERNS_6WorkerERPNS_4NodeE
   fun:_ZZN2tf8Executor6_spawnEmSt10shared_ptrINS_15WorkerInterfaceEEENKUlvE_clEv
   fun:_ZSt13__invoke_implIvZN2tf8Executor6_spawnEmSt10shared_ptrINS0_15WorkerInterfaceEEEUlvE_JEET_St14__invoke_otherOT0_DpOT1_
}
{
   <insert_a_suppression_name_here>
   Helgrind:Race
   fun:_ZNSt6vectorIN4mpcf5PointIddEESaIS2_EE5clearEv
   fun:_ZN4mpcf11AccumulatorINS_3PcfIddEEE13combine_with_ERKSt6vectorINS_5PointIddEESaIS6_EE
   fun:_ZN4mpcf11AccumulatorINS_3PcfIddEEEpLERKS2_
   fun:_ZZN4mpcf15parallel_reduceIN9__gnu_cxx17__normal_iteratorIPNS_3PcfIddEESt6vectorIS4_SaIS4_EEEEEENSt15iterator_traitsIT_E10value_typeESB_SB_St8functionIFNSD_10value_typeERKNSD_14rectangle_typeEEEmRNS_8ExecutorEENKUlvE_clEv
   fun:_ZSt13__invoke_implIvRZN4mpcf15parallel_reduceIN9__gnu_cxx17__normal_iteratorIPNS0_3PcfIddEESt6vectorIS5_SaIS5_EEEEEENSt15iterator_traitsIT_E10value_typeESC_SC_St8functionIFNSE_10value_typeERKNSE_14rectangle_typeEEEmRNS0_8ExecutorEEUlvE_JEESC_St14__invoke_otherOT0_DpOT1_
   fun:_ZSt10__invoke_rIvRZN4mpcf15parallel_reduceIN9__gnu_cxx17__normal_iteratorIPNS0_3PcfIddEESt6vectorIS5_SaIS5_EEEEEENSt15iterator_traitsIT_E10value_typeESC_SC_St8functionIFNSE_10value_typeERKNSE_14rectangle_typeEEEmRNS0_8ExecutorEEUlvE_JEENSt9enable_ifIX16is_invocable_r_vISC_T0_DpT1_EESC_E4typeEOSR_DpOSS_
   fun:_ZNSt17_Function_handlerIFvvEZN4mpcf15parallel_reduceIN9__gnu_cxx17__normal_iteratorIPNS1_3PcfIddEESt6vectorIS6_SaIS6_EEEEEENSt15iterator_traitsIT_E10value_typeESD_SD_St8functionIFNSF_10value_typeERKNSF_14rectangle_typeEEEmRNS1_8ExecutorEEUlvE_E9_M_invokeERKSt9_Any_data
   fun:_ZNKSt8functionIFvvEEclEv
   fun:_ZN2tf8Executor19_invoke_static_taskERNS_6WorkerEPNS_4NodeE
   fun:_ZN2tf8Executor7_invokeERNS_6WorkerEPNS_4NodeE
   fun:_ZN2tf8Executor13_exploit_taskERNS_6WorkerERPNS_4NodeE
   fun:_ZZN2tf8Executor6_spawnEmSt10shared_ptrINS_15WorkerInterfaceEEENKUlvE_clEv
}
{
   <insert_a_suppression_name_here>
   Helgrind:Race
   fun:_ZNSt6vectorIN4mpcf5PointIddEESaIS2_EE15_M_erase_at_endEPS2_
   fun:_ZNSt6vectorIN4mpcf5PointIddEESaIS2_EE5clearEv
   fun:_ZN4mpcf11AccumulatorINS_3PcfIddEEE13combine_with_ERKSt6vectorINS_5PointIddEESaIS6_EE
   fun:_ZN4mpcf11AccumulatorINS_3PcfIddEEEpLERKS2_
   fun:_ZZN4mpcf15parallel_reduceIN9__gnu_cxx17__normal_iteratorIPNS_3PcfIddEESt6vectorIS4_SaIS4_EEEEEENSt15iterator_traitsIT_E10value_typeESB_SB_St8functionIFNSD_10value_typeERKNSD_14rectangle_typeEEEmRNS_8ExecutorEENKUlvE_clEv
   fun:_ZSt13__invoke_implIvRZN4mpcf15parallel_reduceIN9__gnu_cxx17__normal_iteratorIPNS0_3PcfIddEESt6vectorIS5_SaIS5_EEEEEENSt15iterator_traitsIT_E10value_typeESC_SC_St8functionIFNSE_10value_typeERKNSE_14rectangle_typeEEEmRNS0_8ExecutorEEUlvE_JEESC_St14__invoke_otherOT0_DpOT1_
   fun:_ZSt10__invoke_rIvRZN4mpcf15parallel_reduceIN9__gnu_cxx17__normal_iteratorIPNS0_3PcfIddEESt6vectorIS5_SaIS5_EEEEEENSt15iterator_traitsIT_E10value_typeESC_SC_St8functionIFNSE_10value_typeERKNSE_14rectangle_typeEEEmRNS0_8ExecutorEEUlvE_JEENSt9enable_ifIX16is_invocable_r_vISC_T0_DpT1_EESC_E4typeEOSR_DpOSS_
   fun:_ZNSt17_Function_handlerIFvvEZN4mpcf15parallel_reduceIN9__gnu_cxx17__normal_iteratorIPNS1_3PcfIddEESt6vectorIS6_SaIS6_EEEEEENSt15iterator_traitsIT_E10value_typeESD_SD_St8functionIFNSF_10value_typeERKNSF_14rectangle_typeEEEmRNS1_8ExecutorEEUlvE_E9_M_invokeERKSt9_Any_data
   fun:_ZNKSt8functionIFvvEEclEv
   fun:_ZN2tf8Executor19_invoke_static_taskERNS_6WorkerEPNS_4NodeE
   fun:_ZN2tf8Executor7_invokeERNS_6WorkerEPNS_4NodeE
   fun:_ZN2tf8Executor13_exploit_taskERNS_6WorkerERPNS_4NodeE
}
{
   <insert_a_suppression_name_here>
   Helgrind:Race
   fun:_ZNSt6vectorIN4mpcf5PointIddEESaIS2_EE17_M_default_appendEm
   fun:_ZNSt6vectorIN4mpcf5PointIddEESaIS2_EE6resizeEm
   fun:_ZN4mpcf11AccumulatorINS_3PcfIddEEE13combine_with_ERKSt6vectorINS_5PointIddEESaIS6_EE
   fun:_ZN4mpcf11AccumulatorINS_3PcfIddEEEpLERKS2_
   fun:_ZZN4mpcf15parallel_reduceIN9__gnu_cxx17__normal_iteratorIPNS_3PcfIddEESt6vectorIS4_SaIS4_EEEEEENSt15iterator_traitsIT_E10value_typeESB_SB_St8functionIFNSD_10value_typeERKNSD_14rectangle_typeEEEmRNS_8ExecutorEENKUlvE_clEv
   fun:_ZSt13__invoke_implIvRZN4mpcf15parallel_reduceIN9__gnu_cxx17__normal_iteratorIPNS0_3PcfIddEESt6vectorIS5_SaIS5_EEEEEENSt15iterator_traitsIT_E10value_typeESC_SC_St8functionIFNSE_10value_typeERKNSE_14rectangle_typeEEEmRNS0_8ExecutorEEUlvE_JEESC_St14__invoke_otherOT0_DpOT1_
   fun:_ZSt10__invoke_rIvRZN4mpcf15parallel_reduceIN9__gnu_cxx17__normal_iteratorIPNS0_3PcfIddEESt6vectorIS5_SaIS5_EEEEEENSt15iterator_traitsIT_E10value_typeESC_SC_St8functionIFNSE_10value_typeERKNSE_14rectangle_typeEEEmRNS0_8ExecutorEEUlvE_JEENSt9enable_ifIX16is_invocable_r_vISC_T0_DpT1_EESC_E4typeEOSR_DpOSS_
   fun:_ZNSt17_Function_handlerIFvvEZN4mpcf15parallel_reduceIN9__gnu_cxx17__normal_iteratorIPNS1_3PcfIddEESt6vectorIS6_SaIS6_EEEEEENSt15iterator_traitsIT_E10value_typeESD_SD_St8functionIFNSF_10value_typeERKNSF_14rectangle_typeEEEmRNS1_8ExecutorEEUlvE_E9_M_invokeERKSt9_Any_data
   fun:_ZNKSt8functionIFvvEEclEv
   fun:_ZN2tf8Executor19_invoke_static_taskERNS_6WorkerEPNS_4NodeE
   fun:_ZN2tf8Executor7_invokeERNS_6WorkerEPNS_4NodeE
   fun:_ZN2tf8Executor13_exploit_taskERNS_6WorkerERPNS_4NodeE
}
{
   <insert_a_suppression_name_here>
   Helgrind:Race
   fun:_ZNSt6vectorIN4mpcf5PointIddEESaIS2_EE17_M_default_appendEm
   fun:_ZNSt6vectorIN4mpcf5PointIddEESaIS2_EE6resizeEm
   fun:_ZN4mpcf11AccumulatorINS_3PcfIddEEE13combine_with_ERKSt6vectorINS_5PointIddEESaIS6_EE
   fun:_ZN4mpcf11AccumulatorINS_3PcfIddEEEpLERKS2_
   fun:_ZZN4mpcf15parallel_reduceIN9__gnu_cxx17__normal_iteratorIPNS_3PcfIddEESt6vectorIS4_SaIS4_EEEEEENSt15iterator_traitsIT_E10value_typeESB_SB_St8functionIFNSD_10value_typeERKNSD_14rectangle_typeEEEmRNS_8ExecutorEENKUlvE_clEv
   fun:_ZSt13__invoke_implIvRZN4mpcf15parallel_reduceIN9__gnu_cxx17__normal_iteratorIPNS0_3PcfIddEESt6vectorIS5_SaIS5_EEEEEENSt15iterator_traitsIT_E10value_typeESC_SC_St8functionIFNSE_10value_typeERKNSE_14rectangle_typeEEEmRNS0_8ExecutorEEUlvE_JEESC_St14__invoke_otherOT0_DpOT1_
   fun:_ZSt10__invoke_rIvRZN4mpcf15parallel_reduceIN9__gnu_cxx17__normal_iteratorIPNS0_3PcfIddEESt6vectorIS5_SaIS5_EEEEEENSt15iterator_traitsIT_E10value_typeESC_SC_St8functionIFNSE_10value_typeERKNSE_14rectangle_typeEEEmRNS0_8ExecutorEEUlvE_JEENSt9enable_ifIX16is_invocable_r_vISC_T0_DpT1_EESC_E4typeEOSR_DpOSS_
   fun:_ZNSt17_Function_handlerIFvvEZN4mpcf15parallel_reduceIN9__gnu_cxx17__normal_iteratorIPNS1_3PcfIddEESt6vectorIS6_SaIS6_EEEEEENSt15iterator_traitsIT_E10value_typeESD_SD_St8functionIFNSF_10value_typeERKNSF_14rectangle_typeEEEmRNS1_8ExecutorEEUlvE_E9_M_invokeERKSt9_Any_data
   fun:_ZNKSt8functionIFvvEEclEv
   fun:_ZN2tf8Executor19_invoke_static_taskERNS_6WorkerEPNS_4NodeE
   fun:_ZN2tf8Executor7_invokeERNS_6WorkerEPNS_4NodeE
   fun:_ZN2tf8Executor13_exploit_taskERNS_6WorkerERPNS_4NodeE
}
{
   <insert_a_suppression_name_here>
   Helgrind:Race
   fun:_ZNSt6vectorIN4mpcf5PointIddEESaIS2_EE17_M_default_appendEm
   fun:_ZNSt6vectorIN4mpcf5PointIddEESaIS2_EE6resizeEm
   fun:_ZN4mpcf11AccumulatorINS_3PcfIddEEE13combine_with_ERKSt6vectorINS_5PointIddEESaIS6_EE
   fun:_ZN4mpcf11AccumulatorINS_3PcfIddEEEpLERKS2_
   fun:_ZZN4mpcf15parallel_reduceIN9__gnu_cxx17__normal_iteratorIPNS_3PcfIddEESt6vectorIS4_SaIS4_EEEEEENSt15iterator_traitsIT_E10value_typeESB_SB_St8functionIFNSD_10value_typeERKNSD_14rectangle_typeEEEmRNS_8ExecutorEENKUlvE_clEv
   fun:_ZSt13__invoke_implIvRZN4mpcf15parallel_reduceIN9__gnu_cxx17__normal_iteratorIPNS0_3PcfIddEESt6vectorIS5_SaIS5_EEEEEENSt15iterator_traitsIT_E10value_typeESC_SC_St8functionIFNSE_10value_typeERKNSE_14rectangle_typeEEEmRNS0_8ExecutorEEUlvE_JEESC_St14__invoke_otherOT0_DpOT1_
   fun:_ZSt10__invoke_rIvRZN4mpcf15parallel_reduceIN9__gnu_cxx17__normal_iteratorIPNS0_3PcfIddEESt6vectorIS5_SaIS5_EEEEEENSt15iterator_traitsIT_E10value_typeESC_SC_St8functionIFNSE_10value_typeERKNSE_14rectangle_typeEEEmRNS0_8ExecutorEEUlvE_JEENSt9enable_ifIX16is_invocable_r_vISC_T0_DpT1_EESC_E4typeEOSR_DpOSS_
   fun:_ZNSt17_Function_handlerIFvvEZN4mpcf15parallel_reduceIN9__gnu_cxx17__normal_iteratorIPNS1_3PcfIddEESt6vectorIS6_SaIS6_EEEEEENSt15iterator_traitsIT_E10value_typeESD_SD_St8functionIFNSF_10value_typeERKNSF_14rectangle_typeEEEmRNS1_8ExecutorEEUlvE_E9_M_invokeERKSt9_Any_data
   fun:_ZNKSt8functionIFvvEEclEv
   fun:_ZN2tf8Executor19_invoke_static_taskERNS_6WorkerEPNS_4NodeE
   fun:_ZN2tf8Executor7_invokeERNS_6WorkerEPNS_4NodeE
   fun:_ZN2tf8Executor13_exploit_taskERNS_6WorkerERPNS_4NodeE
}
{
   <insert_a_suppression_name_here>
   Helgrind:Race
   fun:_ZNSt6vectorIN4mpcf5PointIddEESaIS2_EE17_M_default_appendEm
   fun:_ZNSt6vectorIN4mpcf5PointIddEESaIS2_EE6resizeEm
   fun:_ZN4mpcf11AccumulatorINS_3PcfIddEEE13combine_with_ERKSt6vectorINS_5PointIddEESaIS6_EE
   fun:_ZN4mpcf11AccumulatorINS_3PcfIddEEEpLERKS2_
   fun:_ZZN4mpcf15parallel_reduceIN9__gnu_cxx17__normal_iteratorIPNS_3PcfIddEESt6vectorIS4_SaIS4_EEEEEENSt15iterator_traitsIT_E10value_typeESB_SB_St8functionIFNSD_10value_typeERKNSD_14rectangle_typeEEEmRNS_8ExecutorEENKUlvE_clEv
   fun:_ZSt13__invoke_implIvRZN4mpcf15parallel_reduceIN9__gnu_cxx17__normal_iteratorIPNS0_3PcfIddEESt6vectorIS5_SaIS5_EEEEEENSt15iterator_traitsIT_E10value_typeESC_SC_St8functionIFNSE_10value_typeERKNSE_14rectangle_typeEEEmRNS0_8ExecutorEEUlvE_JEESC_St14__invoke_otherOT0_DpOT1_
   fun:_ZSt10__invoke_rIvRZN4mpcf15parallel_reduceIN9__gnu_cxx17__normal_iteratorIPNS0_3PcfIddEESt6vectorIS5_SaIS5_EEEEEENSt15iterator_traitsIT_E10value_typeESC_SC_St8functionIFNSE_10value_typeERKNSE_14rectangle_typeEEEmRNS0_8ExecutorEEUlvE_JEENSt9enable_ifIX16is_invocable_r_vISC_T0_DpT1_EESC_E4typeEOSR_DpOSS_
   fun:_ZNSt17_Function_handlerIFvvEZN4mpcf15parallel_reduceIN9__gnu_cxx17__normal_iteratorIPNS1_3PcfIddEESt6vectorIS6_SaIS6_EEEEEENSt15iterator_traitsIT_E10value_typeESD_SD_St8functionIFNSF_10value_typeERKNSF_14rectangle_typeEEEmRNS1_8ExecutorEEUlvE_E9_M_invokeERKSt9_Any_data
   fun:_ZNKSt8functionIFvvEEclEv
   fun:_ZN2tf8Executor19_invoke_static_taskERNS_6WorkerEPNS_4NodeE
   fun:_ZN2tf8Executor7_invokeERNS_6WorkerEPNS_4NodeE
   fun:_ZN2tf8Executor13_exploit_taskERNS_6WorkerERPNS_4NodeE
}
{
   <insert_a_suppression_name_here>
   Helgrind:Race
   fun:_ZN9__gnu_cxx17__normal_iteratorIPKN4mpcf5PointIddEESt6vectorIS3_SaIS3_EEEC1ERKS5_
   fun:_ZNKSt6vectorIN4mpcf5PointIddEESaIS2_EE3endEv
   fun:_ZN4mpcf18iterate_rectanglesINS_5PointIddEEZNS_11AccumulatorINS_3PcfIddEEE13combine_with_ERKSt6vectorIS2_SaIS2_EEEUlRKNS_9RectangleIddEEE_EEvRKS7_IT_SaISH_EESL_T0_NSH_9time_typeESN_
   fun:_ZN4mpcf11AccumulatorINS_3PcfIddEEE13combine_with_ERKSt6vectorINS_5PointIddEESaIS6_EE
   fun:_ZN4mpcf11AccumulatorINS_3PcfIddEEEpLERKS2_
   fun:_ZZN4mpcf15parallel_reduceIN9__gnu_cxx17__normal_iteratorIPNS_3PcfIddEESt6vectorIS4_SaIS4_EEEEEENSt15iterator_traitsIT_E10value_typeESB_SB_St8functionIFNSD_10value_typeERKNSD_14rectangle_typeEEEmRNS_8ExecutorEENKUlvE_clEv
   fun:_ZSt13__invoke_implIvRZN4mpcf15parallel_reduceIN9__gnu_cxx17__normal_iteratorIPNS0_3PcfIddEESt6vectorIS5_SaIS5_EEEEEENSt15iterator_traitsIT_E10value_typeESC_SC_St8functionIFNSE_10value_typeERKNSE_14rectangle_typeEEEmRNS0_8ExecutorEEUlvE_JEESC_St14__invoke_otherOT0_DpOT1_
   fun:_ZSt10__invoke_rIvRZN4mpcf15parallel_reduceIN9__gnu_cxx17__normal_iteratorIPNS0_3PcfIddEESt6vectorIS5_SaIS5_EEEEEENSt15iterator_traitsIT_E10value_typeESC_SC_St8functionIFNSE_10value_typeERKNSE_14rectangle_typeEEEmRNS0_8ExecutorEEUlvE_JEENSt9enable_ifIX16is_invocable_r_vISC_T0_DpT1_EESC_E4typeEOSR_DpOSS_
   fun:_ZNSt17_Function_handlerIFvvEZN4mpcf15parallel_reduceIN9__gnu_cxx17__normal_iteratorIPNS1_3PcfIddEESt6vectorIS6_SaIS6_EEEEEENSt15iterator_traitsIT_E10value_typeESD_SD_St8functionIFNSF_10value_typeERKNSF_14rectangle_typeEEEmRNS1_8ExecutorEEUlvE_E9_M_invokeERKSt9_Any_data
   fun:_ZNKSt8functionIFvvEEclEv
   fun:_ZN2tf8Executor19_invoke_static_taskERNS_6WorkerEPNS_4NodeE
   fun:_ZN2tf8Executor7_invokeERNS_6WorkerEPNS_4NodeE
}
{
   <insert_a_suppression_name_here>
   Helgrind:Race
   fun:_ZN9__gnu_cxx17__normal_iteratorIPKN4mpcf5PointIddEESt6vectorIS3_SaIS3_EEEC1ERKS5_
   fun:_ZNKSt6vectorIN4mpcf5PointIddEESaIS2_EE5beginEv
   fun:_ZN4mpcf18iterate_rectanglesINS_5PointIddEEZNS_11AccumulatorINS_3PcfIddEEE13combine_with_ERKSt6vectorIS2_SaIS2_EEEUlRKNS_9RectangleIddEEE_EEvRKS7_IT_SaISH_EESL_T0_NSH_9time_typeESN_
   fun:_ZN4mpcf11AccumulatorINS_3PcfIddEEE13combine_with_ERKSt6vectorINS_5PointIddEESaIS6_EE
   fun:_ZN4mpcf11AccumulatorINS_3PcfIddEEEpLERKS2_
   fun:_ZZN4mpcf15parallel_reduceIN9__gnu_cxx17__normal_iteratorIPNS_3PcfIddEESt6vectorIS4_SaIS4_EEEEEENSt15iterator_traitsIT_E10value_typeESB_SB_St8functionIFNSD_10value_typeERKNSD_14rectangle_typeEEEmRNS_8ExecutorEENKUlvE_clEv
   fun:_ZSt13__invoke_implIvRZN4mpcf15parallel_reduceIN9__gnu_cxx17__normal_iteratorIPNS0_3PcfIddEESt6vectorIS5_SaIS5_EEEEEENSt15iterator_traitsIT_E10value_typeESC_SC_St8functionIFNSE_10value_typeERKNSE_14rectangle_typeEEEmRNS0_8ExecutorEEUlvE_JEESC_St14__invoke_otherOT0_DpOT1_
   fun:_ZSt10__invoke_rIvRZN4mpcf15parallel_reduceIN9__gnu_cxx17__normal_iteratorIPNS0_3PcfIddEESt6vectorIS5_SaIS5_EEEEEENSt15iterator_traitsIT_E10value_typeESC_SC_St8functionIFNSE_10value_typeERKNSE_14rectangle_typeEEEmRNS0_8ExecutorEEUlvE_JEENSt9enable_ifIX16is_invocable_r_vISC_T0_DpT1_EESC_E4typeEOSR_DpOSS_
   fun:_ZNSt17_Function_handlerIFvvEZN4mpcf15parallel_reduceIN9__gnu_cxx17__normal_iteratorIPNS1_3PcfIddEESt6vectorIS6_SaIS6_EEEEEENSt15iterator_traitsIT_E10value_typeESD_SD_St8functionIFNSF_10value_typeERKNSF_14rectangle_typeEEEmRNS1_8ExecutorEEUlvE_E9_M_invokeERKSt9_Any_data
   fun:_ZNKSt8functionIFvvEEclEv
   fun:_ZN2tf8Executor19_invoke_static_taskERNS_6WorkerEPNS_4NodeE
   fun:_ZN2tf8Executor7_invokeERNS_6WorkerEPNS_4NodeE
}
{
   <insert_a_suppression_name_here>
   Helgrind:Race
   fun:_ZNKSt14_Function_base8_M_emptyEv
   fun:_ZNKSt8functionIFdRKN4mpcf9RectangleIddEEEEclES4_
   fun:_ZZN4mpcf11AccumulatorINS_3PcfIddEEE13combine_with_ERKSt6vectorINS_5PointIddEESaIS6_EEENKUlRKNS_9RectangleIddEEE_clESE_
   fun:_ZN4mpcf18iterate_rectanglesINS_5PointIddEEZNS_11AccumulatorINS_3PcfIddEEE13combine_with_ERKSt6vectorIS2_SaIS2_EEEUlRKNS_9RectangleIddEEE_EEvRKS7_IT_SaISH_EESL_T0_NSH_9time_typeESN_
   fun:_ZN4mpcf11AccumulatorINS_3PcfIddEEE13combine_with_ERKSt6vectorINS_5PointIddEESaIS6_EE
   fun:_ZN4mpcf11AccumulatorINS_3PcfIddEEEpLERKS2_
   fun:_ZZN4mpcf15parallel_reduceIN9__gnu_cxx17__normal_iteratorIPNS_3PcfIddEESt6vectorIS4_SaIS4_EEEEEENSt15iterator_traitsIT_E10value_typeESB_SB_St8functionIFNSD_10value_typeERKNSD_14rectangle_typeEEEmRNS_8ExecutorEENKUlvE_clEv
   fun:_ZSt13__invoke_implIvRZN4mpcf15parallel_reduceIN9__gnu_cxx17__normal_iteratorIPNS0_3PcfIddEESt6vectorIS5_SaIS5_EEEEEENSt15iterator_traitsIT_E10value_typeESC_SC_St8functionIFNSE_10value_typeERKNSE_14rectangle_typeEEEmRNS0_8ExecutorEEUlvE_JEESC_St14__invoke_otherOT0_DpOT1_
   fun:_ZSt10__invoke_rIvRZN4mpcf15parallel_reduceIN9__gnu_cxx17__normal_iteratorIPNS0_3PcfIddEESt6vectorIS5_SaIS5_EEEEEENSt15iterator_traitsIT_E10value_typeESC_SC_St8functionIFNSE_10value_typeERKNSE_14rectangle_typeEEEmRNS0_8ExecutorEEUlvE_JEENSt9enable_ifIX16is_invocable_r_vISC_T0_DpT1_EESC_E4typeEOSR_DpOSS_
   fun:_ZNSt17_Function_handlerIFvvEZN4mpcf15parallel_reduceIN9__gnu_cxx17__normal_iteratorIPNS1_3PcfIddEESt6vectorIS6_SaIS6_EEEEEENSt15iterator_traitsIT_E10value_typeESD_SD_St8functionIFNSF_10value_typeERKNSF_14rectangle_typeEEEmRNS1_8ExecutorEEUlvE_E9_M_invokeERKSt9_Any_data
   fun:_ZNKSt8functionIFvvEEclEv
   fun:_ZN2tf8Executor19_invoke_static_taskERNS_6WorkerEPNS_4NodeE
}
{
   <insert_a_suppression_name_here>
   Helgrind:Race
   fun:_ZNKSt8functionIFdRKN4mpcf9RectangleIddEEEEclES4_
   fun:_ZZN4mpcf11AccumulatorINS_3PcfIddEEE13combine_with_ERKSt6vectorINS_5PointIddEESaIS6_EEENKUlRKNS_9RectangleIddEEE_clESE_
   fun:_ZN4mpcf18iterate_rectanglesINS_5PointIddEEZNS_11AccumulatorINS_3PcfIddEEE13combine_with_ERKSt6vectorIS2_SaIS2_EEEUlRKNS_9RectangleIddEEE_EEvRKS7_IT_SaISH_EESL_T0_NSH_9time_typeESN_
   fun:_ZN4mpcf11AccumulatorINS_3PcfIddEEE13combine_with_ERKSt6vectorINS_5PointIddEESaIS6_EE
   fun:_ZN4mpcf11AccumulatorINS_3PcfIddEEEpLERKS2_
   fun:_ZZN4mpcf15parallel_reduceIN9__gnu_cxx17__normal_iteratorIPNS_3PcfIddEESt6vectorIS4_SaIS4_EEEEEENSt15iterator_traitsIT_E10value_typeESB_SB_St8functionIFNSD_10value_typeERKNSD_14rectangle_typeEEEmRNS_8ExecutorEENKUlvE_clEv
   fun:_ZSt13__invoke_implIvRZN4mpcf15parallel_reduceIN9__gnu_cxx17__normal_iteratorIPNS0_3PcfIddEESt6vectorIS5_SaIS5_EEEEEENSt15iterator_traitsIT_E10value_typeESC_SC_St8functionIFNSE_10value_typeERKNSE_14rectangle_typeEEEmRNS0_8ExecutorEEUlvE_JEESC_St14__invoke_otherOT0_DpOT1_
   fun:_ZSt10__invoke_rIvRZN4mpcf15parallel_reduceIN9__gnu_cxx17__normal_iteratorIPNS0_3PcfIddEESt6vectorIS5_SaIS5_EEEEEENSt15iterator_traitsIT_E10value_typeESC_SC_St8functionIFNSE_10value_typeERKNSE_14rectangle_typeEEEmRNS0_8ExecutorEEUlvE_JEENSt9enable_ifIX16is_invocable_r_vISC_T0_DpT1_EESC_E4typeEOSR_DpOSS_
   fun:_ZNSt17_Function_handlerIFvvEZN4mpcf15parallel_reduceIN9__gnu_cxx17__normal_iteratorIPNS1_3PcfIddEESt6vectorIS6_SaIS6_EEEEEENSt15iterator_traitsIT_E10value_typeESD_SD_St8functionIFNSF_10value_typeERKNSF_14rectangle_typeEEEmRNS1_8ExecutorEEUlvE_E9_M_invokeERKSt9_Any_data
   fun:_ZNKSt8functionIFvvEEclEv
   fun:_ZN2tf8Executor19_invoke_static_taskERNS_6WorkerEPNS_4NodeE
   fun:_ZN2tf8Executor7_invokeERNS_6WorkerEPNS_4NodeE
}
{
   <insert_a_suppression_name_here>
   Helgrind:Race
   fun:_ZNSt12_Vector_baseIN4mpcf5PointIddEESaIS2_EE17_Vector_impl_data12_M_copy_dataERKS5_
   fun:_ZNSt12_Vector_baseIN4mpcf5PointIddEESaIS2_EE17_Vector_impl_data12_M_swap_dataERS5_
   fun:_ZNSt6vectorIN4mpcf5PointIddEESaIS2_EE4swapERS4_
   fun:_ZN4mpcf11AccumulatorINS_3PcfIddEEE13combine_with_ERKSt6vectorINS_5PointIddEESaIS6_EE
   fun:_ZN4mpcf11AccumulatorINS_3PcfIddEEEpLERKS2_
   fun:_ZZN4mpcf15parallel_reduceIN9__gnu_cxx17__normal_iteratorIPNS_3PcfIddEESt6vectorIS4_SaIS4_EEEEEENSt15iterator_traitsIT_E10value_typeESB_SB_St8functionIFNSD_10value_typeERKNSD_14rectangle_typeEEEmRNS_8ExecutorEENKUlvE_clEv
   fun:_ZSt13__invoke_implIvRZN4mpcf15parallel_reduceIN9__gnu_cxx17__normal_iteratorIPNS0_3PcfIddEESt6vectorIS5_SaIS5_EEEEEENSt15iterator_traitsIT_E10value_typeESC_SC_St8functionIFNSE_10value_typeERKNSE_14rectangle_typeEEEmRNS0_8ExecutorEEUlvE_JEESC_St14__invoke_otherOT0_DpOT1_
   fun:_ZSt10__invoke_rIvRZN4mpcf15parallel_reduceIN9__gnu_cxx17__normal_iteratorIPNS0_3PcfIddEESt6vectorIS5_SaIS5_EEEEEENSt15iterator_traitsIT_E10value_typeESC_SC_St8functionIFNSE_10value_typeERKNSE_14rectangle_typeEEEmRNS0_8ExecutorEEUlvE_JEENSt9enable_ifIX16is_invocable_r_vISC_T0_DpT1_EESC_E4typeEOSR_DpOSS_
   fun:_ZNSt17_Function_handlerIFvvEZN4mpcf15parallel_reduceIN9__gnu_cxx17__normal_iteratorIPNS1_3PcfIddEESt6vectorIS6_SaIS6_EEEEEENSt15iterator_traitsIT_E10value_typeESD_SD_St8functionIFNSF_10value_typeERKNSF_14rectangle_typeEEEmRNS1_8ExecutorEEUlvE_E9_M_invokeERKSt9_Any_data
   fun:_ZNKSt8functionIFvvEEclEv
   fun:_ZN2tf8Executor19_invoke_static_taskERNS_6WorkerEPNS_4NodeE
   fun:_ZN2tf8Executor7_invokeERNS_6WorkerEPNS_4NodeE
}
{
   <insert_a_suppression_name_here>
   Helgrind:Race
   fun:_ZNSt12_Vector_baseIN4mpcf5PointIddEESaIS2_EE17_Vector_impl_data12_M_copy_dataERKS5_
   fun:_ZNSt12_Vector_baseIN4mpcf5PointIddEESaIS2_EE17_Vector_impl_data12_M_swap_dataERS5_
   fun:_ZNSt6vectorIN4mpcf5PointIddEESaIS2_EE4swapERS4_
   fun:_ZN4mpcf11AccumulatorINS_3PcfIddEEE13combine_with_ERKSt6vectorINS_5PointIddEESaIS6_EE
   fun:_ZN4mpcf11AccumulatorINS_3PcfIddEEEpLERKS2_
   fun:_ZZN4mpcf15parallel_reduceIN9__gnu_cxx17__normal_iteratorIPNS_3PcfIddEESt6vectorIS4_SaIS4_EEEEEENSt15iterator_traitsIT_E10value_typeESB_SB_St8functionIFNSD_10value_typeERKNSD_14rectangle_typeEEEmRNS_8ExecutorEENKUlvE_clEv
   fun:_ZSt13__invoke_implIvRZN4mpcf15parallel_reduceIN9__gnu_cxx17__normal_iteratorIPNS0_3PcfIddEESt6vectorIS5_SaIS5_EEEEEENSt15iterator_traitsIT_E10value_typeESC_SC_St8functionIFNSE_10value_typeERKNSE_14rectangle_typeEEEmRNS0_8ExecutorEEUlvE_JEESC_St14__invoke_otherOT0_DpOT1_
   fun:_ZSt10__invoke_rIvRZN4mpcf15parallel_reduceIN9__gnu_cxx17__normal_iteratorIPNS0_3PcfIddEESt6vectorIS5_SaIS5_EEEEEENSt15iterator_traitsIT_E10value_typeESC_SC_St8functionIFNSE_10value_typeERKNSE_14rectangle_typeEEEmRNS0_8ExecutorEEUlvE_JEENSt9enable_ifIX16is_invocable_r_vISC_T0_DpT1_EESC_E4typeEOSR_DpOSS_
   fun:_ZNSt17_Function_handlerIFvvEZN4mpcf15parallel_reduceIN9__gnu_cxx17__normal_iteratorIPNS1_3PcfIddEESt6vectorIS6_SaIS6_EEEEEENSt15iterator_traitsIT_E10value_typeESD_SD_St8functionIFNSF_10value_typeERKNSF_14rectangle_typeEEEmRNS1_8ExecutorEEUlvE_E9_M_invokeERKSt9_Any_data
   fun:_ZNKSt8functionIFvvEEclEv
   fun:_ZN2tf8Executor19_invoke_static_taskERNS_6WorkerEPNS_4NodeE
   fun:_ZN2tf8Executor7_invokeERNS_6WorkerEPNS_4NodeE
}
{
   <insert_a_suppression_name_here>
   Helgrind:Race
   fun:_ZNSt12_Vector_baseIN4mpcf5PointIddEESaIS2_EE17_Vector_impl_data12_M_copy_dataERKS5_
   fun:_ZNSt12_Vector_baseIN4mpcf5PointIddEESaIS2_EE17_Vector_impl_data12_M_swap_dataERS5_
   fun:_ZNSt6vectorIN4mpcf5PointIddEESaIS2_EE4swapERS4_
   fun:_ZN4mpcf11AccumulatorINS_3PcfIddEEE13combine_with_ERKSt6vectorINS_5PointIddEESaIS6_EE
   fun:_ZN4mpcf11AccumulatorINS_3PcfIddEEEpLERKS2_
   fun:_ZZN4mpcf15parallel_reduceIN9__gnu_cxx17__normal_iteratorIPNS_3PcfIddEESt6vectorIS4_SaIS4_EEEEEENSt15iterator_traitsIT_E10value_typeESB_SB_St8functionIFNSD_10value_typeERKNSD_14rectangle_typeEEEmRNS_8ExecutorEENKUlvE_clEv
   fun:_ZSt13__invoke_implIvRZN4mpcf15parallel_reduceIN9__gnu_cxx17__normal_iteratorIPNS0_3PcfIddEESt6vectorIS5_SaIS5_EEEEEENSt15iterator_traitsIT_E10value_typeESC_SC_St8functionIFNSE_10value_typeERKNSE_14rectangle_typeEEEmRNS0_8ExecutorEEUlvE_JEESC_St14__invoke_otherOT0_DpOT1_
   fun:_ZSt10__invoke_rIvRZN4mpcf15parallel_reduceIN9__gnu_cxx17__normal_iteratorIPNS0_3PcfIddEESt6vectorIS5_SaIS5_EEEEEENSt15iterator_traitsIT_E10value_typeESC_SC_St8functionIFNSE_10value_typeERKNSE_14rectangle_typeEEEmRNS0_8ExecutorEEUlvE_JEENSt9enable_ifIX16is_invocable_r_vISC_T0_DpT1_EESC_E4typeEOSR_DpOSS_
   fun:_ZNSt17_Function_handlerIFvvEZN4mpcf15parallel_reduceIN9__gnu_cxx17__normal_iteratorIPNS1_3PcfIddEESt6vectorIS6_SaIS6_EEEEEENSt15iterator_traitsIT_E10value_typeESD_SD_St8functionIFNSF_10value_typeERKNSF_14rectangle_typeEEEmRNS1_8ExecutorEEUlvE_E9_M_invokeERKSt9_Any_data
   fun:_ZNKSt8functionIFvvEEclEv
   fun:_ZN2tf8Executor19_invoke_static_taskERNS_6WorkerEPNS_4NodeE
   fun:_ZN2tf8Executor7_invokeERNS_6WorkerEPNS_4NodeE
}
{
   <insert_a_suppression_name_here>
   Helgrind:Race
   fun:_ZNSt12_Vector_baseIN4mpcf5PointIddEESaIS2_EE17_Vector_impl_data12_M_copy_dataERKS5_
   fun:_ZNSt12_Vector_baseIN4mpcf5PointIddEESaIS2_EE17_Vector_impl_data12_M_swap_dataERS5_
   fun:_ZNSt6vectorIN4mpcf5PointIddEESaIS2_EE4swapERS4_
   fun:_ZN4mpcf11AccumulatorINS_3PcfIddEEE13combine_with_ERKSt6vectorINS_5PointIddEESaIS6_EE
   fun:_ZN4mpcf11AccumulatorINS_3PcfIddEEEpLERKS2_
   fun:_ZZN4mpcf15parallel_reduceIN9__gnu_cxx17__normal_iteratorIPNS_3PcfIddEESt6vectorIS4_SaIS4_EEEEEENSt15iterator_traitsIT_E10value_typeESB_SB_St8functionIFNSD_10value_typeERKNSD_14rectangle_typeEEEmRNS_8ExecutorEENKUlvE_clEv
   fun:_ZSt13__invoke_implIvRZN4mpcf15parallel_reduceIN9__gnu_cxx17__normal_iteratorIPNS0_3PcfIddEESt6vectorIS5_SaIS5_EEEEEENSt15iterator_traitsIT_E10value_typeESC_SC_St8functionIFNSE_10value_typeERKNSE_14rectangle_typeEEEmRNS0_8ExecutorEEUlvE_JEESC_St14__invoke_otherOT0_DpOT1_
   fun:_ZSt10__invoke_rIvRZN4mpcf15parallel_reduceIN9__gnu_cxx17__normal_iteratorIPNS0_3PcfIddEESt6vectorIS5_SaIS5_EEEEEENSt15iterator_traitsIT_E10value_typeESC_SC_St8functionIFNSE_10value_typeERKNSE_14rectangle_typeEEEmRNS0_8ExecutorEEUlvE_JEENSt9enable_ifIX16is_invocable_r_vISC_T0_DpT1_EESC_E4typeEOSR_DpOSS_
   fun:_ZNSt17_Function_handlerIFvvEZN4mpcf15parallel_reduceIN9__gnu_cxx17__normal_iteratorIPNS1_3PcfIddEESt6vectorIS6_SaIS6_EEEEEENSt15iterator_traitsIT_E10value_typeESD_SD_St8functionIFNSF_10value_typeERKNSF_14rectangle_typeEEEmRNS1_8ExecutorEEUlvE_E9_M_invokeERKSt9_Any_data
   fun:_ZNKSt8functionIFvvEEclEv
   fun:_ZN2tf8Executor19_invoke_static_taskERNS_6WorkerEPNS_4NodeE
   fun:_ZN2tf8Executor7_invokeERNS_6WorkerEPNS_4NodeE
}
{
   <insert_a_suppression_name_here>
   Helgrind:Race
   fun:_ZNK2tf25SmallVectorTemplateCommonIPNS_4NodeEvE3endEv
   fun:_ZNK2tf25SmallVectorTemplateCommonIPNS_4NodeEvE4sizeEv
   fun:_ZNK2tf4Node16num_predecessorsEv
   fun:_ZN2tf8Executor7_invokeERNS_6WorkerEPNS_4NodeE
   fun:_ZN2tf8Executor13_exploit_taskERNS_6WorkerERPNS_4NodeE
   fun:_ZZN2tf8Executor6_spawnEmSt10shared_ptrINS_15WorkerInterfaceEEENKUlvE_clEv
   fun:_ZSt13__invoke_implIvZN2tf8Executor6_spawnEmSt10shared_ptrINS0_15WorkerInterfaceEEEUlvE_JEET_St14__invoke_otherOT0_DpOT1_
   fun:_ZSt8__invokeIZN2tf8Executor6_spawnEmSt10shared_ptrINS0_15WorkerInterfaceEEEUlvE_JEENSt15__invoke_resultIT_JDpT0_EE4typeEOS7_DpOS8_
   fun:_ZNSt6thread8_InvokerISt5tupleIJZN2tf8Executor6_spawnEmSt10shared_ptrINS2_15WorkerInterfaceEEEUlvE_EEE9_M_invokeIJLm0EEEEvSt12_Index_tupleIJXspT_EEE
   fun:_ZNSt6thread8_InvokerISt5tupleIJZN2tf8Executor6_spawnEmSt10shared_ptrINS2_15WorkerInterfaceEEEUlvE_EEEclEv
   fun:_ZNSt6thread11_State_implINS_8_InvokerISt5tupleIJZN2tf8Executor6_spawnEmSt10shared_ptrINS3_15WorkerInterfaceEEEUlvE_EEEEE6_M_runEv
   obj:/usr/lib/x86_64-linux-gnu/libstdc++.so.6.0.33
}
{
   <insert_a_suppression_name_here>
   Helgrind:Race
   fun:_ZNK2tf25SmallVectorTemplateCommonIPNS_4NodeEvE5beginEv
   fun:_ZNK2tf25SmallVectorTemplateCommonIPNS_4NodeEvE4sizeEv
   fun:_ZNK2tf4Node16num_predecessorsEv
   fun:_ZN2tf8Executor7_invokeERNS_6WorkerEPNS_4NodeE
   fun:_ZN2tf8Executor13_exploit_taskERNS_6WorkerERPNS_4NodeE
   fun:_ZZN2tf8Executor6_spawnEmSt10shared_ptrINS_15WorkerInterfaceEEENKUlvE_clEv
   fun:_ZSt13__invoke_implIvZN2tf8Executor6_spawnEmSt10shared_ptrINS0_15WorkerInterfaceEEEUlvE_JEET_St14__invoke_otherOT0_DpOT1_
   fun:_ZSt8__invokeIZN2tf8Executor6_spawnEmSt10shared_ptrINS0_15WorkerInterfaceEEEUlvE_JEENSt15__invoke_resultIT_JDpT0_EE4typeEOS7_DpOS8_
   fun:_ZNSt6thread8_InvokerISt5tupleIJZN2tf8Executor6_spawnEmSt10shared_ptrINS2_15WorkerInterfaceEEEUlvE_EEE9_M_invokeIJLm0EEEEvSt12_Index_tupleIJXspT_EEE
   fun:_ZNSt6thread8_InvokerISt5tupleIJZN2tf8Executor6_spawnEmSt10shared_ptrINS2_15WorkerInterfaceEEEUlvE_EEEclEv
   fun:_ZNSt6thread11_State_implINS_8_InvokerISt5tupleIJZN2tf8Executor6_spawnEmSt10shared_ptrINS3_15WorkerInterfaceEEEUlvE_EEEEE6_M_runEv
   obj:/usr/lib/x86_64-linux-gnu/libstdc++.so.6.0.33
}
{
   <insert_a_suppression_name_here>
   Helgrind:Race
   fun:_ZNK2tf4Node16num_predecessorsEv
   fun:_ZN2tf8Executor7_invokeERNS_6WorkerEPNS_4NodeE
   fun:_ZN2tf8Executor13_exploit_taskERNS_6WorkerERPNS_4NodeE
   fun:_ZZN2tf8Executor6_spawnEmSt10shared_ptrINS_15WorkerInterfaceEEENKUlvE_clEv
   fun:_ZSt13__invoke_implIvZN2tf8Executor6_spawnEmSt10shared_ptrINS0_15WorkerInterfaceEEEUlvE_JEET_St14__invoke_otherOT0_DpOT1_
   fun:_ZSt8__invokeIZN2tf8Executor6_spawnEmSt10shared_ptrINS0_15WorkerInterfaceEEEUlvE_JEENSt15__invoke_resultIT_JDpT0_EE4typeEOS7_DpOS8_
   fun:_ZNSt6thread8_InvokerISt5tupleIJZN2tf8Executor6_spawnEmSt10shared_ptrINS2_15WorkerInterfaceEEEUlvE_EEE9_M_invokeIJLm0EEEEvSt12_Index_tupleIJXspT_EEE
   fun:_ZNSt6thread8_InvokerISt5tupleIJZN2tf8Executor6_spawnEmSt10shared_ptrINS2_15WorkerInterfaceEEEUlvE_EEEclEv
   fun:_ZNSt6thread11_State_implINS_8_InvokerISt5tupleIJZN2tf8Executor6_spawnEmSt10shared_ptrINS3_15WorkerInterfaceEEEUlvE_EEEEE6_M_runEv
   obj:/usr/lib/x86_64-linux-gnu/libstdc++.so.6.0.33
   obj:/usr/libexec/valgrind/vgpreload_helgrind-amd64-linux.so
   fun:start_thread
}
{
   <insert_a_suppression_name_here>
   Helgrind:Race
   fun:fetch_add
   fun:_ZN2tf8Executor7_invokeERNS_6WorkerEPNS_4NodeE
   fun:_ZN2tf8Executor13_exploit_taskERNS_6WorkerERPNS_4NodeE
   fun:_ZZN2tf8Executor6_spawnEmSt10shared_ptrINS_15WorkerInterfaceEEENKUlvE_clEv
   fun:_ZSt13__invoke_implIvZN2tf8Executor6_spawnEmSt10shared_ptrINS0_15WorkerInterfaceEEEUlvE_JEET_St14__invoke_otherOT0_DpOT1_
   fun:_ZSt8__invokeIZN2tf8Executor6_spawnEmSt10shared_ptrINS0_15WorkerInterfaceEEEUlvE_JEENSt15__invoke_resultIT_JDpT0_EE4typeEOS7_DpOS8_
   fun:_ZNSt6thread8_InvokerISt5tupleIJZN2tf8Executor6_spawnEmSt10shared_ptrINS2_15WorkerInterfaceEEEUlvE_EEE9_M_invokeIJLm0EEEEvSt12_Index_tupleIJXspT_EEE
   fun:_ZNSt6thread8_InvokerISt5tupleIJZN2tf8Executor6_spawnEmSt10shared_ptrINS2_15WorkerInterfaceEEEUlvE_EEEclEv
   fun:_ZNSt6thread11_State_implINS_8_InvokerISt5tupleIJZN2tf8Executor6_spawnEmSt10shared_ptrINS3_15WorkerInterfaceEEEUlvE_EEEEE6_M_runEv
   obj:/usr/lib/x86_64-linux-gnu/libstdc++.so.6.0.33
   obj:/usr/libexec/valgrind/vgpreload_helgrind-amd64-linux.so
   fun:start_thread
   fun:clone
}
{
   <insert_a_suppression_name_here>
   Helgrind:Race
   fun:fetch_sub
   fun:_ZN2tf8Executor19_tear_down_nonasyncERNS_6WorkerEPNS_4NodeERS4_
   fun:_ZN2tf8Executor7_invokeERNS_6WorkerEPNS_4NodeE
   fun:_ZN2tf8Executor13_exploit_taskERNS_6WorkerERPNS_4NodeE
   fun:_ZZN2tf8Executor6_spawnEmSt10shared_ptrINS_15WorkerInterfaceEEENKUlvE_clEv
   fun:_ZSt13__invoke_implIvZN2tf8Executor6_spawnEmSt10shared_ptrINS0_15WorkerInterfaceEEEUlvE_JEET_St14__invoke_otherOT0_DpOT1_
   fun:_ZSt8__invokeIZN2tf8Executor6_spawnEmSt10shared_ptrINS0_15WorkerInterfaceEEEUlvE_JEENSt15__invoke_resultIT_JDpT0_EE4typeEOS7_DpOS8_
   fun:_ZNSt6thread8_InvokerISt5tupleIJZN2tf8Executor6_spawnEmSt10shared_ptrINS2_15WorkerInterfaceEEEUlvE_EEE9_M_invokeIJLm0EEEEvSt12_Index_tupleIJXspT_EEE
   fun:_ZNSt6thread8_InvokerISt5tupleIJZN2tf8Executor6_spawnEmSt10shared_ptrINS2_15WorkerInterfaceEEEUlvE_EEEclEv
   fun:_ZNSt6thread11_State_implINS_8_InvokerISt5tupleIJZN2tf8Executor6_spawnEmSt10shared_ptrINS3_15WorkerInterfaceEEEUlvE_EEEEE6_M_runEv
   obj:/usr/lib/x86_64-linux-gnu/libstdc++.so.6.0.33
   obj:/usr/libexec/valgrind/vgpreload_helgrind-amd64-linux.so
   fun:start_thread
}
{
   <insert_a_suppression_name_here>
   Helgrind:Race
   fun:_ZN2tf8Executor19_tear_down_topologyERNS_6WorkerEPNS_8TopologyERPNS_4NodeE
   fun:_ZN2tf8Executor19_tear_down_nonasyncERNS_6WorkerEPNS_4NodeERS4_
   fun:_ZN2tf8Executor7_invokeERNS_6WorkerEPNS_4NodeE
   fun:_ZN2tf8Executor13_exploit_taskERNS_6WorkerERPNS_4NodeE
   fun:_ZZN2tf8Executor6_spawnEmSt10shared_ptrINS_15WorkerInterfaceEEENKUlvE_clEv
   fun:_ZSt13__invoke_implIvZN2tf8Executor6_spawnEmSt10shared_ptrINS0_15WorkerInterfaceEEEUlvE_JEET_St14__invoke_otherOT0_DpOT1_
   fun:_ZSt8__invokeIZN2tf8Executor6_spawnEmSt10shared_ptrINS0_15WorkerInterfaceEEEUlvE_JEENSt15__invoke_resultIT_JDpT0_EE4typeEOS7_DpOS8_
   fun:_ZNSt6thread8_InvokerISt5tupleIJZN2tf8Executor6_spawnEmSt10shared_ptrINS2_15WorkerInterfaceEEEUlvE_EEE9_M_invokeIJLm0EEEEvSt12_Index_tupleIJXspT_EEE
   fun:_ZNSt6thread8_InvokerISt5tupleIJZN2tf8Executor6_spawnEmSt10shared_ptrINS2_15WorkerInterfaceEEEUlvE_EEEclEv
   fun:_ZNSt6thread11_State_implINS_8_InvokerISt5tupleIJZN2tf8Executor6_spawnEmSt10shared_ptrINS3_15WorkerInterfaceEEEUlvE_EEEEE6_M_runEv
   obj:/usr/lib/x86_64-linux-gnu/libstdc++.so.6.0.33
   obj:/usr/libexec/valgrind/vgpreload_helgrind-amd64-linux.so
}
{
   <insert_a_suppression_name_here>
   Helgrind:Race
   fun:_ZNKSt14_Function_base8_M_emptyEv
   fun:_ZNKSt8functionIFbvEEclEv
   fun:_ZN2tf8Executor19_tear_down_topologyERNS_6WorkerEPNS_8TopologyERPNS_4NodeE
   fun:_ZN2tf8Executor19_tear_down_nonasyncERNS_6WorkerEPNS_4NodeERS4_
   fun:_ZN2tf8Executor7_invokeERNS_6WorkerEPNS_4NodeE
   fun:_ZN2tf8Executor13_exploit_taskERNS_6WorkerERPNS_4NodeE
   fun:_ZZN2tf8Executor6_spawnEmSt10shared_ptrINS_15WorkerInterfaceEEENKUlvE_clEv
   fun:_ZSt13__invoke_implIvZN2tf8Executor6_spawnEmSt10shared_ptrINS0_15WorkerInterfaceEEEUlvE_JEET_St14__invoke_otherOT0_DpOT1_
   fun:_ZSt8__invokeIZN2tf8Executor6_spawnEmSt10shared_ptrINS0_15WorkerInterfaceEEEUlvE_JEENSt15__invoke_resultIT_JDpT0_EE4typeEOS7_DpOS8_
   fun:_ZNSt6thread8_InvokerISt5tupleIJZN2tf8Executor6_spawnEmSt10shared_ptrINS2_15WorkerInterfaceEEEUlvE_EEE9_M_invokeIJLm0EEEEvSt12_Index_tupleIJXspT_EEE
   fun:_ZNSt6thread8_InvokerISt5tupleIJZN2tf8Executor6_spawnEmSt10shared_ptrINS2_15WorkerInterfaceEEEUlvE_EEEclEv
   fun:_ZNSt6thread11_State_implINS_8_InvokerISt5tupleIJZN2tf8Executor6_spawnEmSt10shared_ptrINS3_15WorkerInterfaceEEEUlvE_EEEEE6_M_runEv
}
{
   <insert_a_suppression_name_here>
   Helgrind:Race
   fun:_ZNKSt8functionIFbvEEclEv
   fun:_ZN2tf8Executor19_tear_down_topologyERNS_6WorkerEPNS_8TopologyERPNS_4NodeE
   fun:_ZN2tf8Executor19_tear_down_nonasyncERNS_6WorkerEPNS_4NodeERS4_
   fun:_ZN2tf8Executor7_invokeERNS_6WorkerEPNS_4NodeE
   fun:_ZN2tf8Executor13_exploit_taskERNS_6WorkerERPNS_4NodeE
   fun:_ZZN2tf8Executor6_spawnEmSt10shared_ptrINS_15WorkerInterfaceEEENKUlvE_clEv
   fun:_ZSt13__invoke_implIvZN2tf8Executor6_spawnEmSt10shared_ptrINS0_15WorkerInterfaceEEEUlvE_JEET_St14__invoke_otherOT0_DpOT1_
   fun:_ZSt8__invokeIZN2tf8Executor6_spawnEmSt10shared_ptrINS0_15WorkerInterfaceEEEUlvE_JEENSt15__invoke_resultIT_JDpT0_EE4typeEOS7_DpOS8_
   fun:_ZNSt6thread8_InvokerISt5tupleIJZN2tf8Executor6_spawnEmSt10shared_ptrINS2_15WorkerInterfaceEEEUlvE_EEE9_M_invokeIJLm0EEEEvSt12_Index_tupleIJXspT_EEE
   fun:_ZNSt6thread8_InvokerISt5tupleIJZN2tf8Executor6_spawnEmSt10shared_ptrINS2_15WorkerInterfaceEEEUlvE_EEEclEv
   fun:_ZNSt6thread11_State_implINS_8_InvokerISt5tupleIJZN2tf8Executor6_spawnEmSt10shared_ptrINS3_15WorkerInterfaceEEEUlvE_EEEEE6_M_runEv
   obj:/usr/lib/x86_64-linux-gnu/libstdc++.so.6.0.33
}
{
   <insert_a_suppression_name_here>
   Helgrind:Race
   fun:_ZZN2tf8Executor5run_nIZNS0_3runERNS_8TaskflowEEUlvE_EENS_6FutureIvEES3_mOT_ENUlvE_clEv
   fun:_ZSt13__invoke_implIbRZN2tf8Executor5run_nIZNS1_3runERNS0_8TaskflowEEUlvE_EENS0_6FutureIvEES4_mOT_EUlvE_JEES8_St14__invoke_otherOT0_DpOT1_
   fun:_ZSt10__invoke_rIbRZN2tf8Executor5run_nIZNS1_3runERNS0_8TaskflowEEUlvE_EENS0_6FutureIvEES4_mOT_EUlvE_JEENSt9enable_ifIX16is_invocable_r_vIS8_T0_DpT1_EES8_E4typeEOSD_DpOSE_
   fun:_ZNSt17_Function_handlerIFbvEZN2tf8Executor5run_nIZNS2_3runERNS1_8TaskflowEEUlvE_EENS1_6FutureIvEES5_mOT_EUlvE_E9_M_invokeERKSt9_Any_data
   fun:_ZNKSt8functionIFbvEEclEv
   fun:_ZN2tf8Executor19_tear_down_topologyERNS_6WorkerEPNS_8TopologyERPNS_4NodeE
   fun:_ZN2tf8Executor19_tear_down_nonasyncERNS_6WorkerEPNS_4NodeERS4_
   fun:_ZN2tf8Executor7_invokeERNS_6WorkerEPNS_4NodeE
   fun:_ZN2tf8Executor13_exploit_taskERNS_6WorkerERPNS_4NodeE
   fun:_ZZN2tf8Executor6_spawnEmSt10shared_ptrINS_15WorkerInterfaceEEENKUlvE_clEv
   fun:_ZSt13__invoke_implIvZN2tf8Executor6_spawnEmSt10shared_ptrINS0_15WorkerInterfaceEEEUlvE_JEET_St14__invoke_otherOT0_DpOT1_
   fun:_ZSt8__invokeIZN2tf8Executor6_spawnEmSt10shared_ptrINS0_15WorkerInterfaceEEEUlvE_JEENSt15__invoke_resultIT_JDpT0_EE4typeEOS7_DpOS8_
}
{
   <insert_a_suppression_name_here>
   Helgrind:Race
   fun:_ZZN2tf8Executor5run_nIZNS0_3runERNS_8TaskflowEEUlvE_EENS_6FutureIvEES3_mOT_ENUlvE_clEv
   fun:_ZSt13__invoke_implIbRZN2tf8Executor5run_nIZNS1_3runERNS0_8TaskflowEEUlvE_EENS0_6FutureIvEES4_mOT_EUlvE_JEES8_St14__invoke_otherOT0_DpOT1_
   fun:_ZSt10__invoke_rIbRZN2tf8Executor5run_nIZNS1_3runERNS0_8TaskflowEEUlvE_EENS0_6FutureIvEES4_mOT_EUlvE_JEENSt9enable_ifIX16is_invocable_r_vIS8_T0_DpT1_EES8_E4typeEOSD_DpOSE_
   fun:_ZNSt17_Function_handlerIFbvEZN2tf8Executor5run_nIZNS2_3runERNS1_8TaskflowEEUlvE_EENS1_6FutureIvEES5_mOT_EUlvE_E9_M_invokeERKSt9_Any_data
   fun:_ZNKSt8functionIFbvEEclEv
   fun:_ZN2tf8Executor19_tear_down_topologyERNS_6WorkerEPNS_8TopologyERPNS_4NodeE
   fun:_ZN2tf8Executor19_tear_down_nonasyncERNS_6WorkerEPNS_4NodeERS4_
   fun:_ZN2tf8Executor7_invokeERNS_6WorkerEPNS_4NodeE
   fun:_ZN2tf8Executor13_exploit_taskERNS_6WorkerERPNS_4NodeE
   fun:_ZZN2tf8Executor6_spawnEmSt10shared_ptrINS_15WorkerInterfaceEEENKUlvE_clEv
   fun:_ZSt13__invoke_implIvZN2tf8Executor6_spawnEmSt10shared_ptrINS0_15WorkerInterfaceEEEUlvE_JEET_St14__invoke_otherOT0_DpOT1_
   fun:_ZSt8__invokeIZN2tf8Executor6_spawnEmSt10shared_ptrINS0_15WorkerInterfaceEEEUlvE_JEENSt15__invoke_resultIT_JDpT0_EE4typeEOS7_DpOS8_
}
{
   <insert_a_suppression_name_here>
   Helgrind:Race
   fun:_ZNKSt14_Function_base8_M_emptyEv
   fun:_ZNKSt8functionIFvvEEclEv
   fun:_ZN2tf8Executor19_tear_down_topologyERNS_6WorkerEPNS_8TopologyERPNS_4NodeE
   fun:_ZN2tf8Executor19_tear_down_nonasyncERNS_6WorkerEPNS_4NodeERS4_
   fun:_ZN2tf8Executor7_invokeERNS_6WorkerEPNS_4NodeE
   fun:_ZN2tf8Executor13_exploit_taskERNS_6WorkerERPNS_4NodeE
   fun:_ZZN2tf8Executor6_spawnEmSt10shared_ptrINS_15WorkerInterfaceEEENKUlvE_clEv
   fun:_ZSt13__invoke_implIvZN2tf8Executor6_spawnEmSt10shared_ptrINS0_15WorkerInterfaceEEEUlvE_JEET_St14__invoke_otherOT0_DpOT1_
   fun:_ZSt8__invokeIZN2tf8Executor6_spawnEmSt10shared_ptrINS0_15WorkerInterfaceEEEUlvE_JEENSt15__invoke_resultIT_JDpT0_EE4typeEOS7_DpOS8_
   fun:_ZNSt6thread8_InvokerISt5tupleIJZN2tf8Executor6_spawnEmSt10shared_ptrINS2_15WorkerInterfaceEEEUlvE_EEE9_M_invokeIJLm0EEEEvSt12_Index_tupleIJXspT_EEE
   fun:_ZNSt6thread8_InvokerISt5tupleIJZN2tf8Executor6_spawnEmSt10shared_ptrINS2_15WorkerInterfaceEEEUlvE_EEEclEv
   fun:_ZNSt6thread11_State_implINS_8_InvokerISt5tupleIJZN2tf8Executor6_spawnEmSt10shared_ptrINS3_15WorkerInterfaceEEEUlvE_EEEEE6_M_runEv
}
{
   <insert_a_suppression_name_here>
   Helgrind:Race
   fun:_ZNKSt8functionIFvvEEclEv
   fun:_ZN2tf8Executor19_tear_down_topologyERNS_6WorkerEPNS_8TopologyERPNS_4NodeE
   fun:_ZN2tf8Executor19_tear_down_nonasyncERNS_6WorkerEPNS_4NodeERS4_
   fun:_ZN2tf8Executor7_invokeERNS_6WorkerEPNS_4NodeE
   fun:_ZN2tf8Executor13_exploit_taskERNS_6WorkerERPNS_4NodeE
   fun:_ZZN2tf8Executor6_spawnEmSt10shared_ptrINS_15WorkerInterfaceEEENKUlvE_clEv
   fun:_ZSt13__invoke_implIvZN2tf8Executor6_spawnEmSt10shared_ptrINS0_15WorkerInterfaceEEEUlvE_JEET_St14__invoke_otherOT0_DpOT1_
   fun:_ZSt8__invokeIZN2tf8Executor6_spawnEmSt10shared_ptrINS0_15WorkerInterfaceEEEUlvE_JEENSt15__invoke_resultIT_JDpT0_EE4typeEOS7_DpOS8_
   fun:_ZNSt6thread8_InvokerISt5tupleIJZN2tf8Executor6_spawnEmSt10shared_ptrINS2_15WorkerInterfaceEEEUlvE_EEE9_M_invokeIJLm0EEEEvSt12_Index_tupleIJXspT_EEE
   fun:_ZNSt6thread8_InvokerISt5tupleIJZN2tf8Executor6_spawnEmSt10shared_ptrINS2_15WorkerInterfaceEEEUlvE_EEEclEv
   fun:_ZNSt6thread11_State_implINS_8_InvokerISt5tupleIJZN2tf8Executor6_spawnEmSt10shared_ptrINS3_15WorkerInterfaceEEEUlvE_EEEEE6_M_runEv
   obj:/usr/lib/x86_64-linux-gnu/libstdc++.so.6.0.33
}
{
   <insert_a_suppression_name_here>
   Helgrind:Race
   fun:_ZNSt15__uniq_ptr_implINSt13__future_base7_ResultIvEENS0_12_Result_base8_DeleterEE7releaseEv
   fun:_ZNSt10unique_ptrINSt13__future_base7_ResultIvEENS0_12_Result_base8_DeleterEE7releaseEv
   fun:_ZNSt10unique_ptrINSt13__future_base12_Result_baseENS1_8_DeleterEEC1INS0_7_ResultIvEES2_vEEOS_IT_T0_E
   fun:_ZNSt7promiseIvED1Ev
   fun:_ZN2tf8TopologyD1Ev
   fun:_ZSt10destroy_atIN2tf8TopologyEEvPT_
   fun:_ZSt8_DestroyIN2tf8TopologyEEvPT_
   fun:destroy<tf::Topology>
   fun:_ZNSt23_Sp_counted_ptr_inplaceIN2tf8TopologyESaIvELN9__gnu_cxx12_Lock_policyE2EE10_M_disposeEv
   fun:_ZNSt16_Sp_counted_baseILN9__gnu_cxx12_Lock_policyE2EE19_M_release_last_useEv
   fun:_ZNSt16_Sp_counted_baseILN9__gnu_cxx12_Lock_policyE2EE24_M_release_last_use_coldEv
   fun:_ZNSt16_Sp_counted_baseILN9__gnu_cxx12_Lock_policyE2EE10_M_releaseEv
   fun:_ZNSt14__shared_countILN9__gnu_cxx12_Lock_policyE2EED1Ev
}
{
   <insert_a_suppression_name_here>
   Helgrind:Race
   fun:_ZNSt15__uniq_ptr_implINSt13__future_base7_ResultIvEENS0_12_Result_base8_DeleterEE7releaseEv
   fun:_ZNSt10unique_ptrINSt13__future_base7_ResultIvEENS0_12_Result_base8_DeleterEE7releaseEv
   fun:_ZNSt10unique_ptrINSt13__future_base12_Result_baseENS1_8_DeleterEEC1INS0_7_ResultIvEES2_vEEOS_IT_T0_E
   fun:_ZNSt7promiseIvED1Ev
   fun:_ZN2tf8TopologyD1Ev
   fun:_ZSt10destroy_atIN2tf8TopologyEEvPT_
   fun:_ZSt8_DestroyIN2tf8TopologyEEvPT_
   fun:destroy<tf::Topology>
   fun:_ZNSt23_Sp_counted_ptr_inplaceIN2tf8TopologyESaIvELN9__gnu_cxx12_Lock_policyE2EE10_M_disposeEv
   fun:_ZNSt16_Sp_counted_baseILN9__gnu_cxx12_Lock_policyE2EE19_M_release_last_useEv
   fun:_ZNSt16_Sp_counted_baseILN9__gnu_cxx12_Lock_policyE2EE24_M_release_last_use_coldEv
   fun:_ZNSt16_Sp_counted_baseILN9__gnu_cxx12_Lock_policyE2EE10_M_releaseEv
   fun:_ZNSt14__shared_countILN9__gnu_cxx12_Lock_policyE2EED1Ev
}
{
   <insert_a_suppression_name_here>
   Helgrind:Race
   fun:_ZNKSt15__uniq_ptr_implINSt13__future_base12_Result_baseENS1_8_DeleterEE6_M_ptrEv
   fun:_ZNKSt10unique_ptrINSt13__future_base12_Result_baseENS1_8_DeleterEE3getEv
   fun:_ZNKSt10unique_ptrINSt13__future_base12_Result_baseENS1_8_DeleterEEdeEv
   fun:_ZNSt13__future_base13_State_baseV24waitEv
   fun:_ZNKSt14__basic_futureIvE4waitEv
   fun:_ZN4mpcf15parallel_reduceIN9__gnu_cxx17__normal_iteratorIPNS_3PcfIddEESt6vectorIS4_SaIS4_EEEEEENSt15iterator_traitsIT_E10value_typeESB_SB_St8functionIFNSD_10value_typeERKNSD_14rectangle_typeEEEmRNS_8ExecutorE
   fun:_ZN37ParallelReduce_AddThreeFunctions_Test8TestBodyEv
   fun:_ZN7testing8internal38HandleSehExceptionsInMethodIfSupportedINS_4TestEvEET0_PT_MS4_FS3_vEPKc
   fun:_ZN7testing8internal35HandleExceptionsInMethodIfSupportedINS_4TestEvEET0_PT_MS4_FS3_vEPKc
   fun:_ZN7testing4Test3RunEv
   fun:_ZN7testing8TestInfo3RunEv
   fun:_ZN7testing9TestSuite3RunEv
}
{
   <insert_a_suppression_name_here>
   Helgrind:Race
   fun:_ZNSt10unique_ptrINSt13__future_base12_Result_baseENS1_8_DeleterEED1Ev
   fun:_ZNSt13__future_base13_State_baseV2D1Ev
   fun:_ZSt10destroy_atINSt13__future_base13_State_baseV2EEvPT_
   fun:_ZSt8_DestroyINSt13__future_base13_State_baseV2EEvPT_
   fun:destroy<std::__future_base::_State_baseV2>
   fun:_ZNSt23_Sp_counted_ptr_inplaceINSt13__future_base13_State_baseV2ESaIvELN9__gnu_cxx12_Lock_policyE2EE10_M_disposeEv
   fun:_ZNSt16_Sp_counted_baseILN9__gnu_cxx12_Lock_policyE2EE10_M_releaseEv
   fun:_ZNSt14__shared_countILN9__gnu_cxx12_Lock_policyE2EED1Ev
   fun:_ZNSt12__shared_ptrINSt13__future_base13_State_baseV2ELN9__gnu_cxx12_Lock_policyE2EED1Ev
   fun:_ZNSt10shared_ptrINSt13__future_base13_State_baseV2EED1Ev
   fun:_ZNSt14__basic_futureIvED1Ev
   fun:_ZNSt6futureIvED1Ev
   fun:_ZN2tf6FutureIvED1Ev
}
{
   <insert_a_suppression_name_here>
   Helgrind:Race
   fun:_ZNSt12_Vector_baseIN4mpcf5PointIddEESaIS2_EE17_Vector_impl_dataC1EOS5_
   fun:_ZNSt12_Vector_baseIN4mpcf5PointIddEESaIS2_EE12_Vector_implC1EOS5_
   fun:_ZNSt12_Vector_baseIN4mpcf5PointIddEESaIS2_EEC1EOS4_
   fun:_ZNSt6vectorIN4mpcf5PointIddEESaIS2_EEC1EOS4_
   fun:_ZN4mpcf3PcfIddEC1EOSt6vectorINS_5PointIddEESaIS4_EE
   fun:_ZN4mpcf15parallel_reduceIN9__gnu_cxx17__normal_iteratorIPNS_3PcfIddEESt6vectorIS4_SaIS4_EEEEEENSt15iterator_traitsIT_E10value_typeESB_SB_St8functionIFNSD_10value_typeERKNSD_14rectangle_typeEEEmRNS_8ExecutorE
   fun:_ZN37ParallelReduce_AddThreeFunctions_Test8TestBodyEv
   fun:_ZN7testing8internal38HandleSehExceptionsInMethodIfSupportedINS_4TestEvEET0_PT_MS4_FS3_vEPKc
   fun:_ZN7testing8internal35HandleExceptionsInMethodIfSupportedINS_4TestEvEET0_PT_MS4_FS3_vEPKc
   fun:_ZN7testing4Test3RunEv
   fun:_ZN7testing8TestInfo3RunEv
   fun:_ZN7testing9TestSuite3RunEv
}
{
   <insert_a_suppression_name_here>
   Helgrind:Race
   fun:_ZNSt12_Vector_baseIN4mpcf5PointIddEESaIS2_EE17_Vector_impl_dataC1EOS5_
   fun:_ZNSt12_Vector_baseIN4mpcf5PointIddEESaIS2_EE12_Vector_implC1EOS5_
   fun:_ZNSt12_Vector_baseIN4mpcf5PointIddEESaIS2_EEC1EOS4_
   fun:_ZNSt6vectorIN4mpcf5PointIddEESaIS2_EEC1EOS4_
   fun:_ZN4mpcf3PcfIddEC1EOSt6vectorINS_5PointIddEESaIS4_EE
   fun:_ZN4mpcf15parallel_reduceIN9__gnu_cxx17__normal_iteratorIPNS_3PcfIddEESt6vectorIS4_SaIS4_EEEEEENSt15iterator_traitsIT_E10value_typeESB_SB_St8functionIFNSD_10value_typeERKNSD_14rectangle_typeEEEmRNS_8ExecutorE
   fun:_ZN37ParallelReduce_AddThreeFunctions_Test8TestBodyEv
   fun:_ZN7testing8internal38HandleSehExceptionsInMethodIfSupportedINS_4TestEvEET0_PT_MS4_FS3_vEPKc
   fun:_ZN7testing8internal35HandleExceptionsInMethodIfSupportedINS_4TestEvEET0_PT_MS4_FS3_vEPKc
   fun:_ZN7testing4Test3RunEv
   fun:_ZN7testing8TestInfo3RunEv
   fun:_ZN7testing9TestSuite3RunEv
}
{
   <insert_a_suppression_name_here>
   Helgrind:Race
   fun:_ZNSt12_Vector_baseIN4mpcf5PointIddEESaIS2_EE17_Vector_impl_dataC1EOS5_
   fun:_ZNSt12_Vector_baseIN4mpcf5PointIddEESaIS2_EE12_Vector_implC1EOS5_
   fun:_ZNSt12_Vector_baseIN4mpcf5PointIddEESaIS2_EEC1EOS4_
   fun:_ZNSt6vectorIN4mpcf5PointIddEESaIS2_EEC1EOS4_
   fun:_ZN4mpcf3PcfIddEC1EOSt6vectorINS_5PointIddEESaIS4_EE
   fun:_ZN4mpcf15parallel_reduceIN9__gnu_cxx17__normal_iteratorIPNS_3PcfIddEESt6vectorIS4_SaIS4_EEEEEENSt15iterator_traitsIT_E10value_typeESB_SB_St8functionIFNSD_10value_typeERKNSD_14rectangle_typeEEEmRNS_8ExecutorE
   fun:_ZN37ParallelReduce_AddThreeFunctions_Test8TestBodyEv
   fun:_ZN7testing8internal38HandleSehExceptionsInMethodIfSupportedINS_4TestEvEET0_PT_MS4_FS3_vEPKc
   fun:_ZN7testing8internal35HandleExceptionsInMethodIfSupportedINS_4TestEvEET0_PT_MS4_FS3_vEPKc
   fun:_ZN7testing4Test3RunEv
   fun:_ZN7testing8TestInfo3RunEv
   fun:_ZN7testing9TestSuite3RunEv
}
{
   <insert_a_suppression_name_here>
   Helgrind:Race
   fun:_ZNSt12_Vector_baseIN4mpcf5PointIddEESaIS2_EE17_Vector_impl_dataC1EOS5_
   fun:_ZNSt12_Vector_baseIN4mpcf5PointIddEESaIS2_EE12_Vector_implC1EOS5_
   fun:_ZNSt12_Vector_baseIN4mpcf5PointIddEESaIS2_EEC1EOS4_
   fun:_ZNSt6vectorIN4mpcf5PointIddEESaIS2_EEC1EOS4_
   fun:_ZN4mpcf3PcfIddEC1EOSt6vectorINS_5PointIddEESaIS4_EE
   fun:_ZN4mpcf15parallel_reduceIN9__gnu_cxx17__normal_iteratorIPNS_3PcfIddEESt6vectorIS4_SaIS4_EEEEEENSt15iterator_traitsIT_E10value_typeESB_SB_St8functionIFNSD_10value_typeERKNSD_14rectangle_typeEEEmRNS_8ExecutorE
   fun:_ZN37ParallelReduce_AddThreeFunctions_Test8TestBodyEv
   fun:_ZN7testing8internal38HandleSehExceptionsInMethodIfSupportedINS_4TestEvEET0_PT_MS4_FS3_vEPKc
   fun:_ZN7testing8internal35HandleExceptionsInMethodIfSupportedINS_4TestEvEET0_PT_MS4_FS3_vEPKc
   fun:_ZN7testing4Test3RunEv
   fun:_ZN7testing8TestInfo3RunEv
   fun:_ZN7testing9TestSuite3RunEv
}
{
   <insert_a_suppression_name_here>
   Helgrind:Race
   fun:_ZNSt12_Vector_baseIN4mpcf5PointIddEESaIS2_EE17_Vector_impl_dataC1EOS5_
   fun:_ZNSt12_Vector_baseIN4mpcf5PointIddEESaIS2_EE12_Vector_implC1EOS5_
   fun:_ZNSt12_Vector_baseIN4mpcf5PointIddEESaIS2_EEC1EOS4_
   fun:_ZNSt6vectorIN4mpcf5PointIddEESaIS2_EEC1EOS4_
   fun:_ZN4mpcf3PcfIddEC1EOSt6vectorINS_5PointIddEESaIS4_EE
   fun:_ZN4mpcf15parallel_reduceIN9__gnu_cxx17__normal_iteratorIPNS_3PcfIddEESt6vectorIS4_SaIS4_EEEEEENSt15iterator_traitsIT_E10value_typeESB_SB_St8functionIFNSD_10value_typeERKNSD_14rectangle_typeEEEmRNS_8ExecutorE
   fun:_ZN37ParallelReduce_AddThreeFunctions_Test8TestBodyEv
   fun:_ZN7testing8internal38HandleSehExceptionsInMethodIfSupportedINS_4TestEvEET0_PT_MS4_FS3_vEPKc
   fun:_ZN7testing8internal35HandleExceptionsInMethodIfSupportedINS_4TestEvEET0_PT_MS4_FS3_vEPKc
   fun:_ZN7testing4Test3RunEv
   fun:_ZN7testing8TestInfo3RunEv
   fun:_ZN7testing9TestSuite3RunEv
}
{
   <insert_a_suppression_name_here>
   Helgrind:Race
   fun:_ZNSt12_Vector_baseIN4mpcf5PointIddEESaIS2_EE17_Vector_impl_dataC1EOS5_
   fun:_ZNSt12_Vector_baseIN4mpcf5PointIddEESaIS2_EE12_Vector_implC1EOS5_
   fun:_ZNSt12_Vector_baseIN4mpcf5PointIddEESaIS2_EEC1EOS4_
   fun:_ZNSt6vectorIN4mpcf5PointIddEESaIS2_EEC1EOS4_
   fun:_ZN4mpcf3PcfIddEC1EOSt6vectorINS_5PointIddEESaIS4_EE
   fun:_ZN4mpcf15parallel_reduceIN9__gnu_cxx17__normal_iteratorIPNS_3PcfIddEESt6vectorIS4_SaIS4_EEEEEENSt15iterator_traitsIT_E10value_typeESB_SB_St8functionIFNSD_10value_typeERKNSD_14rectangle_typeEEEmRNS_8ExecutorE
   fun:_ZN37ParallelReduce_AddThreeFunctions_Test8TestBodyEv
   fun:_ZN7testing8internal38HandleSehExceptionsInMethodIfSupportedINS_4TestEvEET0_PT_MS4_FS3_vEPKc
   fun:_ZN7testing8internal35HandleExceptionsInMethodIfSupportedINS_4TestEvEET0_PT_MS4_FS3_vEPKc
   fun:_ZN7testing4Test3RunEv
   fun:_ZN7testing8TestInfo3RunEv
   fun:_ZN7testing9TestSuite3RunEv
}
{
   <insert_a_suppression_name_here>
   Helgrind:Race
   fun:_ZNSt15_Deque_iteratorISt10shared_ptrIN2tf8TopologyEERS3_PS3_EC1ERKS6_
   fun:_ZNSt5dequeISt10shared_ptrIN2tf8TopologyEESaIS3_EE5beginEv
   fun:_ZNSt5dequeISt10shared_ptrIN2tf8TopologyEESaIS3_EED1Ev
   fun:_ZNSt5queueISt10shared_ptrIN2tf8TopologyEESt5dequeIS3_SaIS3_EEED1Ev
   fun:_ZN2tf8TaskflowD1Ev
   fun:_ZN4mpcf15parallel_reduceIN9__gnu_cxx17__normal_iteratorIPNS_3PcfIddEESt6vectorIS4_SaIS4_EEEEEENSt15iterator_traitsIT_E10value_typeESB_SB_St8functionIFNSD_10value_typeERKNSD_14rectangle_typeEEEmRNS_8ExecutorE
   fun:_ZN37ParallelReduce_AddThreeFunctions_Test8TestBodyEv
   fun:_ZN7testing8internal38HandleSehExceptionsInMethodIfSupportedINS_4TestEvEET0_PT_MS4_FS3_vEPKc
   fun:_ZN7testing8internal35HandleExceptionsInMethodIfSupportedINS_4TestEvEET0_PT_MS4_FS3_vEPKc
   fun:_ZN7testing4Test3RunEv
   fun:_ZN7testing8TestInfo3RunEv
   fun:_ZN7testing9TestSuite3RunEv
}
{
   <insert_a_suppression_name_here>
   Helgrind:Race
   fun:_ZNSt10unique_ptrIN2tf4Node10SemaphoresESt14default_deleteIS2_EED1Ev
   fun:_ZN2tf4NodeD1Ev
   fun:recycle
   fun:_ZN2tf5Graph5clearEv
   fun:_ZN2tf5GraphD1Ev
   fun:_ZN2tf8TaskflowD1Ev
   fun:_ZN4mpcf15parallel_reduceIN9__gnu_cxx17__normal_iteratorIPNS_3PcfIddEESt6vectorIS4_SaIS4_EEEEEENSt15iterator_traitsIT_E10value_typeESB_SB_St8functionIFNSD_10value_typeERKNSD_14rectangle_typeEEEmRNS_8ExecutorE
   fun:_ZN37ParallelReduce_AddThreeFunctions_Test8TestBodyEv
   fun:_ZN7testing8internal38HandleSehExceptionsInMethodIfSupportedINS_4TestEvEET0_PT_MS4_FS3_vEPKc
   fun:_ZN7testing8internal35HandleExceptionsInMethodIfSupportedINS_4TestEvEET0_PT_MS4_FS3_vEPKc
   fun:_ZN7testing4Test3RunEv
   fun:_ZN7testing8TestInfo3RunEv
   fun:_ZN7testing9TestSuite3RunEv
}
{
   <insert_a_suppression_name_here>
   Helgrind:Race
   fun:_ZNSt8__detail9__variant16_Variant_storageILb0EJSt9monostateN2tf4Node6StaticENS4_7RuntimeENS4_20NonpreemptiveRuntimeENS4_7SubflowENS4_9ConditionENS4_14MultiConditionENS4_6ModuleENS4_5AsyncENS4_14DependentAsyncEEE8_M_resetEv
   fun:_ZNSt8__detail9__variant16_Variant_storageILb0EJSt9monostateN2tf4Node6StaticENS4_7RuntimeENS4_20NonpreemptiveRuntimeENS4_7SubflowENS4_9ConditionENS4_14MultiConditionENS4_6ModuleENS4_5AsyncENS4_14DependentAsyncEEED1Ev
   fun:_ZNSt8__detail9__variant15_Copy_ctor_baseILb0EJSt9monostateN2tf4Node6StaticENS4_7RuntimeENS4_20NonpreemptiveRuntimeENS4_7SubflowENS4_9ConditionENS4_14MultiConditionENS4_6ModuleENS4_5AsyncENS4_14DependentAsyncEEED1Ev
   fun:_ZNSt8__detail9__variant15_Move_ctor_baseILb0EJSt9monostateN2tf4Node6StaticENS4_7RuntimeENS4_20NonpreemptiveRuntimeENS4_7SubflowENS4_9ConditionENS4_14MultiConditionENS4_6ModuleENS4_5AsyncENS4_14DependentAsyncEEED1Ev
   fun:_ZNSt8__detail9__variant17_Copy_assign_baseILb0EJSt9monostateN2tf4Node6StaticENS4_7RuntimeENS4_20NonpreemptiveRuntimeENS4_7SubflowENS4_9ConditionENS4_14MultiConditionENS4_6ModuleENS4_5AsyncENS4_14DependentAsyncEEED1Ev
   fun:_ZNSt8__detail9__variant17_Move_assign_baseILb0EJSt9monostateN2tf4Node6StaticENS4_7RuntimeENS4_20NonpreemptiveRuntimeENS4_7SubflowENS4_9ConditionENS4_14MultiConditionENS4_6ModuleENS4_5AsyncENS4_14DependentAsyncEEED1Ev
   fun:_ZNSt8__detail9__variant13_Variant_baseIJSt9monostateN2tf4Node6StaticENS4_7RuntimeENS4_20NonpreemptiveRuntimeENS4_7SubflowENS4_9ConditionENS4_14MultiConditionENS4_6ModuleENS4_5AsyncENS4_14DependentAsyncEEED1Ev
   fun:_ZNSt7variantIJSt9monostateN2tf4Node6StaticENS2_7RuntimeENS2_20NonpreemptiveRuntimeENS2_7SubflowENS2_9ConditionENS2_14MultiConditionENS2_6ModuleENS2_5AsyncENS2_14DependentAsyncEEED1Ev
   fun:_ZN2tf4NodeD1Ev
   fun:recycle
   fun:_ZN2tf5Graph5clearEv
   fun:_ZN2tf5GraphD1Ev
   fun:_ZN2tf8TaskflowD1Ev
}
{
   <insert_a_suppression_name_here>
   Helgrind:Race
   fun:_ZNSt6vectorIN4mpcf5PointIddEESaIS2_EED1Ev
   fun:_ZN4mpcf11AccumulatorINS_3PcfIddEEED1Ev
   fun:_ZSt10destroy_atIN4mpcf11AccumulatorINS0_3PcfIddEEEEEvPT_
   fun:_ZSt8_DestroyIN4mpcf11AccumulatorINS0_3PcfIddEEEEEvPT_
   fun:_ZNSt12_Destroy_auxILb0EE9__destroyIPN4mpcf11AccumulatorINS2_3PcfIddEEEEEEvT_S8_
   fun:_ZSt8_DestroyIPN4mpcf11AccumulatorINS0_3PcfIddEEEEEvT_S6_
   fun:_Destroy<mpcf::Accumulator<mpcf::Pcf<double, double> >*, mpcf::Accumulator<mpcf::Pcf<double, double> > >
   fun:_ZNSt6vectorIN4mpcf11AccumulatorINS0_3PcfIddEEEESaIS4_EED1Ev
   fun:_ZN4mpcf15parallel_reduceIN9__gnu_cxx17__normal_iteratorIPNS_3PcfIddEESt6vectorIS4_SaIS4_EEEEEENSt15iterator_traitsIT_E10value_typeESB_SB_St8functionIFNSD_10value_typeERKNSD_14rectangle_typeEEEmRNS_8ExecutorE
   fun:_ZN37ParallelReduce_AddThreeFunctions_Test8TestBodyEv
   fun:_ZN7testing8internal38HandleSehExceptionsInMethodIfSupportedINS_4TestEvEET0_PT_MS4_FS3_vEPKc
   fun:_ZN7testing8internal35HandleExceptionsInMethodIfSupportedINS_4TestEvEET0_PT_MS4_FS3_vEPKc
   fun:_ZN7testing4Test3RunEv
}
{
   <insert_a_suppression_name_here>
   Helgrind:Race
   fun:_ZNSt6vectorIN4mpcf5PointIddEESaIS2_EED1Ev
   fun:_ZN4mpcf11AccumulatorINS_3PcfIddEEED1Ev
   fun:_ZSt10destroy_atIN4mpcf11AccumulatorINS0_3PcfIddEEEEEvPT_
   fun:_ZSt8_DestroyIN4mpcf11AccumulatorINS0_3PcfIddEEEEEvPT_
   fun:_ZNSt12_Destroy_auxILb0EE9__destroyIPN4mpcf11AccumulatorINS2_3PcfIddEEEEEEvT_S8_
   fun:_ZSt8_DestroyIPN4mpcf11AccumulatorINS0_3PcfIddEEEEEvT_S6_
   fun:_Destroy<mpcf::Accumulator<mpcf::Pcf<double, double> >*, mpcf::Accumulator<mpcf::Pcf<double, double> > >
   fun:_ZNSt6vectorIN4mpcf11AccumulatorINS0_3PcfIddEEEESaIS4_EED1Ev
   fun:_ZN4mpcf15parallel_reduceIN9__gnu_cxx17__normal_iteratorIPNS_3PcfIddEESt6vectorIS4_SaIS4_EEEEEENSt15iterator_traitsIT_E10value_typeESB_SB_St8functionIFNSD_10value_typeERKNSD_14rectangle_typeEEEmRNS_8ExecutorE
   fun:_ZN37ParallelReduce_AddThreeFunctions_Test8TestBodyEv
   fun:_ZN7testing8internal38HandleSehExceptionsInMethodIfSupportedINS_4TestEvEET0_PT_MS4_FS3_vEPKc
   fun:_ZN7testing8internal35HandleExceptionsInMethodIfSupportedINS_4TestEvEET0_PT_MS4_FS3_vEPKc
   fun:_ZN7testing4Test3RunEv
}
{
   <insert_a_suppression_name_here>
   Helgrind:Race
   fun:_ZNSt12_Vector_baseIN4mpcf5PointIddEESaIS2_EED1Ev
   fun:_ZNSt6vectorIN4mpcf5PointIddEESaIS2_EED1Ev
   fun:_ZN4mpcf11AccumulatorINS_3PcfIddEEED1Ev
   fun:_ZSt10destroy_atIN4mpcf11AccumulatorINS0_3PcfIddEEEEEvPT_
   fun:_ZSt8_DestroyIN4mpcf11AccumulatorINS0_3PcfIddEEEEEvPT_
   fun:_ZNSt12_Destroy_auxILb0EE9__destroyIPN4mpcf11AccumulatorINS2_3PcfIddEEEEEEvT_S8_
   fun:_ZSt8_DestroyIPN4mpcf11AccumulatorINS0_3PcfIddEEEEEvT_S6_
   fun:_Destroy<mpcf::Accumulator<mpcf::Pcf<double, double> >*, mpcf::Accumulator<mpcf::Pcf<double, double> > >
   fun:_ZNSt6vectorIN4mpcf11AccumulatorINS0_3PcfIddEEEESaIS4_EED1Ev
   fun:_ZN4mpcf15parallel_reduceIN9__gnu_cxx17__normal_iteratorIPNS_3PcfIddEESt6vectorIS4_SaIS4_EEEEEENSt15iterator_traitsIT_E10value_typeESB_SB_St8functionIFNSD_10value_typeERKNSD_14rectangle_typeEEEmRNS_8ExecutorE
   fun:_ZN37ParallelReduce_AddThreeFunctions_Test8TestBodyEv
   fun:_ZN7testing8internal38HandleSehExceptionsInMethodIfSupportedINS_4TestEvEET0_PT_MS4_FS3_vEPKc
   fun:_ZN7testing8internal35HandleExceptionsInMethodIfSupportedINS_4TestEvEET0_PT_MS4_FS3_vEPKc
}
{
   <insert_a_suppression_name_here>
   Helgrind:Race
   fun:_ZNSt14_Function_baseD1Ev
   obj:*
   fun:_ZN37ParallelReduce_AddThreeFunctions_Test8TestBodyEv
   fun:_ZN7testing8internal38HandleSehExceptionsInMethodIfSupportedINS_4TestEvEET0_PT_MS4_FS3_vEPKc
   fun:_ZN7testing8internal35HandleExceptionsInMethodIfSupportedINS_4TestEvEET0_PT_MS4_FS3_vEPKc
   fun:_ZN7testing4Test3RunEv
   fun:_ZN7testing8TestInfo3RunEv
   fun:_ZN7testing9TestSuite3RunEv
   fun:_ZN7testing8internal12UnitTestImpl11RunAllTestsEv
   fun:_ZN7testing8internal38HandleSehExceptionsInMethodIfSupportedINS0_12UnitTestImplEbEET0_PT_MS4_FS3_vEPKc
   fun:_ZN7testing8internal35HandleExceptionsInMethodIfSupportedINS0_12UnitTestImplEbEET0_PT_MS4_FS3_vEPKc
   fun:_ZN7testing8UnitTest3RunEv
}
{
   <insert_a_suppression_name_here>
   Helgrind:Race
   fun:_ZNSt14_Function_baseD1Ev
   fun:_ZNSt8functionIFdRKN4mpcf9RectangleIddEEEED1Ev
   fun:_ZN37ParallelReduce_AddThreeFunctions_Test8TestBodyEv
   fun:_ZN7testing8internal38HandleSehExceptionsInMethodIfSupportedINS_4TestEvEET0_PT_MS4_FS3_vEPKc
   fun:_ZN7testing8internal35HandleExceptionsInMethodIfSupportedINS_4TestEvEET0_PT_MS4_FS3_vEPKc
   fun:_ZN7testing4Test3RunEv
   fun:_ZN7testing8TestInfo3RunEv
   fun:_ZN7testing9TestSuite3RunEv
   fun:_ZN7testing8internal12UnitTestImpl11RunAllTestsEv
   fun:_ZN7testing8internal38HandleSehExceptionsInMethodIfSupportedINS0_12UnitTestImplEbEET0_PT_MS4_FS3_vEPKc
   fun:_ZN7testing8internal35HandleExceptionsInMethodIfSupportedINS0_12UnitTestImplEbEET0_PT_MS4_FS3_vEPKc
   fun:_ZN7testing8UnitTest3RunEv
}
{
   <insert_a_suppression_name_here>
   Helgrind:Race
   fun:_ZNSt17_Function_handlerIFdRKN4mpcf9RectangleIddEEEZN37ParallelReduce_AddThreeFunctions_Test8TestBodyEvEUlS4_E_E10_M_managerERSt9_Any_dataRKS9_St18_Manager_operation
   obj:*
   fun:_ZNSt8functionIFdRKN4mpcf9RectangleIddEEEED1Ev
   fun:_ZN37ParallelReduce_AddThreeFunctions_Test8TestBodyEv
   fun:_ZN7testing8internal38HandleSehExceptionsInMethodIfSupportedINS_4TestEvEET0_PT_MS4_FS3_vEPKc
   fun:_ZN7testing8internal35HandleExceptionsInMethodIfSupportedINS_4TestEvEET0_PT_MS4_FS3_vEPKc
   fun:_ZN7testing4Test3RunEv
   fun:_ZN7testing8TestInfo3RunEv
   fun:_ZN7testing9TestSuite3RunEv
   fun:_ZN7testing8internal12UnitTestImpl11RunAllTestsEv
   fun:_ZN7testing8internal38HandleSehExceptionsInMethodIfSupportedINS0_12UnitTestImplEbEET0_PT_MS4_FS3_vEPKc
   fun:_ZN7testing8internal35HandleExceptionsInMethodIfSupportedINS0_12UnitTestImplEbEET0_PT_MS4_FS3_vEPKc
}
{
   <insert_a_suppression_name_here>
   Helgrind:Race
   fun:_ZNSt17_Function_handlerIFdRKN4mpcf9RectangleIddEEEZN37ParallelReduce_AddThreeFunctions_Test8TestBodyEvEUlS4_E_E10_M_managerERSt9_Any_dataRKS9_St18_Manager_operation
   fun:_ZNSt14_Function_baseD1Ev
   fun:_ZNSt8functionIFdRKN4mpcf9RectangleIddEEEED1Ev
   fun:_ZN37ParallelReduce_AddThreeFunctions_Test8TestBodyEv
   fun:_ZN7testing8internal38HandleSehExceptionsInMethodIfSupportedINS_4TestEvEET0_PT_MS4_FS3_vEPKc
   fun:_ZN7testing8internal35HandleExceptionsInMethodIfSupportedINS_4TestEvEET0_PT_MS4_FS3_vEPKc
   fun:_ZN7testing4Test3RunEv
   fun:_ZN7testing8TestInfo3RunEv
   fun:_ZN7testing9TestSuite3RunEv
   fun:_ZN7testing8internal12UnitTestImpl11RunAllTestsEv
   fun:_ZN7testing8internal38HandleSehExceptionsInMethodIfSupportedINS0_12UnitTestImplEbEET0_PT_MS4_FS3_vEPKc
   fun:_ZN7testing8internal35HandleExceptionsInMethodIfSupportedINS0_12UnitTestImplEbEET0_PT_MS4_FS3_vEPKc
}
{
   <insert_a_suppression_name_here>
   Helgrind:Race
   fun:_ZNSt17_Function_handlerIFdRKN4mpcf9RectangleIddEEEZN37ParallelReduce_AddThreeFunctions_Test8TestBodyEvEUlS4_E_E10_M_managerERSt9_Any_dataRKS9_St18_Manager_operation
   fun:_ZNSt14_Function_baseD1Ev
   fun:_ZNSt8functionIFdRKN4mpcf9RectangleIddEEEED1Ev
   fun:_ZN37ParallelReduce_AddThreeFunctions_Test8TestBodyEv
   fun:_ZN7testing8internal38HandleSehExceptionsInMethodIfSupportedINS_4TestEvEET0_PT_MS4_FS3_vEPKc
   fun:_ZN7testing8internal35HandleExceptionsInMethodIfSupportedINS_4TestEvEET0_PT_MS4_FS3_vEPKc
   fun:_ZN7testing4Test3RunEv
   fun:_ZN7testing8TestInfo3RunEv
   fun:_ZN7testing9TestSuite3RunEv
   fun:_ZN7testing8internal12UnitTestImpl11RunAllTestsEv
   fun:_ZN7testing8internal38HandleSehExceptionsInMethodIfSupportedINS0_12UnitTestImplEbEET0_PT_MS4_FS3_vEPKc
   fun:_ZN7testing8internal35HandleExceptionsInMethodIfSupportedINS0_12UnitTestImplEbEET0_PT_MS4_FS3_vEPKc
}
{
   <insert_a_suppression_name_here>
   Helgrind:Race
   fun:_ZNSt8functionIFdRKN4mpcf9RectangleIddEEEEC1IZNS0_plIddEENS0_3PcfIT_T0_EERKSC_SE_EUlS4_E_vEEOSA_
   fun:_ZN4mpcfplIddEENS_3PcfIT_T0_EERKS4_S6_
   fun:_ZN37ParallelReduce_AddThreeFunctions_Test8TestBodyEv
   fun:_ZN7testing8internal38HandleSehExceptionsInMethodIfSupportedINS_4TestEvEET0_PT_MS4_FS3_vEPKc
   fun:_ZN7testing8internal35HandleExceptionsInMethodIfSupportedINS_4TestEvEET0_PT_MS4_FS3_vEPKc
   fun:_ZN7testing4Test3RunEv
   fun:_ZN7testing8TestInfo3RunEv
   fun:_ZN7testing9TestSuite3RunEv
   fun:_ZN7testing8internal12UnitTestImpl11RunAllTestsEv
   fun:_ZN7testing8internal38HandleSehExceptionsInMethodIfSupportedINS0_12UnitTestImplEbEET0_PT_MS4_FS3_vEPKc
   fun:_ZN7testing8internal35HandleExceptionsInMethodIfSupportedINS0_12UnitTestImplEbEET0_PT_MS4_FS3_vEPKc
   fun:_ZN7testing8UnitTest3RunEv
}
{
   <insert_a_suppression_name_here>
   Helgrind:Race
   fun:_ZN4mpcfplIddEENS_3PcfIT_T0_EERKS4_S6_
   fun:_ZN37ParallelReduce_AddThreeFunctions_Test8TestBodyEv
   fun:_ZN7testing8internal38HandleSehExceptionsInMethodIfSupportedINS_4TestEvEET0_PT_MS4_FS3_vEPKc
   fun:_ZN7testing8internal35HandleExceptionsInMethodIfSupportedINS_4TestEvEET0_PT_MS4_FS3_vEPKc
   fun:_ZN7testing4Test3RunEv
   fun:_ZN7testing8TestInfo3RunEv
   fun:_ZN7testing9TestSuite3RunEv
   fun:_ZN7testing8internal12UnitTestImpl11RunAllTestsEv
   fun:_ZN7testing8internal38HandleSehExceptionsInMethodIfSupportedINS0_12UnitTestImplEbEET0_PT_MS4_FS3_vEPKc
   fun:_ZN7testing8internal35HandleExceptionsInMethodIfSupportedINS0_12UnitTestImplEbEET0_PT_MS4_FS3_vEPKc
   fun:_ZN7testing8UnitTest3RunEv
   fun:_Z13RUN_ALL_TESTSv
}
{
   <insert_a_suppression_name_here>
   Helgrind:Race
   fun:_ZN4mpcfplIddEENS_3PcfIT_T0_EERKS4_S6_
   fun:_ZN37ParallelReduce_AddThreeFunctions_Test8TestBodyEv
   fun:_ZN7testing8internal38HandleSehExceptionsInMethodIfSupportedINS_4TestEvEET0_PT_MS4_FS3_vEPKc
   fun:_ZN7testing8internal35HandleExceptionsInMethodIfSupportedINS_4TestEvEET0_PT_MS4_FS3_vEPKc
   fun:_ZN7testing4Test3RunEv
   fun:_ZN7testing8TestInfo3RunEv
   fun:_ZN7testing9TestSuite3RunEv
   fun:_ZN7testing8internal12UnitTestImpl11RunAllTestsEv
   fun:_ZN7testing8internal38HandleSehExceptionsInMethodIfSupportedINS0_12UnitTestImplEbEET0_PT_MS4_FS3_vEPKc
   fun:_ZN7testing8internal35HandleExceptionsInMethodIfSupportedINS0_12UnitTestImplEbEET0_PT_MS4_FS3_vEPKc
   fun:_ZN7testing8UnitTest3RunEv
   fun:_Z13RUN_ALL_TESTSv
}
{
   <insert_a_suppression_name_here>
   Helgrind:Race
   fun:_ZNSt8functionIFdRKN4mpcf9RectangleIddEEEEC1IZNS0_plIddEENS0_3PcfIT_T0_EERKSC_SE_EUlS4_E_vEEOSA_
   fun:_ZN4mpcfplIddEENS_3PcfIT_T0_EERKS4_S6_
   fun:_ZN37ParallelReduce_AddThreeFunctions_Test8TestBodyEv
   fun:_ZN7testing8internal38HandleSehExceptionsInMethodIfSupportedINS_4TestEvEET0_PT_MS4_FS3_vEPKc
   fun:_ZN7testing8internal35HandleExceptionsInMethodIfSupportedINS_4TestEvEET0_PT_MS4_FS3_vEPKc
   fun:_ZN7testing4Test3RunEv
   fun:_ZN7testing8TestInfo3RunEv
   fun:_ZN7testing9TestSuite3RunEv
   fun:_ZN7testing8internal12UnitTestImpl11RunAllTestsEv
   fun:_ZN7testing8internal38HandleSehExceptionsInMethodIfSupportedINS0_12UnitTestImplEbEET0_PT_MS4_FS3_vEPKc
   fun:_ZN7testing8internal35HandleExceptionsInMethodIfSupportedINS0_12UnitTestImplEbEET0_PT_MS4_FS3_vEPKc
   fun:_ZN7testing8UnitTest3RunEv
}
{
   <insert_a_suppression_name_here>
   Helgrind:Race
   fun:_ZNSt8functionIFdRKN4mpcf9RectangleIddEEEEC1IZNS0_plIddEENS0_3PcfIT_T0_EERKSC_SE_EUlS4_E_vEEOSA_
   fun:_ZN4mpcfplIddEENS_3PcfIT_T0_EERKS4_S6_
   fun:_ZN37ParallelReduce_AddThreeFunctions_Test8TestBodyEv
   fun:_ZN7testing8internal38HandleSehExceptionsInMethodIfSupportedINS_4TestEvEET0_PT_MS4_FS3_vEPKc
   fun:_ZN7testing8internal35HandleExceptionsInMethodIfSupportedINS_4TestEvEET0_PT_MS4_FS3_vEPKc
   fun:_ZN7testing4Test3RunEv
   fun:_ZN7testing8TestInfo3RunEv
   fun:_ZN7testing9TestSuite3RunEv
   fun:_ZN7testing8internal12UnitTestImpl11RunAllTestsEv
   fun:_ZN7testing8internal38HandleSehExceptionsInMethodIfSupportedINS0_12UnitTestImplEbEET0_PT_MS4_FS3_vEPKc
   fun:_ZN7testing8internal35HandleExceptionsInMethodIfSupportedINS0_12UnitTestImplEbEET0_PT_MS4_FS3_vEPKc
   fun:_ZN7testing8UnitTest3RunEv
}
{
   <insert_a_suppression_name_here>
   Helgrind:Race
   fun:_ZN7testing8internal8EqHelper7CompareIN4mpcf3PcfIddEES5_LPv0EEENS_15AssertionResultEPKcS9_RKT_RKT0_
   fun:_ZN37ParallelReduce_AddThreeFunctions_Test8TestBodyEv
   fun:_ZN7testing8internal38HandleSehExceptionsInMethodIfSupportedINS_4TestEvEET0_PT_MS4_FS3_vEPKc
   fun:_ZN7testing8internal35HandleExceptionsInMethodIfSupportedINS_4TestEvEET0_PT_MS4_FS3_vEPKc
   fun:_ZN7testing4Test3RunEv
   fun:_ZN7testing8TestInfo3RunEv
   fun:_ZN7testing9TestSuite3RunEv
   fun:_ZN7testing8internal12UnitTestImpl11RunAllTestsEv
   fun:_ZN7testing8internal38HandleSehExceptionsInMethodIfSupportedINS0_12UnitTestImplEbEET0_PT_MS4_FS3_vEPKc
   fun:_ZN7testing8internal35HandleExceptionsInMethodIfSupportedINS0_12UnitTestImplEbEET0_PT_MS4_FS3_vEPKc
   fun:_ZN7testing8UnitTest3RunEv
   fun:_Z13RUN_ALL_TESTSv
}
{
   <insert_a_suppression_name_here>
   Helgrind:Race
   fun:_ZN7testing8internal8EqHelper7CompareIN4mpcf3PcfIddEES5_LPv0EEENS_15AssertionResultEPKcS9_RKT_RKT0_
   fun:_ZN37ParallelReduce_AddThreeFunctions_Test8TestBodyEv
   fun:_ZN7testing8internal38HandleSehExceptionsInMethodIfSupportedINS_4TestEvEET0_PT_MS4_FS3_vEPKc
   fun:_ZN7testing8internal35HandleExceptionsInMethodIfSupportedINS_4TestEvEET0_PT_MS4_FS3_vEPKc
   fun:_ZN7testing4Test3RunEv
   fun:_ZN7testing8TestInfo3RunEv
   fun:_ZN7testing9TestSuite3RunEv
   fun:_ZN7testing8internal12UnitTestImpl11RunAllTestsEv
   fun:_ZN7testing8internal38HandleSehExceptionsInMethodIfSupportedINS0_12UnitTestImplEbEET0_PT_MS4_FS3_vEPKc
   fun:_ZN7testing8internal35HandleExceptionsInMethodIfSupportedINS0_12UnitTestImplEbEET0_PT_MS4_FS3_vEPKc
   fun:_ZN7testing8UnitTest3RunEv
   fun:_Z13RUN_ALL_TESTSv
}
{
   <insert_a_suppression_name_here>
   Helgrind:Race
   fun:_ZN7testing8internal11CmpHelperEQIN4mpcf3PcfIddEES4_EENS_15AssertionResultEPKcS7_RKT_RKT0_
   obj:*
   fun:_ZN37ParallelReduce_AddThreeFunctions_Test8TestBodyEv
   fun:_ZN7testing8internal38HandleSehExceptionsInMethodIfSupportedINS_4TestEvEET0_PT_MS4_FS3_vEPKc
   fun:_ZN7testing8internal35HandleExceptionsInMethodIfSupportedINS_4TestEvEET0_PT_MS4_FS3_vEPKc
   fun:_ZN7testing4Test3RunEv
   fun:_ZN7testing8TestInfo3RunEv
   fun:_ZN7testing9TestSuite3RunEv
   fun:_ZN7testing8internal12UnitTestImpl11RunAllTestsEv
   fun:_ZN7testing8internal38HandleSehExceptionsInMethodIfSupportedINS0_12UnitTestImplEbEET0_PT_MS4_FS3_vEPKc
   fun:_ZN7testing8internal35HandleExceptionsInMethodIfSupportedINS0_12UnitTestImplEbEET0_PT_MS4_FS3_vEPKc
   fun:_ZN7testing8UnitTest3RunEv
}
{
   <insert_a_suppression_name_here>
   Helgrind:Race
   fun:_ZNK4mpcf5PointIddEeqERKS1_
   fun:_ZNSt7__equalILb0EE5equalIPKN4mpcf5PointIddEES6_EEbT_S7_T0_
   fun:_ZSt12__equal_aux1IPKN4mpcf5PointIddEES4_EbT_S5_T0_
   fun:_ZSt11__equal_auxIN9__gnu_cxx17__normal_iteratorIPKN4mpcf5PointIddEESt6vectorIS4_SaIS4_EEEESA_EbT_SB_T0_
   fun:_ZSt5equalIN9__gnu_cxx17__normal_iteratorIPKN4mpcf5PointIddEESt6vectorIS4_SaIS4_EEEESA_EbT_SB_T0_
   fun:_ZSteqIN4mpcf5PointIddEESaIS2_EEbRKSt6vectorIT_T0_ES9_
   fun:_ZNK4mpcf3PcfIddEeqERKS1_
   fun:_ZN7testing8internal11CmpHelperEQIN4mpcf3PcfIddEES4_EENS_15AssertionResultEPKcS7_RKT_RKT0_
   fun:_ZN7testing8internal8EqHelper7CompareIN4mpcf3PcfIddEES5_LPv0EEENS_15AssertionResultEPKcS9_RKT_RKT0_
   fun:_ZN37ParallelReduce_AddThreeFunctions_Test8TestBodyEv
   fun:_ZN7testing8internal38HandleSehExceptionsInMethodIfSupportedINS_4TestEvEET0_PT_MS4_FS3_vEPKc
   fun:_ZN7testing8internal35HandleExceptionsInMethodIfSupportedINS_4TestEvEET0_PT_MS4_FS3_vEPKc
}
{
   <insert_a_suppression_name_here>
   Helgrind:Race
   fun:_ZNK4mpcf5PointIddEeqERKS1_
   fun:_ZNSt7__equalILb0EE5equalIPKN4mpcf5PointIddEES6_EEbT_S7_T0_
   fun:_ZSt12__equal_aux1IPKN4mpcf5PointIddEES4_EbT_S5_T0_
   fun:_ZSt11__equal_auxIN9__gnu_cxx17__normal_iteratorIPKN4mpcf5PointIddEESt6vectorIS4_SaIS4_EEEESA_EbT_SB_T0_
   fun:_ZSt5equalIN9__gnu_cxx17__normal_iteratorIPKN4mpcf5PointIddEESt6vectorIS4_SaIS4_EEEESA_EbT_SB_T0_
   fun:_ZSteqIN4mpcf5PointIddEESaIS2_EEbRKSt6vectorIT_T0_ES9_
   fun:_ZNK4mpcf3PcfIddEeqERKS1_
   fun:_ZN7testing8internal11CmpHelperEQIN4mpcf3PcfIddEES4_EENS_15AssertionResultEPKcS7_RKT_RKT0_
   fun:_ZN7testing8internal8EqHelper7CompareIN4mpcf3PcfIddEES5_LPv0EEENS_15AssertionResultEPKcS9_RKT_RKT0_
   fun:_ZN37ParallelReduce_AddThreeFunctions_Test8TestBodyEv
   fun:_ZN7testing8internal38HandleSehExceptionsInMethodIfSupportedINS_4TestEvEET0_PT_MS4_FS3_vEPKc
   fun:_ZN7testing8internal35HandleExceptionsInMethodIfSupportedINS_4TestEvEET0_PT_MS4_FS3_vEPKc
}
{
   <insert_a_suppression_name_here>
   Helgrind:Race
   fun:_ZNSt14_Function_base13_Base_managerIZN4mpcf15parallel_reduceIN9__gnu_cxx17__normal_iteratorIPKNS1_3PcfIffEESt6vectorIS6_SaIS6_EEEEEENSt15iterator_traitsIT_E10value_typeESE_SE_St8functionIFNSG_10value_typeERKNSG_14rectangle_typeEEEmRNS1_8ExecutorEEUlvE_E14_M_get_pointerERKSt9_Any_data
   fun:_ZNSt17_Function_handlerIFvvEZN4mpcf15parallel_reduceIN9__gnu_cxx17__normal_iteratorIPKNS1_3PcfIffEESt6vectorIS6_SaIS6_EEEEEENSt15iterator_traitsIT_E10value_typeESE_SE_St8functionIFNSG_10value_typeERKNSG_14rectangle_typeEEEmRNS1_8ExecutorEEUlvE_E9_M_invokeERKSt9_Any_data
   fun:_ZNKSt8functionIFvvEEclEv
   fun:_ZN2tf8Executor19_invoke_static_taskERNS_6WorkerEPNS_4NodeE
   fun:_ZN2tf8Executor7_invokeERNS_6WorkerEPNS_4NodeE
   fun:_ZN2tf8Executor13_exploit_taskERNS_6WorkerERPNS_4NodeE
   fun:_ZZN2tf8Executor6_spawnEmSt10shared_ptrINS_15WorkerInterfaceEEENKUlvE_clEv
   fun:_ZSt13__invoke_implIvZN2tf8Executor6_spawnEmSt10shared_ptrINS0_15WorkerInterfaceEEEUlvE_JEET_St14__invoke_otherOT0_DpOT1_
   fun:_ZSt8__invokeIZN2tf8Executor6_spawnEmSt10shared_ptrINS0_15WorkerInterfaceEEEUlvE_JEENSt15__invoke_resultIT_JDpT0_EE4typeEOS7_DpOS8_
   fun:_ZNSt6thread8_InvokerISt5tupleIJZN2tf8Executor6_spawnEmSt10shared_ptrINS2_15WorkerInterfaceEEEUlvE_EEE9_M_invokeIJLm0EEEEvSt12_Index_tupleIJXspT_EEE
   fun:_ZNSt6thread8_InvokerISt5tupleIJZN2tf8Executor6_spawnEmSt10shared_ptrINS2_15WorkerInterfaceEEEUlvE_EEEclEv
   fun:_ZNSt6thread11_State_implINS_8_InvokerISt5tupleIJZN2tf8Executor6_spawnEmSt10shared_ptrINS3_15WorkerInterfaceEEEUlvE_EEEEE6_M_runEv
}
{
   <insert_a_suppression_name_here>
   Helgrind:Race
   fun:_ZZN4mpcf15parallel_reduceIN9__gnu_cxx17__normal_iteratorIPKNS_3PcfIffEESt6vectorIS4_SaIS4_EEEEEENSt15iterator_traitsIT_E10value_typeESC_SC_St8functionIFNSE_10value_typeERKNSE_14rectangle_typeEEEmRNS_8ExecutorEENKUlvE_clEv
   fun:_ZSt13__invoke_implIvRZN4mpcf15parallel_reduceIN9__gnu_cxx17__normal_iteratorIPKNS0_3PcfIffEESt6vectorIS5_SaIS5_EEEEEENSt15iterator_traitsIT_E10value_typeESD_SD_St8functionIFNSF_10value_typeERKNSF_14rectangle_typeEEEmRNS0_8ExecutorEEUlvE_JEESD_St14__invoke_otherOT0_DpOT1_
   fun:_ZSt10__invoke_rIvRZN4mpcf15parallel_reduceIN9__gnu_cxx17__normal_iteratorIPKNS0_3PcfIffEESt6vectorIS5_SaIS5_EEEEEENSt15iterator_traitsIT_E10value_typeESD_SD_St8functionIFNSF_10value_typeERKNSF_14rectangle_typeEEEmRNS0_8ExecutorEEUlvE_JEENSt9enable_ifIX16is_invocable_r_vISD_T0_DpT1_EESD_E4typeEOSS_DpOST_
   fun:_ZNSt17_Function_handlerIFvvEZN4mpcf15parallel_reduceIN9__gnu_cxx17__normal_iteratorIPKNS1_3PcfIffEESt6vectorIS6_SaIS6_EEEEEENSt15iterator_traitsIT_E10value_typeESE_SE_St8functionIFNSG_10value_typeERKNSG_14rectangle_typeEEEmRNS1_8ExecutorEEUlvE_E9_M_invokeERKSt9_Any_data
   fun:_ZNKSt8functionIFvvEEclEv
   fun:_ZN2tf8Executor19_invoke_static_taskERNS_6WorkerEPNS_4NodeE
   fun:_ZN2tf8Executor7_invokeERNS_6WorkerEPNS_4NodeE
   fun:_ZN2tf8Executor13_exploit_taskERNS_6WorkerERPNS_4NodeE
   fun:_ZZN2tf8Executor6_spawnEmSt10shared_ptrINS_15WorkerInterfaceEEENKUlvE_clEv
   fun:_ZSt13__invoke_implIvZN2tf8Executor6_spawnEmSt10shared_ptrINS0_15WorkerInterfaceEEEUlvE_JEET_St14__invoke_otherOT0_DpOT1_
   fun:_ZSt8__invokeIZN2tf8Executor6_spawnEmSt10shared_ptrINS0_15WorkerInterfaceEEEUlvE_JEENSt15__invoke_resultIT_JDpT0_EE4typeEOS7_DpOS8_
   fun:_ZNSt6thread8_InvokerISt5tupleIJZN2tf8Executor6_spawnEmSt10shared_ptrINS2_15WorkerInterfaceEEEUlvE_EEE9_M_invokeIJLm0EEEEvSt12_Index_tupleIJXspT_EEE
}
{
   <insert_a_suppression_name_here>
   Helgrind:Race
   fun:_ZZN4mpcf15parallel_reduceIN9__gnu_cxx17__normal_iteratorIPKNS_3PcfIffEESt6vectorIS4_SaIS4_EEEEEENSt15iterator_traitsIT_E10value_typeESC_SC_St8functionIFNSE_10value_typeERKNSE_14rectangle_typeEEEmRNS_8ExecutorEENKUlvE_clEv
   fun:_ZSt13__invoke_implIvRZN4mpcf15parallel_reduceIN9__gnu_cxx17__normal_iteratorIPKNS0_3PcfIffEESt6vectorIS5_SaIS5_EEEEEENSt15iterator_traitsIT_E10value_typeESD_SD_St8functionIFNSF_10value_typeERKNSF_14rectangle_typeEEEmRNS0_8ExecutorEEUlvE_JEESD_St14__invoke_otherOT0_DpOT1_
   fun:_ZSt10__invoke_rIvRZN4mpcf15parallel_reduceIN9__gnu_cxx17__normal_iteratorIPKNS0_3PcfIffEESt6vectorIS5_SaIS5_EEEEEENSt15iterator_traitsIT_E10value_typeESD_SD_St8functionIFNSF_10value_typeERKNSF_14rectangle_typeEEEmRNS0_8ExecutorEEUlvE_JEENSt9enable_ifIX16is_invocable_r_vISD_T0_DpT1_EESD_E4typeEOSS_DpOST_
   fun:_ZNSt17_Function_handlerIFvvEZN4mpcf15parallel_reduceIN9__gnu_cxx17__normal_iteratorIPKNS1_3PcfIffEESt6vectorIS6_SaIS6_EEEEEENSt15iterator_traitsIT_E10value_typeESE_SE_St8functionIFNSG_10value_typeERKNSG_14rectangle_typeEEEmRNS1_8ExecutorEEUlvE_E9_M_invokeERKSt9_Any_data
   fun:_ZNKSt8functionIFvvEEclEv
   fun:_ZN2tf8Executor19_invoke_static_taskERNS_6WorkerEPNS_4NodeE
   fun:_ZN2tf8Executor7_invokeERNS_6WorkerEPNS_4NodeE
   fun:_ZN2tf8Executor13_exploit_taskERNS_6WorkerERPNS_4NodeE
   fun:_ZZN2tf8Executor6_spawnEmSt10shared_ptrINS_15WorkerInterfaceEEENKUlvE_clEv
   fun:_ZSt13__invoke_implIvZN2tf8Executor6_spawnEmSt10shared_ptrINS0_15WorkerInterfaceEEEUlvE_JEET_St14__invoke_otherOT0_DpOT1_
   fun:_ZSt8__invokeIZN2tf8Executor6_spawnEmSt10shared_ptrINS0_15WorkerInterfaceEEEUlvE_JEENSt15__invoke_resultIT_JDpT0_EE4typeEOS7_DpOS8_
   fun:_ZNSt6thread8_InvokerISt5tupleIJZN2tf8Executor6_spawnEmSt10shared_ptrINS2_15WorkerInterfaceEEEUlvE_EEE9_M_invokeIJLm0EEEEvSt12_Index_tupleIJXspT_EEE
}
{
   <insert_a_suppression_name_here>
   Helgrind:Race
   fun:_ZNK9__gnu_cxx17__normal_iteratorIPKN4mpcf3PcfIffEESt6vectorIS3_SaIS3_EEEplEl
   fun:_ZZN4mpcf15parallel_reduceIN9__gnu_cxx17__normal_iteratorIPKNS_3PcfIffEESt6vectorIS4_SaIS4_EEEEEENSt15iterator_traitsIT_E10value_typeESC_SC_St8functionIFNSE_10value_typeERKNSE_14rectangle_typeEEEmRNS_8ExecutorEENKUlvE_clEv
   fun:_ZSt13__invoke_implIvRZN4mpcf15parallel_reduceIN9__gnu_cxx17__normal_iteratorIPKNS0_3PcfIffEESt6vectorIS5_SaIS5_EEEEEENSt15iterator_traitsIT_E10value_typeESD_SD_St8functionIFNSF_10value_typeERKNSF_14rectangle_typeEEEmRNS0_8ExecutorEEUlvE_JEESD_St14__invoke_otherOT0_DpOT1_
   fun:_ZSt10__invoke_rIvRZN4mpcf15parallel_reduceIN9__gnu_cxx17__normal_iteratorIPKNS0_3PcfIffEESt6vectorIS5_SaIS5_EEEEEENSt15iterator_traitsIT_E10value_typeESD_SD_St8functionIFNSF_10value_typeERKNSF_14rectangle_typeEEEmRNS0_8ExecutorEEUlvE_JEENSt9enable_ifIX16is_invocable_r_vISD_T0_DpT1_EESD_E4typeEOSS_DpOST_
   fun:_ZNSt17_Function_handlerIFvvEZN4mpcf15parallel_reduceIN9__gnu_cxx17__normal_iteratorIPKNS1_3PcfIffEESt6vectorIS6_SaIS6_EEEEEENSt15iterator_traitsIT_E10value_typeESE_SE_St8functionIFNSG_10value_typeERKNSG_14rectangle_typeEEEmRNS1_8ExecutorEEUlvE_E9_M_invokeERKSt9_Any_data
   fun:_ZNKSt8functionIFvvEEclEv
   fun:_ZN2tf8Executor19_invoke_static_taskERNS_6WorkerEPNS_4NodeE
   fun:_ZN2tf8Executor7_invokeERNS_6WorkerEPNS_4NodeE
   fun:_ZN2tf8Executor13_exploit_taskERNS_6WorkerERPNS_4NodeE
   fun:_ZZN2tf8Executor6_spawnEmSt10shared_ptrINS_15WorkerInterfaceEEENKUlvE_clEv
   fun:_ZSt13__invoke_implIvZN2tf8Executor6_spawnEmSt10shared_ptrINS0_15WorkerInterfaceEEEUlvE_JEET_St14__invoke_otherOT0_DpOT1_
   fun:_ZSt8__invokeIZN2tf8Executor6_spawnEmSt10shared_ptrINS0_15WorkerInterfaceEEEUlvE_JEENSt15__invoke_resultIT_JDpT0_EE4typeEOS7_DpOS8_
}
{
   <insert_a_suppression_name_here>
   Helgrind:Race
   fun:_ZZN4mpcf15parallel_reduceIN9__gnu_cxx17__normal_iteratorIPKNS_3PcfIffEESt6vectorIS4_SaIS4_EEEEEENSt15iterator_traitsIT_E10value_typeESC_SC_St8functionIFNSE_10value_typeERKNSE_14rectangle_typeEEEmRNS_8ExecutorEENKUlvE_clEv
   fun:_ZSt13__invoke_implIvRZN4mpcf15parallel_reduceIN9__gnu_cxx17__normal_iteratorIPKNS0_3PcfIffEESt6vectorIS5_SaIS5_EEEEEENSt15iterator_traitsIT_E10value_typeESD_SD_St8functionIFNSF_10value_typeERKNSF_14rectangle_typeEEEmRNS0_8ExecutorEEUlvE_JEESD_St14__invoke_otherOT0_DpOT1_
   fun:_ZSt10__invoke_rIvRZN4mpcf15parallel_reduceIN9__gnu_cxx17__normal_iteratorIPKNS0_3PcfIffEESt6vectorIS5_SaIS5_EEEEEENSt15iterator_traitsIT_E10value_typeESD_SD_St8functionIFNSF_10value_typeERKNSF_14rectangle_typeEEEmRNS0_8ExecutorEEUlvE_JEENSt9enable_ifIX16is_invocable_r_vISD_T0_DpT1_EESD_E4typeEOSS_DpOST_
   fun:_ZNSt17_Function_handlerIFvvEZN4mpcf15parallel_reduceIN9__gnu_cxx17__normal_iteratorIPKNS1_3PcfIffEESt6vectorIS6_SaIS6_EEEEEENSt15iterator_traitsIT_E10value_typeESE_SE_St8functionIFNSG_10value_typeERKNSG_14rectangle_typeEEEmRNS1_8ExecutorEEUlvE_E9_M_invokeERKSt9_Any_data
   fun:_ZNKSt8functionIFvvEEclEv
   fun:_ZN2tf8Executor19_invoke_static_taskERNS_6WorkerEPNS_4NodeE
   fun:_ZN2tf8Executor7_invokeERNS_6WorkerEPNS_4NodeE
   fun:_ZN2tf8Executor13_exploit_taskERNS_6WorkerERPNS_4NodeE
   fun:_ZZN2tf8Executor6_spawnEmSt10shared_ptrINS_15WorkerInterfaceEEENKUlvE_clEv
   fun:_ZSt13__invoke_implIvZN2tf8Executor6_spawnEmSt10shared_ptrINS0_15WorkerInterfaceEEEUlvE_JEET_St14__invoke_otherOT0_DpOT1_
   fun:_ZSt8__invokeIZN2tf8Executor6_spawnEmSt10shared_ptrINS0_15WorkerInterfaceEEEUlvE_JEENSt15__invoke_resultIT_JDpT0_EE4typeEOS7_DpOS8_
   fun:_ZNSt6thread8_InvokerISt5tupleIJZN2tf8Executor6_spawnEmSt10shared_ptrINS2_15WorkerInterfaceEEEUlvE_EEE9_M_invokeIJLm0EEEEvSt12_Index_tupleIJXspT_EEE
}
{
   <insert_a_suppression_name_here>
   Helgrind:Race
   fun:_ZZN4mpcf15parallel_reduceIN9__gnu_cxx17__normal_iteratorIPKNS_3PcfIffEESt6vectorIS4_SaIS4_EEEEEENSt15iterator_traitsIT_E10value_typeESC_SC_St8functionIFNSE_10value_typeERKNSE_14rectangle_typeEEEmRNS_8ExecutorEENKUlvE_clEv
   fun:_ZSt13__invoke_implIvRZN4mpcf15parallel_reduceIN9__gnu_cxx17__normal_iteratorIPKNS0_3PcfIffEESt6vectorIS5_SaIS5_EEEEEENSt15iterator_traitsIT_E10value_typeESD_SD_St8functionIFNSF_10value_typeERKNSF_14rectangle_typeEEEmRNS0_8ExecutorEEUlvE_JEESD_St14__invoke_otherOT0_DpOT1_
   fun:_ZSt10__invoke_rIvRZN4mpcf15parallel_reduceIN9__gnu_cxx17__normal_iteratorIPKNS0_3PcfIffEESt6vectorIS5_SaIS5_EEEEEENSt15iterator_traitsIT_E10value_typeESD_SD_St8functionIFNSF_10value_typeERKNSF_14rectangle_typeEEEmRNS0_8ExecutorEEUlvE_JEENSt9enable_ifIX16is_invocable_r_vISD_T0_DpT1_EESD_E4typeEOSS_DpOST_
   fun:_ZNSt17_Function_handlerIFvvEZN4mpcf15parallel_reduceIN9__gnu_cxx17__normal_iteratorIPKNS1_3PcfIffEESt6vectorIS6_SaIS6_EEEEEENSt15iterator_traitsIT_E10value_typeESE_SE_St8functionIFNSG_10value_typeERKNSG_14rectangle_typeEEEmRNS1_8ExecutorEEUlvE_E9_M_invokeERKSt9_Any_data
   fun:_ZNKSt8functionIFvvEEclEv
   fun:_ZN2tf8Executor19_invoke_static_taskERNS_6WorkerEPNS_4NodeE
   fun:_ZN2tf8Executor7_invokeERNS_6WorkerEPNS_4NodeE
   fun:_ZN2tf8Executor13_exploit_taskERNS_6WorkerERPNS_4NodeE
   fun:_ZZN2tf8Executor6_spawnEmSt10shared_ptrINS_15WorkerInterfaceEEENKUlvE_clEv
   fun:_ZSt13__invoke_implIvZN2tf8Executor6_spawnEmSt10shared_ptrINS0_15WorkerInterfaceEEEUlvE_JEET_St14__invoke_otherOT0_DpOT1_
   fun:_ZSt8__invokeIZN2tf8Executor6_spawnEmSt10shared_ptrINS0_15WorkerInterfaceEEEUlvE_JEENSt15__invoke_resultIT_JDpT0_EE4typeEOS7_DpOS8_
   fun:_ZNSt6thread8_InvokerISt5tupleIJZN2tf8Executor6_spawnEmSt10shared_ptrINS2_15WorkerInterfaceEEEUlvE_EEE9_M_invokeIJLm0EEEEvSt12_Index_tupleIJXspT_EEE
}
{
   <insert_a_suppression_name_here>
   Helgrind:Race
   fun:_ZNSt6vectorIN4mpcf11AccumulatorINS0_3PcfIffEEEESaIS4_EEixEm
   fun:_ZZN4mpcf15parallel_reduceIN9__gnu_cxx17__normal_iteratorIPKNS_3PcfIffEESt6vectorIS4_SaIS4_EEEEEENSt15iterator_traitsIT_E10value_typeESC_SC_St8functionIFNSE_10value_typeERKNSE_14rectangle_typeEEEmRNS_8ExecutorEENKUlvE_clEv
   fun:_ZSt13__invoke_implIvRZN4mpcf15parallel_reduceIN9__gnu_cxx17__normal_iteratorIPKNS0_3PcfIffEESt6vectorIS5_SaIS5_EEEEEENSt15iterator_traitsIT_E10value_typeESD_SD_St8functionIFNSF_10value_typeERKNSF_14rectangle_typeEEEmRNS0_8ExecutorEEUlvE_JEESD_St14__invoke_otherOT0_DpOT1_
   fun:_ZSt10__invoke_rIvRZN4mpcf15parallel_reduceIN9__gnu_cxx17__normal_iteratorIPKNS0_3PcfIffEESt6vectorIS5_SaIS5_EEEEEENSt15iterator_traitsIT_E10value_typeESD_SD_St8functionIFNSF_10value_typeERKNSF_14rectangle_typeEEEmRNS0_8ExecutorEEUlvE_JEENSt9enable_ifIX16is_invocable_r_vISD_T0_DpT1_EESD_E4typeEOSS_DpOST_
   fun:_ZNSt17_Function_handlerIFvvEZN4mpcf15parallel_reduceIN9__gnu_cxx17__normal_iteratorIPKNS1_3PcfIffEESt6vectorIS6_SaIS6_EEEEEENSt15iterator_traitsIT_E10value_typeESE_SE_St8functionIFNSG_10value_typeERKNSG_14rectangle_typeEEEmRNS1_8ExecutorEEUlvE_E9_M_invokeERKSt9_Any_data
   fun:_ZNKSt8functionIFvvEEclEv
   fun:_ZN2tf8Executor19_invoke_static_taskERNS_6WorkerEPNS_4NodeE
   fun:_ZN2tf8Executor7_invokeERNS_6WorkerEPNS_4NodeE
   fun:_ZN2tf8Executor13_exploit_taskERNS_6WorkerERPNS_4NodeE
   fun:_ZZN2tf8Executor6_spawnEmSt10shared_ptrINS_15WorkerInterfaceEEENKUlvE_clEv
   fun:_ZSt13__invoke_implIvZN2tf8Executor6_spawnEmSt10shared_ptrINS0_15WorkerInterfaceEEEUlvE_JEET_St14__invoke_otherOT0_DpOT1_
   fun:_ZSt8__invokeIZN2tf8Executor6_spawnEmSt10shared_ptrINS0_15WorkerInterfaceEEEUlvE_JEENSt15__invoke_resultIT_JDpT0_EE4typeEOS7_DpOS8_
}
{
   <insert_a_suppression_name_here>
   Helgrind:Race
   fun:_ZN9__gnu_cxx17__normal_iteratorIPKN4mpcf5PointIffEESt6vectorIS3_SaIS3_EEEC1ERKS5_
   fun:_ZNKSt6vectorIN4mpcf5PointIffEESaIS2_EE3endEv
   fun:_ZNKSt6vectorIN4mpcf5PointIffEESaIS2_EE5emptyEv
   fun:_ZN4mpcf11AccumulatorINS_3PcfIffEEEpLERKS2_
   fun:_ZZN4mpcf15parallel_reduceIN9__gnu_cxx17__normal_iteratorIPKNS_3PcfIffEESt6vectorIS4_SaIS4_EEEEEENSt15iterator_traitsIT_E10value_typeESC_SC_St8functionIFNSE_10value_typeERKNSE_14rectangle_typeEEEmRNS_8ExecutorEENKUlvE_clEv
   fun:_ZSt13__invoke_implIvRZN4mpcf15parallel_reduceIN9__gnu_cxx17__normal_iteratorIPKNS0_3PcfIffEESt6vectorIS5_SaIS5_EEEEEENSt15iterator_traitsIT_E10value_typeESD_SD_St8functionIFNSF_10value_typeERKNSF_14rectangle_typeEEEmRNS0_8ExecutorEEUlvE_JEESD_St14__invoke_otherOT0_DpOT1_
   fun:_ZSt10__invoke_rIvRZN4mpcf15parallel_reduceIN9__gnu_cxx17__normal_iteratorIPKNS0_3PcfIffEESt6vectorIS5_SaIS5_EEEEEENSt15iterator_traitsIT_E10value_typeESD_SD_St8functionIFNSF_10value_typeERKNSF_14rectangle_typeEEEmRNS0_8ExecutorEEUlvE_JEENSt9enable_ifIX16is_invocable_r_vISD_T0_DpT1_EESD_E4typeEOSS_DpOST_
   fun:_ZNSt17_Function_handlerIFvvEZN4mpcf15parallel_reduceIN9__gnu_cxx17__normal_iteratorIPKNS1_3PcfIffEESt6vectorIS6_SaIS6_EEEEEENSt15iterator_traitsIT_E10value_typeESE_SE_St8functionIFNSG_10value_typeERKNSG_14rectangle_typeEEEmRNS1_8ExecutorEEUlvE_E9_M_invokeERKSt9_Any_data
   fun:_ZNKSt8functionIFvvEEclEv
   fun:_ZN2tf8Executor19_invoke_static_taskERNS_6WorkerEPNS_4NodeE
   fun:_ZN2tf8Executor7_invokeERNS_6WorkerEPNS_4NodeE
   fun:_ZN2tf8Executor13_exploit_taskERNS_6WorkerERPNS_4NodeE
}
{
   <insert_a_suppression_name_here>
   Helgrind:Race
   fun:_ZN9__gnu_cxx17__normal_iteratorIPKN4mpcf5PointIffEESt6vectorIS3_SaIS3_EEEC1ERKS5_
   fun:_ZNKSt6vectorIN4mpcf5PointIffEESaIS2_EE5beginEv
   fun:_ZNKSt6vectorIN4mpcf5PointIffEESaIS2_EE5emptyEv
   fun:_ZN4mpcf11AccumulatorINS_3PcfIffEEEpLERKS2_
   fun:_ZZN4mpcf15parallel_reduceIN9__gnu_cxx17__normal_iteratorIPKNS_3PcfIffEESt6vectorIS4_SaIS4_EEEEEENSt15iterator_traitsIT_E10value_typeESC_SC_St8functionIFNSE_10value_typeERKNSE_14rectangle_typeEEEmRNS_8ExecutorEENKUlvE_clEv
   fun:_ZSt13__invoke_implIvRZN4mpcf15parallel_reduceIN9__gnu_cxx17__normal_iteratorIPKNS0_3PcfIffEESt6vectorIS5_SaIS5_EEEEEENSt15iterator_traitsIT_E10value_typeESD_SD_St8functionIFNSF_10value_typeERKNSF_14rectangle_typeEEEmRNS0_8ExecutorEEUlvE_JEESD_St14__invoke_otherOT0_DpOT1_
   fun:_ZSt10__invoke_rIvRZN4mpcf15parallel_reduceIN9__gnu_cxx17__normal_iteratorIPKNS0_3PcfIffEESt6vectorIS5_SaIS5_EEEEEENSt15iterator_traitsIT_E10value_typeESD_SD_St8functionIFNSF_10value_typeERKNSF_14rectangle_typeEEEmRNS0_8ExecutorEEUlvE_JEENSt9enable_ifIX16is_invocable_r_vISD_T0_DpT1_EESD_E4typeEOSS_DpOST_
   fun:_ZNSt17_Function_handlerIFvvEZN4mpcf15parallel_reduceIN9__gnu_cxx17__normal_iteratorIPKNS1_3PcfIffEESt6vectorIS6_SaIS6_EEEEEENSt15iterator_traitsIT_E10value_typeESE_SE_St8functionIFNSG_10value_typeERKNSG_14rectangle_typeEEEmRNS1_8ExecutorEEUlvE_E9_M_invokeERKSt9_Any_data
   fun:_ZNKSt8functionIFvvEEclEv
   fun:_ZN2tf8Executor19_invoke_static_taskERNS_6WorkerEPNS_4NodeE
   fun:_ZN2tf8Executor7_invokeERNS_6WorkerEPNS_4NodeE
   fun:_ZN2tf8Executor13_exploit_taskERNS_6WorkerERPNS_4NodeE
}
{
   <insert_a_suppression_name_here>
   Helgrind:Race
   fun:_ZNKSt6vectorIN4mpcf5PointIffEESaIS2_EE4sizeEv
   fun:_ZNSt6vectorIN4mpcf5PointIffEESaIS2_EEaSERKS4_
   fun:_ZN4mpcf11AccumulatorINS_3PcfIffEEEpLERKS2_
   fun:_ZZN4mpcf15parallel_reduceIN9__gnu_cxx17__normal_iteratorIPKNS_3PcfIffEESt6vectorIS4_SaIS4_EEEEEENSt15iterator_traitsIT_E10value_typeESC_SC_St8functionIFNSE_10value_typeERKNSE_14rectangle_typeEEEmRNS_8ExecutorEENKUlvE_clEv
   fun:_ZSt13__invoke_implIvRZN4mpcf15parallel_reduceIN9__gnu_cxx17__normal_iteratorIPKNS0_3PcfIffEESt6vectorIS5_SaIS5_EEEEEENSt15iterator_traitsIT_E10value_typeESD_SD_St8functionIFNSF_10value_typeERKNSF_14rectangle_typeEEEmRNS0_8ExecutorEEUlvE_JEESD_St14__invoke_otherOT0_DpOT1_
   fun:_ZSt10__invoke_rIvRZN4mpcf15parallel_reduceIN9__gnu_cxx17__normal_iteratorIPKNS0_3PcfIffEESt6vectorIS5_SaIS5_EEEEEENSt15iterator_traitsIT_E10value_typeESD_SD_St8functionIFNSF_10value_typeERKNSF_14rectangle_typeEEEmRNS0_8ExecutorEEUlvE_JEENSt9enable_ifIX16is_invocable_r_vISD_T0_DpT1_EESD_E4typeEOSS_DpOST_
   fun:_ZNSt17_Function_handlerIFvvEZN4mpcf15parallel_reduceIN9__gnu_cxx17__normal_iteratorIPKNS1_3PcfIffEESt6vectorIS6_SaIS6_EEEEEENSt15iterator_traitsIT_E10value_typeESE_SE_St8functionIFNSG_10value_typeERKNSG_14rectangle_typeEEEmRNS1_8ExecutorEEUlvE_E9_M_invokeERKSt9_Any_data
   fun:_ZNKSt8functionIFvvEEclEv
   fun:_ZN2tf8Executor19_invoke_static_taskERNS_6WorkerEPNS_4NodeE
   fun:_ZN2tf8Executor7_invokeERNS_6WorkerEPNS_4NodeE
   fun:_ZN2tf8Executor13_exploit_taskERNS_6WorkerERPNS_4NodeE
   fun:_ZZN2tf8Executor6_spawnEmSt10shared_ptrINS_15WorkerInterfaceEEENKUlvE_clEv
}
{
   <insert_a_suppression_name_here>
   Helgrind:Race
   fun:_ZNKSt6vectorIN4mpcf5PointIffEESaIS2_EE4sizeEv
   fun:_ZNSt6vectorIN4mpcf5PointIffEESaIS2_EEaSERKS4_
   fun:_ZN4mpcf11AccumulatorINS_3PcfIffEEEpLERKS2_
   fun:_ZZN4mpcf15parallel_reduceIN9__gnu_cxx17__normal_iteratorIPKNS_3PcfIffEESt6vectorIS4_SaIS4_EEEEEENSt15iterator_traitsIT_E10value_typeESC_SC_St8functionIFNSE_10value_typeERKNSE_14rectangle_typeEEEmRNS_8ExecutorEENKUlvE_clEv
   fun:_ZSt13__invoke_implIvRZN4mpcf15parallel_reduceIN9__gnu_cxx17__normal_iteratorIPKNS0_3PcfIffEESt6vectorIS5_SaIS5_EEEEEENSt15iterator_traitsIT_E10value_typeESD_SD_St8functionIFNSF_10value_typeERKNSF_14rectangle_typeEEEmRNS0_8ExecutorEEUlvE_JEESD_St14__invoke_otherOT0_DpOT1_
   fun:_ZSt10__invoke_rIvRZN4mpcf15parallel_reduceIN9__gnu_cxx17__normal_iteratorIPKNS0_3PcfIffEESt6vectorIS5_SaIS5_EEEEEENSt15iterator_traitsIT_E10value_typeESD_SD_St8functionIFNSF_10value_typeERKNSF_14rectangle_typeEEEmRNS0_8ExecutorEEUlvE_JEENSt9enable_ifIX16is_invocable_r_vISD_T0_DpT1_EESD_E4typeEOSS_DpOST_
   fun:_ZNSt17_Function_handlerIFvvEZN4mpcf15parallel_reduceIN9__gnu_cxx17__normal_iteratorIPKNS1_3PcfIffEESt6vectorIS6_SaIS6_EEEEEENSt15iterator_traitsIT_E10value_typeESE_SE_St8functionIFNSG_10value_typeERKNSG_14rectangle_typeEEEmRNS1_8ExecutorEEUlvE_E9_M_invokeERKSt9_Any_data
   fun:_ZNKSt8functionIFvvEEclEv
   fun:_ZN2tf8Executor19_invoke_static_taskERNS_6WorkerEPNS_4NodeE
   fun:_ZN2tf8Executor7_invokeERNS_6WorkerEPNS_4NodeE
   fun:_ZN2tf8Executor13_exploit_taskERNS_6WorkerERPNS_4NodeE
   fun:_ZZN2tf8Executor6_spawnEmSt10shared_ptrINS_15WorkerInterfaceEEENKUlvE_clEv
}
{
   <insert_a_suppression_name_here>
   Helgrind:Race
   fun:_ZNKSt6vectorIN4mpcf5PointIffEESaIS2_EE8capacityEv
   fun:_ZNSt6vectorIN4mpcf5PointIffEESaIS2_EEaSERKS4_
   fun:_ZN4mpcf11AccumulatorINS_3PcfIffEEEpLERKS2_
   fun:_ZZN4mpcf15parallel_reduceIN9__gnu_cxx17__normal_iteratorIPKNS_3PcfIffEESt6vectorIS4_SaIS4_EEEEEENSt15iterator_traitsIT_E10value_typeESC_SC_St8functionIFNSE_10value_typeERKNSE_14rectangle_typeEEEmRNS_8ExecutorEENKUlvE_clEv
   fun:_ZSt13__invoke_implIvRZN4mpcf15parallel_reduceIN9__gnu_cxx17__normal_iteratorIPKNS0_3PcfIffEESt6vectorIS5_SaIS5_EEEEEENSt15iterator_traitsIT_E10value_typeESD_SD_St8functionIFNSF_10value_typeERKNSF_14rectangle_typeEEEmRNS0_8ExecutorEEUlvE_JEESD_St14__invoke_otherOT0_DpOT1_
   fun:_ZSt10__invoke_rIvRZN4mpcf15parallel_reduceIN9__gnu_cxx17__normal_iteratorIPKNS0_3PcfIffEESt6vectorIS5_SaIS5_EEEEEENSt15iterator_traitsIT_E10value_typeESD_SD_St8functionIFNSF_10value_typeERKNSF_14rectangle_typeEEEmRNS0_8ExecutorEEUlvE_JEENSt9enable_ifIX16is_invocable_r_vISD_T0_DpT1_EESD_E4typeEOSS_DpOST_
   fun:_ZNSt17_Function_handlerIFvvEZN4mpcf15parallel_reduceIN9__gnu_cxx17__normal_iteratorIPKNS1_3PcfIffEESt6vectorIS6_SaIS6_EEEEEENSt15iterator_traitsIT_E10value_typeESE_SE_St8functionIFNSG_10value_typeERKNSG_14rectangle_typeEEEmRNS1_8ExecutorEEUlvE_E9_M_invokeERKSt9_Any_data
   fun:_ZNKSt8functionIFvvEEclEv
   fun:_ZN2tf8Executor19_invoke_static_taskERNS_6WorkerEPNS_4NodeE
   fun:_ZN2tf8Executor7_invokeERNS_6WorkerEPNS_4NodeE
   fun:_ZN2tf8Executor13_exploit_taskERNS_6WorkerERPNS_4NodeE
   fun:_ZZN2tf8Executor6_spawnEmSt10shared_ptrINS_15WorkerInterfaceEEENKUlvE_clEv
}
{
   <insert_a_suppression_name_here>
   Helgrind:Race
   fun:_ZSt10_ConstructIN4mpcf5PointIffEEJRKS2_EEvPT_DpOT0_
   fun:_ZSt16__do_uninit_copyIN9__gnu_cxx17__normal_iteratorIPKN4mpcf5PointIffEESt6vectorIS4_SaIS4_EEEEPS4_ET0_T_SD_SC_
   fun:_ZNSt20__uninitialized_copyILb0EE13__uninit_copyIN9__gnu_cxx17__normal_iteratorIPKN4mpcf5PointIffEESt6vectorIS6_SaIS6_EEEEPS6_EET0_T_SF_SE_
   fun:_ZSt18uninitialized_copyIN9__gnu_cxx17__normal_iteratorIPKN4mpcf5PointIffEESt6vectorIS4_SaIS4_EEEEPS4_ET0_T_SD_SC_
   fun:_ZSt22__uninitialized_copy_aIN9__gnu_cxx17__normal_iteratorIPKN4mpcf5PointIffEESt6vectorIS4_SaIS4_EEEEPS4_S4_ET0_T_SD_SC_RSaIT1_E
   fun:_ZNSt6vectorIN4mpcf5PointIffEESaIS2_EE20_M_allocate_and_copyIN9__gnu_cxx17__normal_iteratorIPKS2_S4_EEEEPS2_mT_SC_
   fun:_ZNSt6vectorIN4mpcf5PointIffEESaIS2_EEaSERKS4_
   fun:_ZN4mpcf11AccumulatorINS_3PcfIffEEEpLERKS2_
   fun:_ZZN4mpcf15parallel_reduceIN9__gnu_cxx17__normal_iteratorIPKNS_3PcfIffEESt6vectorIS4_SaIS4_EEEEEENSt15iterator_traitsIT_E10value_typeESC_SC_St8functionIFNSE_10value_typeERKNSE_14rectangle_typeEEEmRNS_8ExecutorEENKUlvE_clEv
   fun:_ZSt13__invoke_implIvRZN4mpcf15parallel_reduceIN9__gnu_cxx17__normal_iteratorIPKNS0_3PcfIffEESt6vectorIS5_SaIS5_EEEEEENSt15iterator_traitsIT_E10value_typeESD_SD_St8functionIFNSF_10value_typeERKNSF_14rectangle_typeEEEmRNS0_8ExecutorEEUlvE_JEESD_St14__invoke_otherOT0_DpOT1_
   fun:_ZSt10__invoke_rIvRZN4mpcf15parallel_reduceIN9__gnu_cxx17__normal_iteratorIPKNS0_3PcfIffEESt6vectorIS5_SaIS5_EEEEEENSt15iterator_traitsIT_E10value_typeESD_SD_St8functionIFNSF_10value_typeERKNSF_14rectangle_typeEEEmRNS0_8ExecutorEEUlvE_JEENSt9enable_ifIX16is_invocable_r_vISD_T0_DpT1_EESD_E4typeEOSS_DpOST_
   fun:_ZNSt17_Function_handlerIFvvEZN4mpcf15parallel_reduceIN9__gnu_cxx17__normal_iteratorIPKNS1_3PcfIffEESt6vectorIS6_SaIS6_EEEEEENSt15iterator_traitsIT_E10value_typeESE_SE_St8functionIFNSG_10value_typeERKNSG_14rectangle_typeEEEmRNS1_8ExecutorEEUlvE_E9_M_invokeERKSt9_Any_data
}
{
   <insert_a_suppression_name_here>
   Helgrind:Race
   fun:_ZNSt6vectorIN4mpcf5PointIffEESaIS2_EEaSERKS4_
   fun:_ZN4mpcf11AccumulatorINS_3PcfIffEEEpLERKS2_
   fun:_ZZN4mpcf15parallel_reduceIN9__gnu_cxx17__normal_iteratorIPKNS_3PcfIffEESt6vectorIS4_SaIS4_EEEEEENSt15iterator_traitsIT_E10value_typeESC_SC_St8functionIFNSE_10value_typeERKNSE_14rectangle_typeEEEmRNS_8ExecutorEENKUlvE_clEv
   fun:_ZSt13__invoke_implIvRZN4mpcf15parallel_reduceIN9__gnu_cxx17__normal_iteratorIPKNS0_3PcfIffEESt6vectorIS5_SaIS5_EEEEEENSt15iterator_traitsIT_E10value_typeESD_SD_St8functionIFNSF_10value_typeERKNSF_14rectangle_typeEEEmRNS0_8ExecutorEEUlvE_JEESD_St14__invoke_otherOT0_DpOT1_
   fun:_ZSt10__invoke_rIvRZN4mpcf15parallel_reduceIN9__gnu_cxx17__normal_iteratorIPKNS0_3PcfIffEESt6vectorIS5_SaIS5_EEEEEENSt15iterator_traitsIT_E10value_typeESD_SD_St8functionIFNSF_10value_typeERKNSF_14rectangle_typeEEEmRNS0_8ExecutorEEUlvE_JEENSt9enable_ifIX16is_invocable_r_vISD_T0_DpT1_EESD_E4typeEOSS_DpOST_
   fun:_ZNSt17_Function_handlerIFvvEZN4mpcf15parallel_reduceIN9__gnu_cxx17__normal_iteratorIPKNS1_3PcfIffEESt6vectorIS6_SaIS6_EEEEEENSt15iterator_traitsIT_E10value_typeESE_SE_St8functionIFNSG_10value_typeERKNSG_14rectangle_typeEEEmRNS1_8ExecutorEEUlvE_E9_M_invokeERKSt9_Any_data
   fun:_ZNKSt8functionIFvvEEclEv
   fun:_ZN2tf8Executor19_invoke_static_taskERNS_6WorkerEPNS_4NodeE
   fun:_ZN2tf8Executor7_invokeERNS_6WorkerEPNS_4NodeE
   fun:_ZN2tf8Executor13_exploit_taskERNS_6WorkerERPNS_4NodeE
   fun:_ZZN2tf8Executor6_spawnEmSt10shared_ptrINS_15WorkerInterfaceEEENKUlvE_clEv
   fun:_ZSt13__invoke_implIvZN2tf8Executor6_spawnEmSt10shared_ptrINS0_15WorkerInterfaceEEEUlvE_JEET_St14__invoke_otherOT0_DpOT1_
}
{
   <insert_a_suppression_name_here>
   Helgrind:Race
   fun:_ZNSt6vectorIN4mpcf5PointIffEESaIS2_EEaSERKS4_
   fun:_ZN4mpcf11AccumulatorINS_3PcfIffEEEpLERKS2_
   fun:_ZZN4mpcf15parallel_reduceIN9__gnu_cxx17__normal_iteratorIPKNS_3PcfIffEESt6vectorIS4_SaIS4_EEEEEENSt15iterator_traitsIT_E10value_typeESC_SC_St8functionIFNSE_10value_typeERKNSE_14rectangle_typeEEEmRNS_8ExecutorEENKUlvE_clEv
   fun:_ZSt13__invoke_implIvRZN4mpcf15parallel_reduceIN9__gnu_cxx17__normal_iteratorIPKNS0_3PcfIffEESt6vectorIS5_SaIS5_EEEEEENSt15iterator_traitsIT_E10value_typeESD_SD_St8functionIFNSF_10value_typeERKNSF_14rectangle_typeEEEmRNS0_8ExecutorEEUlvE_JEESD_St14__invoke_otherOT0_DpOT1_
   fun:_ZSt10__invoke_rIvRZN4mpcf15parallel_reduceIN9__gnu_cxx17__normal_iteratorIPKNS0_3PcfIffEESt6vectorIS5_SaIS5_EEEEEENSt15iterator_traitsIT_E10value_typeESD_SD_St8functionIFNSF_10value_typeERKNSF_14rectangle_typeEEEmRNS0_8ExecutorEEUlvE_JEENSt9enable_ifIX16is_invocable_r_vISD_T0_DpT1_EESD_E4typeEOSS_DpOST_
   fun:_ZNSt17_Function_handlerIFvvEZN4mpcf15parallel_reduceIN9__gnu_cxx17__normal_iteratorIPKNS1_3PcfIffEESt6vectorIS6_SaIS6_EEEEEENSt15iterator_traitsIT_E10value_typeESE_SE_St8functionIFNSG_10value_typeERKNSG_14rectangle_typeEEEmRNS1_8ExecutorEEUlvE_E9_M_invokeERKSt9_Any_data
   fun:_ZNKSt8functionIFvvEEclEv
   fun:_ZN2tf8Executor19_invoke_static_taskERNS_6WorkerEPNS_4NodeE
   fun:_ZN2tf8Executor7_invokeERNS_6WorkerEPNS_4NodeE
   fun:_ZN2tf8Executor13_exploit_taskERNS_6WorkerERPNS_4NodeE
   fun:_ZZN2tf8Executor6_spawnEmSt10shared_ptrINS_15WorkerInterfaceEEENKUlvE_clEv
   fun:_ZSt13__invoke_implIvZN2tf8Executor6_spawnEmSt10shared_ptrINS0_15WorkerInterfaceEEEUlvE_JEET_St14__invoke_otherOT0_DpOT1_
}
{
   <insert_a_suppression_name_here>
   Helgrind:Race
   fun:_ZNSt6vectorIN4mpcf5PointIffEESaIS2_EEaSERKS4_
   fun:_ZN4mpcf11AccumulatorINS_3PcfIffEEEpLERKS2_
   fun:_ZZN4mpcf15parallel_reduceIN9__gnu_cxx17__normal_iteratorIPKNS_3PcfIffEESt6vectorIS4_SaIS4_EEEEEENSt15iterator_traitsIT_E10value_typeESC_SC_St8functionIFNSE_10value_typeERKNSE_14rectangle_typeEEEmRNS_8ExecutorEENKUlvE_clEv
   fun:_ZSt13__invoke_implIvRZN4mpcf15parallel_reduceIN9__gnu_cxx17__normal_iteratorIPKNS0_3PcfIffEESt6vectorIS5_SaIS5_EEEEEENSt15iterator_traitsIT_E10value_typeESD_SD_St8functionIFNSF_10value_typeERKNSF_14rectangle_typeEEEmRNS0_8ExecutorEEUlvE_JEESD_St14__invoke_otherOT0_DpOT1_
   fun:_ZSt10__invoke_rIvRZN4mpcf15parallel_reduceIN9__gnu_cxx17__normal_iteratorIPKNS0_3PcfIffEESt6vectorIS5_SaIS5_EEEEEENSt15iterator_traitsIT_E10value_typeESD_SD_St8functionIFNSF_10value_typeERKNSF_14rectangle_typeEEEmRNS0_8ExecutorEEUlvE_JEENSt9enable_ifIX16is_invocable_r_vISD_T0_DpT1_EESD_E4typeEOSS_DpOST_
   fun:_ZNSt17_Function_handlerIFvvEZN4mpcf15parallel_reduceIN9__gnu_cxx17__normal_iteratorIPKNS1_3PcfIffEESt6vectorIS6_SaIS6_EEEEEENSt15iterator_traitsIT_E10value_typeESE_SE_St8functionIFNSG_10value_typeERKNSG_14rectangle_typeEEEmRNS1_8ExecutorEEUlvE_E9_M_invokeERKSt9_Any_data
   fun:_ZNKSt8functionIFvvEEclEv
   fun:_ZN2tf8Executor19_invoke_static_taskERNS_6WorkerEPNS_4NodeE
   fun:_ZN2tf8Executor7_invokeERNS_6WorkerEPNS_4NodeE
   fun:_ZN2tf8Executor13_exploit_taskERNS_6WorkerERPNS_4NodeE
   fun:_ZZN2tf8Executor6_spawnEmSt10shared_ptrINS_15WorkerInterfaceEEENKUlvE_clEv
   fun:_ZSt13__invoke_implIvZN2tf8Executor6_spawnEmSt10shared_ptrINS0_15WorkerInterfaceEEEUlvE_JEET_St14__invoke_otherOT0_DpOT1_
}
{
   <insert_a_suppression_name_here>
   Helgrind:Race
   fun:_ZNSt6vectorIN4mpcf5PointIffEESaIS2_EE5clearEv
   fun:_ZN4mpcf11AccumulatorINS_3PcfIffEEE13combine_with_ERKSt6vectorINS_5PointIffEESaIS6_EE
   fun:_ZN4mpcf11AccumulatorINS_3PcfIffEEEpLERKS2_
   fun:_ZZN4mpcf15parallel_reduceIN9__gnu_cxx17__normal_iteratorIPKNS_3PcfIffEESt6vectorIS4_SaIS4_EEEEEENSt15iterator_traitsIT_E10value_typeESC_SC_St8functionIFNSE_10value_typeERKNSE_14rectangle_typeEEEmRNS_8ExecutorEENKUlvE_clEv
   fun:_ZSt13__invoke_implIvRZN4mpcf15parallel_reduceIN9__gnu_cxx17__normal_iteratorIPKNS0_3PcfIffEESt6vectorIS5_SaIS5_EEEEEENSt15iterator_traitsIT_E10value_typeESD_SD_St8functionIFNSF_10value_typeERKNSF_14rectangle_typeEEEmRNS0_8ExecutorEEUlvE_JEESD_St14__invoke_otherOT0_DpOT1_
   fun:_ZSt10__invoke_rIvRZN4mpcf15parallel_reduceIN9__gnu_cxx17__normal_iteratorIPKNS0_3PcfIffEESt6vectorIS5_SaIS5_EEEEEENSt15iterator_traitsIT_E10value_typeESD_SD_St8functionIFNSF_10value_typeERKNSF_14rectangle_typeEEEmRNS0_8ExecutorEEUlvE_JEENSt9enable_ifIX16is_invocable_r_vISD_T0_DpT1_EESD_E4typeEOSS_DpOST_
   fun:_ZNSt17_Function_handlerIFvvEZN4mpcf15parallel_reduceIN9__gnu_cxx17__normal_iteratorIPKNS1_3PcfIffEESt6vectorIS6_SaIS6_EEEEEENSt15iterator_traitsIT_E10value_typeESE_SE_St8functionIFNSG_10value_typeERKNSG_14rectangle_typeEEEmRNS1_8ExecutorEEUlvE_E9_M_invokeERKSt9_Any_data
   fun:_ZNKSt8functionIFvvEEclEv
   fun:_ZN2tf8Executor19_invoke_static_taskERNS_6WorkerEPNS_4NodeE
   fun:_ZN2tf8Executor7_invokeERNS_6WorkerEPNS_4NodeE
   fun:_ZN2tf8Executor13_exploit_taskERNS_6WorkerERPNS_4NodeE
   fun:_ZZN2tf8Executor6_spawnEmSt10shared_ptrINS_15WorkerInterfaceEEENKUlvE_clEv
}
{
   <insert_a_suppression_name_here>
   Helgrind:Race
   fun:_ZNSt6vectorIN4mpcf5PointIffEESaIS2_EE15_M_erase_at_endEPS2_
   fun:_ZNSt6vectorIN4mpcf5PointIffEESaIS2_EE5clearEv
   fun:_ZN4mpcf11AccumulatorINS_3PcfIffEEE13combine_with_ERKSt6vectorINS_5PointIffEESaIS6_EE
   fun:_ZN4mpcf11AccumulatorINS_3PcfIffEEEpLERKS2_
   fun:_ZZN4mpcf15parallel_reduceIN9__gnu_cxx17__normal_iteratorIPKNS_3PcfIffEESt6vectorIS4_SaIS4_EEEEEENSt15iterator_traitsIT_E10value_typeESC_SC_St8functionIFNSE_10value_typeERKNSE_14rectangle_typeEEEmRNS_8ExecutorEENKUlvE_clEv
   fun:_ZSt13__invoke_implIvRZN4mpcf15parallel_reduceIN9__gnu_cxx17__normal_iteratorIPKNS0_3PcfIffEESt6vectorIS5_SaIS5_EEEEEENSt15iterator_traitsIT_E10value_typeESD_SD_St8functionIFNSF_10value_typeERKNSF_14rectangle_typeEEEmRNS0_8ExecutorEEUlvE_JEESD_St14__invoke_otherOT0_DpOT1_
   fun:_ZSt10__invoke_rIvRZN4mpcf15parallel_reduceIN9__gnu_cxx17__normal_iteratorIPKNS0_3PcfIffEESt6vectorIS5_SaIS5_EEEEEENSt15iterator_traitsIT_E10value_typeESD_SD_St8functionIFNSF_10value_typeERKNSF_14rectangle_typeEEEmRNS0_8ExecutorEEUlvE_JEENSt9enable_ifIX16is_invocable_r_vISD_T0_DpT1_EESD_E4typeEOSS_DpOST_
   fun:_ZNSt17_Function_handlerIFvvEZN4mpcf15parallel_reduceIN9__gnu_cxx17__normal_iteratorIPKNS1_3PcfIffEESt6vectorIS6_SaIS6_EEEEEENSt15iterator_traitsIT_E10value_typeESE_SE_St8functionIFNSG_10value_typeERKNSG_14rectangle_typeEEEmRNS1_8ExecutorEEUlvE_E9_M_invokeERKSt9_Any_data
   fun:_ZNKSt8functionIFvvEEclEv
   fun:_ZN2tf8Executor19_invoke_static_taskERNS_6WorkerEPNS_4NodeE
   fun:_ZN2tf8Executor7_invokeERNS_6WorkerEPNS_4NodeE
   fun:_ZN2tf8Executor13_exploit_taskERNS_6WorkerERPNS_4NodeE
}
{
   <insert_a_suppression_name_here>
   Helgrind:Race
   fun:_ZNKSt6vectorIN4mpcf5PointIffEESaIS2_EE4sizeEv
   fun:_ZN4mpcf11AccumulatorINS_3PcfIffEEE13combine_with_ERKSt6vectorINS_5PointIffEESaIS6_EE
   fun:_ZN4mpcf11AccumulatorINS_3PcfIffEEEpLERKS2_
   fun:_ZZN4mpcf15parallel_reduceIN9__gnu_cxx17__normal_iteratorIPKNS_3PcfIffEESt6vectorIS4_SaIS4_EEEEEENSt15iterator_traitsIT_E10value_typeESC_SC_St8functionIFNSE_10value_typeERKNSE_14rectangle_typeEEEmRNS_8ExecutorEENKUlvE_clEv
   fun:_ZSt13__invoke_implIvRZN4mpcf15parallel_reduceIN9__gnu_cxx17__normal_iteratorIPKNS0_3PcfIffEESt6vectorIS5_SaIS5_EEEEEENSt15iterator_traitsIT_E10value_typeESD_SD_St8functionIFNSF_10value_typeERKNSF_14rectangle_typeEEEmRNS0_8ExecutorEEUlvE_JEESD_St14__invoke_otherOT0_DpOT1_
   fun:_ZSt10__invoke_rIvRZN4mpcf15parallel_reduceIN9__gnu_cxx17__normal_iteratorIPKNS0_3PcfIffEESt6vectorIS5_SaIS5_EEEEEENSt15iterator_traitsIT_E10value_typeESD_SD_St8functionIFNSF_10value_typeERKNSF_14rectangle_typeEEEmRNS0_8ExecutorEEUlvE_JEENSt9enable_ifIX16is_invocable_r_vISD_T0_DpT1_EESD_E4typeEOSS_DpOST_
   fun:_ZNSt17_Function_handlerIFvvEZN4mpcf15parallel_reduceIN9__gnu_cxx17__normal_iteratorIPKNS1_3PcfIffEESt6vectorIS6_SaIS6_EEEEEENSt15iterator_traitsIT_E10value_typeESE_SE_St8functionIFNSG_10value_typeERKNSG_14rectangle_typeEEEmRNS1_8ExecutorEEUlvE_E9_M_invokeERKSt9_Any_data
   fun:_ZNKSt8functionIFvvEEclEv
   fun:_ZN2tf8Executor19_invoke_static_taskERNS_6WorkerEPNS_4NodeE
   fun:_ZN2tf8Executor7_invokeERNS_6WorkerEPNS_4NodeE
   fun:_ZN2tf8Executor13_exploit_taskERNS_6WorkerERPNS_4NodeE
   fun:_ZZN2tf8Executor6_spawnEmSt10shared_ptrINS_15WorkerInterfaceEEENKUlvE_clEv
}
{
   <insert_a_suppression_name_here>
   Helgrind:Race
   fun:_ZNKSt6vectorIN4mpcf5PointIffEESaIS2_EE4sizeEv
   fun:_ZN4mpcf11AccumulatorINS_3PcfIffEEE13combine_with_ERKSt6vectorINS_5PointIffEESaIS6_EE
   fun:_ZN4mpcf11AccumulatorINS_3PcfIffEEEpLERKS2_
   fun:_ZZN4mpcf15parallel_reduceIN9__gnu_cxx17__normal_iteratorIPKNS_3PcfIffEESt6vectorIS4_SaIS4_EEEEEENSt15iterator_traitsIT_E10value_typeESC_SC_St8functionIFNSE_10value_typeERKNSE_14rectangle_typeEEEmRNS_8ExecutorEENKUlvE_clEv
   fun:_ZSt13__invoke_implIvRZN4mpcf15parallel_reduceIN9__gnu_cxx17__normal_iteratorIPKNS0_3PcfIffEESt6vectorIS5_SaIS5_EEEEEENSt15iterator_traitsIT_E10value_typeESD_SD_St8functionIFNSF_10value_typeERKNSF_14rectangle_typeEEEmRNS0_8ExecutorEEUlvE_JEESD_St14__invoke_otherOT0_DpOT1_
   fun:_ZSt10__invoke_rIvRZN4mpcf15parallel_reduceIN9__gnu_cxx17__normal_iteratorIPKNS0_3PcfIffEESt6vectorIS5_SaIS5_EEEEEENSt15iterator_traitsIT_E10value_typeESD_SD_St8functionIFNSF_10value_typeERKNSF_14rectangle_typeEEEmRNS0_8ExecutorEEUlvE_JEENSt9enable_ifIX16is_invocable_r_vISD_T0_DpT1_EESD_E4typeEOSS_DpOST_
   fun:_ZNSt17_Function_handlerIFvvEZN4mpcf15parallel_reduceIN9__gnu_cxx17__normal_iteratorIPKNS1_3PcfIffEESt6vectorIS6_SaIS6_EEEEEENSt15iterator_traitsIT_E10value_typeESE_SE_St8functionIFNSG_10value_typeERKNSG_14rectangle_typeEEEmRNS1_8ExecutorEEUlvE_E9_M_invokeERKSt9_Any_data
   fun:_ZNKSt8functionIFvvEEclEv
   fun:_ZN2tf8Executor19_invoke_static_taskERNS_6WorkerEPNS_4NodeE
   fun:_ZN2tf8Executor7_invokeERNS_6WorkerEPNS_4NodeE
   fun:_ZN2tf8Executor13_exploit_taskERNS_6WorkerERPNS_4NodeE
   fun:_ZZN2tf8Executor6_spawnEmSt10shared_ptrINS_15WorkerInterfaceEEENKUlvE_clEv
}
{
   <insert_a_suppression_name_here>
   Helgrind:Race
   fun:_ZNSt6vectorIN4mpcf5PointIffEESaIS2_EE17_M_default_appendEm
   fun:_ZNSt6vectorIN4mpcf5PointIffEESaIS2_EE6resizeEm
   fun:_ZN4mpcf11AccumulatorINS_3PcfIffEEE13combine_with_ERKSt6vectorINS_5PointIffEESaIS6_EE
   fun:_ZN4mpcf11AccumulatorINS_3PcfIffEEEpLERKS2_
   fun:_ZZN4mpcf15parallel_reduceIN9__gnu_cxx17__normal_iteratorIPKNS_3PcfIffEESt6vectorIS4_SaIS4_EEEEEENSt15iterator_traitsIT_E10value_typeESC_SC_St8functionIFNSE_10value_typeERKNSE_14rectangle_typeEEEmRNS_8ExecutorEENKUlvE_clEv
   fun:_ZSt13__invoke_implIvRZN4mpcf15parallel_reduceIN9__gnu_cxx17__normal_iteratorIPKNS0_3PcfIffEESt6vectorIS5_SaIS5_EEEEEENSt15iterator_traitsIT_E10value_typeESD_SD_St8functionIFNSF_10value_typeERKNSF_14rectangle_typeEEEmRNS0_8ExecutorEEUlvE_JEESD_St14__invoke_otherOT0_DpOT1_
   fun:_ZSt10__invoke_rIvRZN4mpcf15parallel_reduceIN9__gnu_cxx17__normal_iteratorIPKNS0_3PcfIffEESt6vectorIS5_SaIS5_EEEEEENSt15iterator_traitsIT_E10value_typeESD_SD_St8functionIFNSF_10value_typeERKNSF_14rectangle_typeEEEmRNS0_8ExecutorEEUlvE_JEENSt9enable_ifIX16is_invocable_r_vISD_T0_DpT1_EESD_E4typeEOSS_DpOST_
   fun:_ZNSt17_Function_handlerIFvvEZN4mpcf15parallel_reduceIN9__gnu_cxx17__normal_iteratorIPKNS1_3PcfIffEESt6vectorIS6_SaIS6_EEEEEENSt15iterator_traitsIT_E10value_typeESE_SE_St8functionIFNSG_10value_typeERKNSG_14rectangle_typeEEEmRNS1_8ExecutorEEUlvE_E9_M_invokeERKSt9_Any_data
   fun:_ZNKSt8functionIFvvEEclEv
   fun:_ZN2tf8Executor19_invoke_static_taskERNS_6WorkerEPNS_4NodeE
   fun:_ZN2tf8Executor7_invokeERNS_6WorkerEPNS_4NodeE
   fun:_ZN2tf8Executor13_exploit_taskERNS_6WorkerERPNS_4NodeE
}
{
   <insert_a_suppression_name_here>
   Helgrind:Race
   fun:_ZNSt6vectorIN4mpcf5PointIffEESaIS2_EE17_M_default_appendEm
   fun:_ZNSt6vectorIN4mpcf5PointIffEESaIS2_EE6resizeEm
   fun:_ZN4mpcf11AccumulatorINS_3PcfIffEEE13combine_with_ERKSt6vectorINS_5PointIffEESaIS6_EE
   fun:_ZN4mpcf11AccumulatorINS_3PcfIffEEEpLERKS2_
   fun:_ZZN4mpcf15parallel_reduceIN9__gnu_cxx17__normal_iteratorIPKNS_3PcfIffEESt6vectorIS4_SaIS4_EEEEEENSt15iterator_traitsIT_E10value_typeESC_SC_St8functionIFNSE_10value_typeERKNSE_14rectangle_typeEEEmRNS_8ExecutorEENKUlvE_clEv
   fun:_ZSt13__invoke_implIvRZN4mpcf15parallel_reduceIN9__gnu_cxx17__normal_iteratorIPKNS0_3PcfIffEESt6vectorIS5_SaIS5_EEEEEENSt15iterator_traitsIT_E10value_typeESD_SD_St8functionIFNSF_10value_typeERKNSF_14rectangle_typeEEEmRNS0_8ExecutorEEUlvE_JEESD_St14__invoke_otherOT0_DpOT1_
   fun:_ZSt10__invoke_rIvRZN4mpcf15parallel_reduceIN9__gnu_cxx17__normal_iteratorIPKNS0_3PcfIffEESt6vectorIS5_SaIS5_EEEEEENSt15iterator_traitsIT_E10value_typeESD_SD_St8functionIFNSF_10value_typeERKNSF_14rectangle_typeEEEmRNS0_8ExecutorEEUlvE_JEENSt9enable_ifIX16is_invocable_r_vISD_T0_DpT1_EESD_E4typeEOSS_DpOST_
   fun:_ZNSt17_Function_handlerIFvvEZN4mpcf15parallel_reduceIN9__gnu_cxx17__normal_iteratorIPKNS1_3PcfIffEESt6vectorIS6_SaIS6_EEEEEENSt15iterator_traitsIT_E10value_typeESE_SE_St8functionIFNSG_10value_typeERKNSG_14rectangle_typeEEEmRNS1_8ExecutorEEUlvE_E9_M_invokeERKSt9_Any_data
   fun:_ZNKSt8functionIFvvEEclEv
   fun:_ZN2tf8Executor19_invoke_static_taskERNS_6WorkerEPNS_4NodeE
   fun:_ZN2tf8Executor7_invokeERNS_6WorkerEPNS_4NodeE
   fun:_ZN2tf8Executor13_exploit_taskERNS_6WorkerERPNS_4NodeE
}
{
   <insert_a_suppression_name_here>
   Helgrind:Race
   fun:_ZNSt6vectorIN4mpcf5PointIffEESaIS2_EE17_M_default_appendEm
   fun:_ZNSt6vectorIN4mpcf5PointIffEESaIS2_EE6resizeEm
   fun:_ZN4mpcf11AccumulatorINS_3PcfIffEEE13combine_with_ERKSt6vectorINS_5PointIffEESaIS6_EE
   fun:_ZN4mpcf11AccumulatorINS_3PcfIffEEEpLERKS2_
   fun:_ZZN4mpcf15parallel_reduceIN9__gnu_cxx17__normal_iteratorIPKNS_3PcfIffEESt6vectorIS4_SaIS4_EEEEEENSt15iterator_traitsIT_E10value_typeESC_SC_St8functionIFNSE_10value_typeERKNSE_14rectangle_typeEEEmRNS_8ExecutorEENKUlvE_clEv
   fun:_ZSt13__invoke_implIvRZN4mpcf15parallel_reduceIN9__gnu_cxx17__normal_iteratorIPKNS0_3PcfIffEESt6vectorIS5_SaIS5_EEEEEENSt15iterator_traitsIT_E10value_typeESD_SD_St8functionIFNSF_10value_typeERKNSF_14rectangle_typeEEEmRNS0_8ExecutorEEUlvE_JEESD_St14__invoke_otherOT0_DpOT1_
   fun:_ZSt10__invoke_rIvRZN4mpcf15parallel_reduceIN9__gnu_cxx17__normal_iteratorIPKNS0_3PcfIffEESt6vectorIS5_SaIS5_EEEEEENSt15iterator_traitsIT_E10value_typeESD_SD_St8functionIFNSF_10value_typeERKNSF_14rectangle_typeEEEmRNS0_8ExecutorEEUlvE_JEENSt9enable_ifIX16is_invocable_r_vISD_T0_DpT1_EESD_E4typeEOSS_DpOST_
   fun:_ZNSt17_Function_handlerIFvvEZN4mpcf15parallel_reduceIN9__gnu_cxx17__normal_iteratorIPKNS1_3PcfIffEESt6vectorIS6_SaIS6_EEEEEENSt15iterator_traitsIT_E10value_typeESE_SE_St8functionIFNSG_10value_typeERKNSG_14rectangle_typeEEEmRNS1_8ExecutorEEUlvE_E9_M_invokeERKSt9_Any_data
   fun:_ZNKSt8functionIFvvEEclEv
   fun:_ZN2tf8Executor19_invoke_static_taskERNS_6WorkerEPNS_4NodeE
   fun:_ZN2tf8Executor7_invokeERNS_6WorkerEPNS_4NodeE
   fun:_ZN2tf8Executor13_exploit_taskERNS_6WorkerERPNS_4NodeE
}
{
   <insert_a_suppression_name_here>
   Helgrind:Race
   fun:_ZNSt6vectorIN4mpcf5PointIffEESaIS2_EE17_M_default_appendEm
   fun:_ZNSt6vectorIN4mpcf5PointIffEESaIS2_EE6resizeEm
   fun:_ZN4mpcf11AccumulatorINS_3PcfIffEEE13combine_with_ERKSt6vectorINS_5PointIffEESaIS6_EE
   fun:_ZN4mpcf11AccumulatorINS_3PcfIffEEEpLERKS2_
   fun:_ZZN4mpcf15parallel_reduceIN9__gnu_cxx17__normal_iteratorIPKNS_3PcfIffEESt6vectorIS4_SaIS4_EEEEEENSt15iterator_traitsIT_E10value_typeESC_SC_St8functionIFNSE_10value_typeERKNSE_14rectangle_typeEEEmRNS_8ExecutorEENKUlvE_clEv
   fun:_ZSt13__invoke_implIvRZN4mpcf15parallel_reduceIN9__gnu_cxx17__normal_iteratorIPKNS0_3PcfIffEESt6vectorIS5_SaIS5_EEEEEENSt15iterator_traitsIT_E10value_typeESD_SD_St8functionIFNSF_10value_typeERKNSF_14rectangle_typeEEEmRNS0_8ExecutorEEUlvE_JEESD_St14__invoke_otherOT0_DpOT1_
   fun:_ZSt10__invoke_rIvRZN4mpcf15parallel_reduceIN9__gnu_cxx17__normal_iteratorIPKNS0_3PcfIffEESt6vectorIS5_SaIS5_EEEEEENSt15iterator_traitsIT_E10value_typeESD_SD_St8functionIFNSF_10value_typeERKNSF_14rectangle_typeEEEmRNS0_8ExecutorEEUlvE_JEENSt9enable_ifIX16is_invocable_r_vISD_T0_DpT1_EESD_E4typeEOSS_DpOST_
   fun:_ZNSt17_Function_handlerIFvvEZN4mpcf15parallel_reduceIN9__gnu_cxx17__normal_iteratorIPKNS1_3PcfIffEESt6vectorIS6_SaIS6_EEEEEENSt15iterator_traitsIT_E10value_typeESE_SE_St8functionIFNSG_10value_typeERKNSG_14rectangle_typeEEEmRNS1_8ExecutorEEUlvE_E9_M_invokeERKSt9_Any_data
   fun:_ZNKSt8functionIFvvEEclEv
   fun:_ZN2tf8Executor19_invoke_static_taskERNS_6WorkerEPNS_4NodeE
   fun:_ZN2tf8Executor7_invokeERNS_6WorkerEPNS_4NodeE
   fun:_ZN2tf8Executor13_exploit_taskERNS_6WorkerERPNS_4NodeE
}
{
   <insert_a_suppression_name_here>
   Helgrind:Race
   fun:_ZZN4mpcf26max_time_iterator_prior_toIN9__gnu_cxx17__normal_iteratorIPKNS_5PointIffEESt6vectorIS4_SaIS4_EEEEEET_SB_SB_NSt15iterator_traitsISB_E10value_type9time_typeEENKUlfRS5_E_clEfSG_
   fun:_ZN9__gnu_cxx5__ops14_Val_comp_iterIZN4mpcf26max_time_iterator_prior_toINS_17__normal_iteratorIPKNS2_5PointIffEESt6vectorIS6_SaIS6_EEEEEET_SD_SD_NSt15iterator_traitsISD_E10value_type9time_typeEEUlfRS7_E_EclIKfSC_EEbRSD_T0_
   fun:_ZSt13__upper_boundIN9__gnu_cxx17__normal_iteratorIPKN4mpcf5PointIffEESt6vectorIS4_SaIS4_EEEEfNS0_5__ops14_Val_comp_iterIZNS2_26max_time_iterator_prior_toISA_EET_SE_SE_NSt15iterator_traitsISE_E10value_type9time_typeEEUlfRS5_E_EEESE_SE_SE_RKT0_T1_
   fun:_ZSt11upper_boundIN9__gnu_cxx17__normal_iteratorIPKN4mpcf5PointIffEESt6vectorIS4_SaIS4_EEEEfZNS2_26max_time_iterator_prior_toISA_EET_SC_SC_NSt15iterator_traitsISC_E10value_type9time_typeEEUlfRS5_E_ESC_SC_SC_RKT0_T1_
   fun:_ZN4mpcf26max_time_iterator_prior_toIN9__gnu_cxx17__normal_iteratorIPKNS_5PointIffEESt6vectorIS4_SaIS4_EEEEEET_SB_SB_NSt15iterator_traitsISB_E10value_type9time_typeE
   fun:_ZN4mpcf18iterate_rectanglesINS_5PointIffEEZNS_11AccumulatorINS_3PcfIffEEE13combine_with_ERKSt6vectorIS2_SaIS2_EEEUlRKNS_9RectangleIffEEE_EEvRKS7_IT_SaISH_EESL_T0_NSH_9time_typeESN_
   fun:_ZN4mpcf11AccumulatorINS_3PcfIffEEE13combine_with_ERKSt6vectorINS_5PointIffEESaIS6_EE
   fun:_ZN4mpcf11AccumulatorINS_3PcfIffEEEpLERKS2_
   fun:_ZZN4mpcf15parallel_reduceIN9__gnu_cxx17__normal_iteratorIPKNS_3PcfIffEESt6vectorIS4_SaIS4_EEEEEENSt15iterator_traitsIT_E10value_typeESC_SC_St8functionIFNSE_10value_typeERKNSE_14rectangle_typeEEEmRNS_8ExecutorEENKUlvE_clEv
   fun:_ZSt13__invoke_implIvRZN4mpcf15parallel_reduceIN9__gnu_cxx17__normal_iteratorIPKNS0_3PcfIffEESt6vectorIS5_SaIS5_EEEEEENSt15iterator_traitsIT_E10value_typeESD_SD_St8functionIFNSF_10value_typeERKNSF_14rectangle_typeEEEmRNS0_8ExecutorEEUlvE_JEESD_St14__invoke_otherOT0_DpOT1_
   fun:_ZSt10__invoke_rIvRZN4mpcf15parallel_reduceIN9__gnu_cxx17__normal_iteratorIPKNS0_3PcfIffEESt6vectorIS5_SaIS5_EEEEEENSt15iterator_traitsIT_E10value_typeESD_SD_St8functionIFNSF_10value_typeERKNSF_14rectangle_typeEEEmRNS0_8ExecutorEEUlvE_JEENSt9enable_ifIX16is_invocable_r_vISD_T0_DpT1_EESD_E4typeEOSS_DpOST_
   fun:_ZNSt17_Function_handlerIFvvEZN4mpcf15parallel_reduceIN9__gnu_cxx17__normal_iteratorIPKNS1_3PcfIffEESt6vectorIS6_SaIS6_EEEEEENSt15iterator_traitsIT_E10value_typeESE_SE_St8functionIFNSG_10value_typeERKNSG_14rectangle_typeEEEmRNS1_8ExecutorEEUlvE_E9_M_invokeERKSt9_Any_data
}
{
   <insert_a_suppression_name_here>
   Helgrind:Race
   fun:_ZN4mpcf18iterate_rectanglesINS_5PointIffEEZNS_11AccumulatorINS_3PcfIffEEE13combine_with_ERKSt6vectorIS2_SaIS2_EEEUlRKNS_9RectangleIffEEE_EEvRKS7_IT_SaISH_EESL_T0_NSH_9time_typeESN_
   fun:_ZN4mpcf11AccumulatorINS_3PcfIffEEE13combine_with_ERKSt6vectorINS_5PointIffEESaIS6_EE
   fun:_ZN4mpcf11AccumulatorINS_3PcfIffEEEpLERKS2_
   fun:_ZZN4mpcf15parallel_reduceIN9__gnu_cxx17__normal_iteratorIPKNS_3PcfIffEESt6vectorIS4_SaIS4_EEEEEENSt15iterator_traitsIT_E10value_typeESC_SC_St8functionIFNSE_10value_typeERKNSE_14rectangle_typeEEEmRNS_8ExecutorEENKUlvE_clEv
   fun:_ZSt13__invoke_implIvRZN4mpcf15parallel_reduceIN9__gnu_cxx17__normal_iteratorIPKNS0_3PcfIffEESt6vectorIS5_SaIS5_EEEEEENSt15iterator_traitsIT_E10value_typeESD_SD_St8functionIFNSF_10value_typeERKNSF_14rectangle_typeEEEmRNS0_8ExecutorEEUlvE_JEESD_St14__invoke_otherOT0_DpOT1_
   fun:_ZSt10__invoke_rIvRZN4mpcf15parallel_reduceIN9__gnu_cxx17__normal_iteratorIPKNS0_3PcfIffEESt6vectorIS5_SaIS5_EEEEEENSt15iterator_traitsIT_E10value_typeESD_SD_St8functionIFNSF_10value_typeERKNSF_14rectangle_typeEEEmRNS0_8ExecutorEEUlvE_JEENSt9enable_ifIX16is_invocable_r_vISD_T0_DpT1_EESD_E4typeEOSS_DpOST_
   fun:_ZNSt17_Function_handlerIFvvEZN4mpcf15parallel_reduceIN9__gnu_cxx17__normal_iteratorIPKNS1_3PcfIffEESt6vectorIS6_SaIS6_EEEEEENSt15iterator_traitsIT_E10value_typeESE_SE_St8functionIFNSG_10value_typeERKNSG_14rectangle_typeEEEmRNS1_8ExecutorEEUlvE_E9_M_invokeERKSt9_Any_data
   fun:_ZNKSt8functionIFvvEEclEv
   fun:_ZN2tf8Executor19_invoke_static_taskERNS_6WorkerEPNS_4NodeE
   fun:_ZN2tf8Executor7_invokeERNS_6WorkerEPNS_4NodeE
   fun:_ZN2tf8Executor13_exploit_taskERNS_6WorkerERPNS_4NodeE
   fun:_ZZN2tf8Executor6_spawnEmSt10shared_ptrINS_15WorkerInterfaceEEENKUlvE_clEv
}
{
   <insert_a_suppression_name_here>
   Helgrind:Race
   fun:_ZNKSt14_Function_base8_M_emptyEv
   fun:_ZNKSt8functionIFfRKN4mpcf9RectangleIffEEEEclES4_
   fun:_ZZN4mpcf11AccumulatorINS_3PcfIffEEE13combine_with_ERKSt6vectorINS_5PointIffEESaIS6_EEENKUlRKNS_9RectangleIffEEE_clESE_
   fun:_ZN4mpcf18iterate_rectanglesINS_5PointIffEEZNS_11AccumulatorINS_3PcfIffEEE13combine_with_ERKSt6vectorIS2_SaIS2_EEEUlRKNS_9RectangleIffEEE_EEvRKS7_IT_SaISH_EESL_T0_NSH_9time_typeESN_
   fun:_ZN4mpcf11AccumulatorINS_3PcfIffEEE13combine_with_ERKSt6vectorINS_5PointIffEESaIS6_EE
   fun:_ZN4mpcf11AccumulatorINS_3PcfIffEEEpLERKS2_
   fun:_ZZN4mpcf15parallel_reduceIN9__gnu_cxx17__normal_iteratorIPKNS_3PcfIffEESt6vectorIS4_SaIS4_EEEEEENSt15iterator_traitsIT_E10value_typeESC_SC_St8functionIFNSE_10value_typeERKNSE_14rectangle_typeEEEmRNS_8ExecutorEENKUlvE_clEv
   fun:_ZSt13__invoke_implIvRZN4mpcf15parallel_reduceIN9__gnu_cxx17__normal_iteratorIPKNS0_3PcfIffEESt6vectorIS5_SaIS5_EEEEEENSt15iterator_traitsIT_E10value_typeESD_SD_St8functionIFNSF_10value_typeERKNSF_14rectangle_typeEEEmRNS0_8ExecutorEEUlvE_JEESD_St14__invoke_otherOT0_DpOT1_
   fun:_ZSt10__invoke_rIvRZN4mpcf15parallel_reduceIN9__gnu_cxx17__normal_iteratorIPKNS0_3PcfIffEESt6vectorIS5_SaIS5_EEEEEENSt15iterator_traitsIT_E10value_typeESD_SD_St8functionIFNSF_10value_typeERKNSF_14rectangle_typeEEEmRNS0_8ExecutorEEUlvE_JEENSt9enable_ifIX16is_invocable_r_vISD_T0_DpT1_EESD_E4typeEOSS_DpOST_
   fun:_ZNSt17_Function_handlerIFvvEZN4mpcf15parallel_reduceIN9__gnu_cxx17__normal_iteratorIPKNS1_3PcfIffEESt6vectorIS6_SaIS6_EEEEEENSt15iterator_traitsIT_E10value_typeESE_SE_St8functionIFNSG_10value_typeERKNSG_14rectangle_typeEEEmRNS1_8ExecutorEEUlvE_E9_M_invokeERKSt9_Any_data
   fun:_ZNKSt8functionIFvvEEclEv
   fun:_ZN2tf8Executor19_invoke_static_taskERNS_6WorkerEPNS_4NodeE
}
{
   <insert_a_suppression_name_here>
   Helgrind:Race
   fun:_ZNKSt8functionIFfRKN4mpcf9RectangleIffEEEEclES4_
   fun:_ZZN4mpcf11AccumulatorINS_3PcfIffEEE13combine_with_ERKSt6vectorINS_5PointIffEESaIS6_EEENKUlRKNS_9RectangleIffEEE_clESE_
   fun:_ZN4mpcf18iterate_rectanglesINS_5PointIffEEZNS_11AccumulatorINS_3PcfIffEEE13combine_with_ERKSt6vectorIS2_SaIS2_EEEUlRKNS_9RectangleIffEEE_EEvRKS7_IT_SaISH_EESL_T0_NSH_9time_typeESN_
   fun:_ZN4mpcf11AccumulatorINS_3PcfIffEEE13combine_with_ERKSt6vectorINS_5PointIffEESaIS6_EE
   fun:_ZN4mpcf11AccumulatorINS_3PcfIffEEEpLERKS2_
   fun:_ZZN4mpcf15parallel_reduceIN9__gnu_cxx17__normal_iteratorIPKNS_3PcfIffEESt6vectorIS4_SaIS4_EEEEEENSt15iterator_traitsIT_E10value_typeESC_SC_St8functionIFNSE_10value_typeERKNSE_14rectangle_typeEEEmRNS_8ExecutorEENKUlvE_clEv
   fun:_ZSt13__invoke_implIvRZN4mpcf15parallel_reduceIN9__gnu_cxx17__normal_iteratorIPKNS0_3PcfIffEESt6vectorIS5_SaIS5_EEEEEENSt15iterator_traitsIT_E10value_typeESD_SD_St8functionIFNSF_10value_typeERKNSF_14rectangle_typeEEEmRNS0_8ExecutorEEUlvE_JEESD_St14__invoke_otherOT0_DpOT1_
   fun:_ZSt10__invoke_rIvRZN4mpcf15parallel_reduceIN9__gnu_cxx17__normal_iteratorIPKNS0_3PcfIffEESt6vectorIS5_SaIS5_EEEEEENSt15iterator_traitsIT_E10value_typeESD_SD_St8functionIFNSF_10value_typeERKNSF_14rectangle_typeEEEmRNS0_8ExecutorEEUlvE_JEENSt9enable_ifIX16is_invocable_r_vISD_T0_DpT1_EESD_E4typeEOSS_DpOST_
   fun:_ZNSt17_Function_handlerIFvvEZN4mpcf15parallel_reduceIN9__gnu_cxx17__normal_iteratorIPKNS1_3PcfIffEESt6vectorIS6_SaIS6_EEEEEENSt15iterator_traitsIT_E10value_typeESE_SE_St8functionIFNSG_10value_typeERKNSG_14rectangle_typeEEEmRNS1_8ExecutorEEUlvE_E9_M_invokeERKSt9_Any_data
   fun:_ZNKSt8functionIFvvEEclEv
   fun:_ZN2tf8Executor19_invoke_static_taskERNS_6WorkerEPNS_4NodeE
   fun:_ZN2tf8Executor7_invokeERNS_6WorkerEPNS_4NodeE
}
{
   <insert_a_suppression_name_here>
   Helgrind:Race
   fun:_ZN2tf8Executor7_invokeERNS_6WorkerEPNS_4NodeE
   fun:_ZN2tf8Executor13_exploit_taskERNS_6WorkerERPNS_4NodeE
   fun:_ZZN2tf8Executor6_spawnEmSt10shared_ptrINS_15WorkerInterfaceEEENKUlvE_clEv
   fun:_ZSt13__invoke_implIvZN2tf8Executor6_spawnEmSt10shared_ptrINS0_15WorkerInterfaceEEEUlvE_JEET_St14__invoke_otherOT0_DpOT1_
   fun:_ZSt8__invokeIZN2tf8Executor6_spawnEmSt10shared_ptrINS0_15WorkerInterfaceEEEUlvE_JEENSt15__invoke_resultIT_JDpT0_EE4typeEOS7_DpOS8_
   fun:_ZNSt6thread8_InvokerISt5tupleIJZN2tf8Executor6_spawnEmSt10shared_ptrINS2_15WorkerInterfaceEEEUlvE_EEE9_M_invokeIJLm0EEEEvSt12_Index_tupleIJXspT_EEE
   fun:_ZNSt6thread8_InvokerISt5tupleIJZN2tf8Executor6_spawnEmSt10shared_ptrINS2_15WorkerInterfaceEEEUlvE_EEEclEv
   fun:_ZNSt6thread11_State_implINS_8_InvokerISt5tupleIJZN2tf8Executor6_spawnEmSt10shared_ptrINS3_15WorkerInterfaceEEEUlvE_EEEEE6_M_runEv
   obj:/usr/lib/x86_64-linux-gnu/libstdc++.so.6.0.33
   obj:/usr/libexec/valgrind/vgpreload_helgrind-amd64-linux.so
   fun:start_thread
   fun:clone
}
{
   <insert_a_suppression_name_here>
   Helgrind:Race
   fun:_ZN2tf8Executor19_tear_down_nonasyncERNS_6WorkerEPNS_4NodeERS4_
   fun:_ZN2tf8Executor7_invokeERNS_6WorkerEPNS_4NodeE
   fun:_ZN2tf8Executor13_exploit_taskERNS_6WorkerERPNS_4NodeE
   fun:_ZZN2tf8Executor6_spawnEmSt10shared_ptrINS_15WorkerInterfaceEEENKUlvE_clEv
   fun:_ZSt13__invoke_implIvZN2tf8Executor6_spawnEmSt10shared_ptrINS0_15WorkerInterfaceEEEUlvE_JEET_St14__invoke_otherOT0_DpOT1_
   fun:_ZSt8__invokeIZN2tf8Executor6_spawnEmSt10shared_ptrINS0_15WorkerInterfaceEEEUlvE_JEENSt15__invoke_resultIT_JDpT0_EE4typeEOS7_DpOS8_
   fun:_ZNSt6thread8_InvokerISt5tupleIJZN2tf8Executor6_spawnEmSt10shared_ptrINS2_15WorkerInterfaceEEEUlvE_EEE9_M_invokeIJLm0EEEEvSt12_Index_tupleIJXspT_EEE
   fun:_ZNSt6thread8_InvokerISt5tupleIJZN2tf8Executor6_spawnEmSt10shared_ptrINS2_15WorkerInterfaceEEEUlvE_EEEclEv
   fun:_ZNSt6thread11_State_implINS_8_InvokerISt5tupleIJZN2tf8Executor6_spawnEmSt10shared_ptrINS3_15WorkerInterfaceEEEUlvE_EEEEE6_M_runEv
   obj:/usr/lib/x86_64-linux-gnu/libstdc++.so.6.0.33
   obj:/usr/libexec/valgrind/vgpreload_helgrind-amd64-linux.so
   fun:start_thread
}
{
   <insert_a_suppression_name_here>
   Helgrind:Race
   fun:_ZNSt23_Sp_counted_ptr_inplaceIN2tf8TopologyESaIvELN9__gnu_cxx12_Lock_policyE2EED1Ev
   fun:_ZNSt23_Sp_counted_ptr_inplaceIN2tf8TopologyESaIvELN9__gnu_cxx12_Lock_policyE2EE10_M_destroyEv
   fun:_ZNSt16_Sp_counted_baseILN9__gnu_cxx12_Lock_policyE2EE15_M_weak_releaseEv
   fun:_ZNSt12__weak_countILN9__gnu_cxx12_Lock_policyE2EED1Ev
   fun:_ZNSt10__weak_ptrIN2tf8TopologyELN9__gnu_cxx12_Lock_policyE2EED1Ev
   fun:_ZNSt8weak_ptrIN2tf8TopologyEED1Ev
   fun:_ZN2tf6FutureIvED1Ev
   fun:_ZN4mpcf15parallel_reduceIN9__gnu_cxx17__normal_iteratorIPKNS_3PcfIffEESt6vectorIS4_SaIS4_EEEEEENSt15iterator_traitsIT_E10value_typeESC_SC_St8functionIFNSE_10value_typeERKNSE_14rectangle_typeEEEmRNS_8ExecutorE
   fun:_ZN4mpcf7averageIffEENS_3PcfIT_T0_EERKSt6vectorIS4_SaIS4_EEm
   fun:_ZN12_GLOBAL__N_150PcfAlgebraAndNormsTest_AverageForSmallExample_TestIN4mpcf3PcfIffEEE8TestBodyEv
   fun:_ZN7testing8internal38HandleSehExceptionsInMethodIfSupportedINS_4TestEvEET0_PT_MS4_FS3_vEPKc
   fun:_ZN7testing8internal35HandleExceptionsInMethodIfSupportedINS_4TestEvEET0_PT_MS4_FS3_vEPKc
}
{
   <insert_a_suppression_name_here>
   Helgrind:Race
   fun:_ZNSt16_Sp_counted_baseILN9__gnu_cxx12_Lock_policyE2EE10_M_releaseEv
   fun:_ZNSt14__shared_countILN9__gnu_cxx12_Lock_policyE2EED1Ev
   fun:_ZNSt12__shared_ptrINSt13__future_base13_State_baseV2ELN9__gnu_cxx12_Lock_policyE2EED1Ev
   fun:_ZNSt10shared_ptrINSt13__future_base13_State_baseV2EED1Ev
   fun:_ZNSt14__basic_futureIvED1Ev
   fun:_ZNSt6futureIvED1Ev
   fun:_ZN2tf6FutureIvED1Ev
   fun:_ZN4mpcf15parallel_reduceIN9__gnu_cxx17__normal_iteratorIPKNS_3PcfIffEESt6vectorIS4_SaIS4_EEEEEENSt15iterator_traitsIT_E10value_typeESC_SC_St8functionIFNSE_10value_typeERKNSE_14rectangle_typeEEEmRNS_8ExecutorE
   fun:_ZN4mpcf7averageIffEENS_3PcfIT_T0_EERKSt6vectorIS4_SaIS4_EEm
   fun:_ZN12_GLOBAL__N_150PcfAlgebraAndNormsTest_AverageForSmallExample_TestIN4mpcf3PcfIffEEE8TestBodyEv
   fun:_ZN7testing8internal38HandleSehExceptionsInMethodIfSupportedINS_4TestEvEET0_PT_MS4_FS3_vEPKc
   fun:_ZN7testing8internal35HandleExceptionsInMethodIfSupportedINS_4TestEvEET0_PT_MS4_FS3_vEPKc
}
{
   <insert_a_suppression_name_here>
   Helgrind:Race
   fun:_ZNSt16_Sp_counted_baseILN9__gnu_cxx12_Lock_policyE2EE10_M_releaseEv
   fun:_ZNSt14__shared_countILN9__gnu_cxx12_Lock_policyE2EED1Ev
   fun:_ZNSt12__shared_ptrINSt13__future_base13_State_baseV2ELN9__gnu_cxx12_Lock_policyE2EED1Ev
   fun:_ZNSt10shared_ptrINSt13__future_base13_State_baseV2EED1Ev
   fun:_ZNSt14__basic_futureIvED1Ev
   fun:_ZNSt6futureIvED1Ev
   fun:_ZN2tf6FutureIvED1Ev
   fun:_ZN4mpcf15parallel_reduceIN9__gnu_cxx17__normal_iteratorIPKNS_3PcfIffEESt6vectorIS4_SaIS4_EEEEEENSt15iterator_traitsIT_E10value_typeESC_SC_St8functionIFNSE_10value_typeERKNSE_14rectangle_typeEEEmRNS_8ExecutorE
   fun:_ZN4mpcf7averageIffEENS_3PcfIT_T0_EERKSt6vectorIS4_SaIS4_EEm
   fun:_ZN12_GLOBAL__N_150PcfAlgebraAndNormsTest_AverageForSmallExample_TestIN4mpcf3PcfIffEEE8TestBodyEv
   fun:_ZN7testing8internal38HandleSehExceptionsInMethodIfSupportedINS_4TestEvEET0_PT_MS4_FS3_vEPKc
   fun:_ZN7testing8internal35HandleExceptionsInMethodIfSupportedINS_4TestEvEET0_PT_MS4_FS3_vEPKc
}
{
   <insert_a_suppression_name_here>
   Helgrind:Race
   fun:_ZNSt12_Vector_baseIN4mpcf5PointIffEESaIS2_EE17_Vector_impl_dataC1EOS5_
   fun:_ZNSt12_Vector_baseIN4mpcf5PointIffEESaIS2_EE12_Vector_implC1EOS5_
   fun:_ZNSt12_Vector_baseIN4mpcf5PointIffEESaIS2_EEC1EOS4_
   fun:_ZNSt6vectorIN4mpcf5PointIffEESaIS2_EEC1EOS4_
   fun:_ZN4mpcf3PcfIffEC1EOSt6vectorINS_5PointIffEESaIS4_EE
   fun:_ZN4mpcf15parallel_reduceIN9__gnu_cxx17__normal_iteratorIPKNS_3PcfIffEESt6vectorIS4_SaIS4_EEEEEENSt15iterator_traitsIT_E10value_typeESC_SC_St8functionIFNSE_10value_typeERKNSE_14rectangle_typeEEEmRNS_8ExecutorE
   fun:_ZN4mpcf7averageIffEENS_3PcfIT_T0_EERKSt6vectorIS4_SaIS4_EEm
   fun:_ZN12_GLOBAL__N_150PcfAlgebraAndNormsTest_AverageForSmallExample_TestIN4mpcf3PcfIffEEE8TestBodyEv
   fun:_ZN7testing8internal38HandleSehExceptionsInMethodIfSupportedINS_4TestEvEET0_PT_MS4_FS3_vEPKc
   fun:_ZN7testing8internal35HandleExceptionsInMethodIfSupportedINS_4TestEvEET0_PT_MS4_FS3_vEPKc
   fun:_ZN7testing4Test3RunEv
   fun:_ZN7testing8TestInfo3RunEv
}
{
   <insert_a_suppression_name_here>
   Helgrind:Race
   fun:_ZNSt12_Vector_baseIN4mpcf5PointIffEESaIS2_EE17_Vector_impl_dataC1EOS5_
   fun:_ZNSt12_Vector_baseIN4mpcf5PointIffEESaIS2_EE12_Vector_implC1EOS5_
   fun:_ZNSt12_Vector_baseIN4mpcf5PointIffEESaIS2_EEC1EOS4_
   fun:_ZNSt6vectorIN4mpcf5PointIffEESaIS2_EEC1EOS4_
   fun:_ZN4mpcf3PcfIffEC1EOSt6vectorINS_5PointIffEESaIS4_EE
   fun:_ZN4mpcf15parallel_reduceIN9__gnu_cxx17__normal_iteratorIPKNS_3PcfIffEESt6vectorIS4_SaIS4_EEEEEENSt15iterator_traitsIT_E10value_typeESC_SC_St8functionIFNSE_10value_typeERKNSE_14rectangle_typeEEEmRNS_8ExecutorE
   fun:_ZN4mpcf7averageIffEENS_3PcfIT_T0_EERKSt6vectorIS4_SaIS4_EEm
   fun:_ZN12_GLOBAL__N_150PcfAlgebraAndNormsTest_AverageForSmallExample_TestIN4mpcf3PcfIffEEE8TestBodyEv
   fun:_ZN7testing8internal38HandleSehExceptionsInMethodIfSupportedINS_4TestEvEET0_PT_MS4_FS3_vEPKc
   fun:_ZN7testing8internal35HandleExceptionsInMethodIfSupportedINS_4TestEvEET0_PT_MS4_FS3_vEPKc
   fun:_ZN7testing4Test3RunEv
   fun:_ZN7testing8TestInfo3RunEv
}
{
   <insert_a_suppression_name_here>
   Helgrind:Race
   fun:_ZNSt12_Vector_baseIN4mpcf5PointIffEESaIS2_EE17_Vector_impl_dataC1EOS5_
   fun:_ZNSt12_Vector_baseIN4mpcf5PointIffEESaIS2_EE12_Vector_implC1EOS5_
   fun:_ZNSt12_Vector_baseIN4mpcf5PointIffEESaIS2_EEC1EOS4_
   fun:_ZNSt6vectorIN4mpcf5PointIffEESaIS2_EEC1EOS4_
   fun:_ZN4mpcf3PcfIffEC1EOSt6vectorINS_5PointIffEESaIS4_EE
   fun:_ZN4mpcf15parallel_reduceIN9__gnu_cxx17__normal_iteratorIPKNS_3PcfIffEESt6vectorIS4_SaIS4_EEEEEENSt15iterator_traitsIT_E10value_typeESC_SC_St8functionIFNSE_10value_typeERKNSE_14rectangle_typeEEEmRNS_8ExecutorE
   fun:_ZN4mpcf7averageIffEENS_3PcfIT_T0_EERKSt6vectorIS4_SaIS4_EEm
   fun:_ZN12_GLOBAL__N_150PcfAlgebraAndNormsTest_AverageForSmallExample_TestIN4mpcf3PcfIffEEE8TestBodyEv
   fun:_ZN7testing8internal38HandleSehExceptionsInMethodIfSupportedINS_4TestEvEET0_PT_MS4_FS3_vEPKc
   fun:_ZN7testing8internal35HandleExceptionsInMethodIfSupportedINS_4TestEvEET0_PT_MS4_FS3_vEPKc
   fun:_ZN7testing4Test3RunEv
   fun:_ZN7testing8TestInfo3RunEv
}
{
   <insert_a_suppression_name_here>
   Helgrind:Race
   fun:_ZNSt12_Vector_baseIN4mpcf5PointIffEESaIS2_EE17_Vector_impl_dataC1EOS5_
   fun:_ZNSt12_Vector_baseIN4mpcf5PointIffEESaIS2_EE12_Vector_implC1EOS5_
   fun:_ZNSt12_Vector_baseIN4mpcf5PointIffEESaIS2_EEC1EOS4_
   fun:_ZNSt6vectorIN4mpcf5PointIffEESaIS2_EEC1EOS4_
   fun:_ZN4mpcf3PcfIffEC1EOSt6vectorINS_5PointIffEESaIS4_EE
   fun:_ZN4mpcf15parallel_reduceIN9__gnu_cxx17__normal_iteratorIPKNS_3PcfIffEESt6vectorIS4_SaIS4_EEEEEENSt15iterator_traitsIT_E10value_typeESC_SC_St8functionIFNSE_10value_typeERKNSE_14rectangle_typeEEEmRNS_8ExecutorE
   fun:_ZN4mpcf7averageIffEENS_3PcfIT_T0_EERKSt6vectorIS4_SaIS4_EEm
   fun:_ZN12_GLOBAL__N_150PcfAlgebraAndNormsTest_AverageForSmallExample_TestIN4mpcf3PcfIffEEE8TestBodyEv
   fun:_ZN7testing8internal38HandleSehExceptionsInMethodIfSupportedINS_4TestEvEET0_PT_MS4_FS3_vEPKc
   fun:_ZN7testing8internal35HandleExceptionsInMethodIfSupportedINS_4TestEvEET0_PT_MS4_FS3_vEPKc
   fun:_ZN7testing4Test3RunEv
   fun:_ZN7testing8TestInfo3RunEv
}
{
   <insert_a_suppression_name_here>
   Helgrind:Race
   fun:_ZNSt12_Vector_baseIN4mpcf5PointIffEESaIS2_EE17_Vector_impl_dataC1EOS5_
   fun:_ZNSt12_Vector_baseIN4mpcf5PointIffEESaIS2_EE12_Vector_implC1EOS5_
   fun:_ZNSt12_Vector_baseIN4mpcf5PointIffEESaIS2_EEC1EOS4_
   fun:_ZNSt6vectorIN4mpcf5PointIffEESaIS2_EEC1EOS4_
   fun:_ZN4mpcf3PcfIffEC1EOSt6vectorINS_5PointIffEESaIS4_EE
   fun:_ZN4mpcf15parallel_reduceIN9__gnu_cxx17__normal_iteratorIPKNS_3PcfIffEESt6vectorIS4_SaIS4_EEEEEENSt15iterator_traitsIT_E10value_typeESC_SC_St8functionIFNSE_10value_typeERKNSE_14rectangle_typeEEEmRNS_8ExecutorE
   fun:_ZN4mpcf7averageIffEENS_3PcfIT_T0_EERKSt6vectorIS4_SaIS4_EEm
   fun:_ZN12_GLOBAL__N_150PcfAlgebraAndNormsTest_AverageForSmallExample_TestIN4mpcf3PcfIffEEE8TestBodyEv
   fun:_ZN7testing8internal38HandleSehExceptionsInMethodIfSupportedINS_4TestEvEET0_PT_MS4_FS3_vEPKc
   fun:_ZN7testing8internal35HandleExceptionsInMethodIfSupportedINS_4TestEvEET0_PT_MS4_FS3_vEPKc
   fun:_ZN7testing4Test3RunEv
   fun:_ZN7testing8TestInfo3RunEv
}
{
   <insert_a_suppression_name_here>
   Helgrind:Race
   fun:_ZNSt12_Vector_baseIN4mpcf5PointIffEESaIS2_EE17_Vector_impl_dataC1EOS5_
   fun:_ZNSt12_Vector_baseIN4mpcf5PointIffEESaIS2_EE12_Vector_implC1EOS5_
   fun:_ZNSt12_Vector_baseIN4mpcf5PointIffEESaIS2_EEC1EOS4_
   fun:_ZNSt6vectorIN4mpcf5PointIffEESaIS2_EEC1EOS4_
   fun:_ZN4mpcf3PcfIffEC1EOSt6vectorINS_5PointIffEESaIS4_EE
   fun:_ZN4mpcf15parallel_reduceIN9__gnu_cxx17__normal_iteratorIPKNS_3PcfIffEESt6vectorIS4_SaIS4_EEEEEENSt15iterator_traitsIT_E10value_typeESC_SC_St8functionIFNSE_10value_typeERKNSE_14rectangle_typeEEEmRNS_8ExecutorE
   fun:_ZN4mpcf7averageIffEENS_3PcfIT_T0_EERKSt6vectorIS4_SaIS4_EEm
   fun:_ZN12_GLOBAL__N_150PcfAlgebraAndNormsTest_AverageForSmallExample_TestIN4mpcf3PcfIffEEE8TestBodyEv
   fun:_ZN7testing8internal38HandleSehExceptionsInMethodIfSupportedINS_4TestEvEET0_PT_MS4_FS3_vEPKc
   fun:_ZN7testing8internal35HandleExceptionsInMethodIfSupportedINS_4TestEvEET0_PT_MS4_FS3_vEPKc
   fun:_ZN7testing4Test3RunEv
   fun:_ZN7testing8TestInfo3RunEv
}
{
   <insert_a_suppression_name_here>
   Helgrind:Race
   fun:_ZNSt6vectorIN4mpcf5PointIffEESaIS2_EED1Ev
   fun:_ZN4mpcf11AccumulatorINS_3PcfIffEEED1Ev
   fun:_ZSt10destroy_atIN4mpcf11AccumulatorINS0_3PcfIffEEEEEvPT_
   fun:_ZSt8_DestroyIN4mpcf11AccumulatorINS0_3PcfIffEEEEEvPT_
   fun:_ZNSt12_Destroy_auxILb0EE9__destroyIPN4mpcf11AccumulatorINS2_3PcfIffEEEEEEvT_S8_
   fun:_ZSt8_DestroyIPN4mpcf11AccumulatorINS0_3PcfIffEEEEEvT_S6_
   fun:_Destroy<mpcf::Accumulator<mpcf::Pcf<float, float> >*, mpcf::Accumulator<mpcf::Pcf<float, float> > >
   fun:_ZNSt6vectorIN4mpcf11AccumulatorINS0_3PcfIffEEEESaIS4_EED1Ev
   fun:_ZN4mpcf15parallel_reduceIN9__gnu_cxx17__normal_iteratorIPKNS_3PcfIffEESt6vectorIS4_SaIS4_EEEEEENSt15iterator_traitsIT_E10value_typeESC_SC_St8functionIFNSE_10value_typeERKNSE_14rectangle_typeEEEmRNS_8ExecutorE
   fun:_ZN4mpcf7averageIffEENS_3PcfIT_T0_EERKSt6vectorIS4_SaIS4_EEm
   fun:_ZN12_GLOBAL__N_150PcfAlgebraAndNormsTest_AverageForSmallExample_TestIN4mpcf3PcfIffEEE8TestBodyEv
   fun:_ZN7testing8internal38HandleSehExceptionsInMethodIfSupportedINS_4TestEvEET0_PT_MS4_FS3_vEPKc
   fun:_ZN7testing8internal35HandleExceptionsInMethodIfSupportedINS_4TestEvEET0_PT_MS4_FS3_vEPKc
}
{
   <insert_a_suppression_name_here>
   Helgrind:Race
   fun:_ZNSt6vectorIN4mpcf5PointIffEESaIS2_EED1Ev
   fun:_ZN4mpcf11AccumulatorINS_3PcfIffEEED1Ev
   fun:_ZSt10destroy_atIN4mpcf11AccumulatorINS0_3PcfIffEEEEEvPT_
   fun:_ZSt8_DestroyIN4mpcf11AccumulatorINS0_3PcfIffEEEEEvPT_
   fun:_ZNSt12_Destroy_auxILb0EE9__destroyIPN4mpcf11AccumulatorINS2_3PcfIffEEEEEEvT_S8_
   fun:_ZSt8_DestroyIPN4mpcf11AccumulatorINS0_3PcfIffEEEEEvT_S6_
   fun:_Destroy<mpcf::Accumulator<mpcf::Pcf<float, float> >*, mpcf::Accumulator<mpcf::Pcf<float, float> > >
   fun:_ZNSt6vectorIN4mpcf11AccumulatorINS0_3PcfIffEEEESaIS4_EED1Ev
   fun:_ZN4mpcf15parallel_reduceIN9__gnu_cxx17__normal_iteratorIPKNS_3PcfIffEESt6vectorIS4_SaIS4_EEEEEENSt15iterator_traitsIT_E10value_typeESC_SC_St8functionIFNSE_10value_typeERKNSE_14rectangle_typeEEEmRNS_8ExecutorE
   fun:_ZN4mpcf7averageIffEENS_3PcfIT_T0_EERKSt6vectorIS4_SaIS4_EEm
   fun:_ZN12_GLOBAL__N_150PcfAlgebraAndNormsTest_AverageForSmallExample_TestIN4mpcf3PcfIffEEE8TestBodyEv
   fun:_ZN7testing8internal38HandleSehExceptionsInMethodIfSupportedINS_4TestEvEET0_PT_MS4_FS3_vEPKc
   fun:_ZN7testing8internal35HandleExceptionsInMethodIfSupportedINS_4TestEvEET0_PT_MS4_FS3_vEPKc
}
{
   <insert_a_suppression_name_here>
   Helgrind:Race
   fun:_ZNSt12_Vector_baseIN4mpcf5PointIffEESaIS2_EED1Ev
   fun:_ZNSt6vectorIN4mpcf5PointIffEESaIS2_EED1Ev
   fun:_ZN4mpcf11AccumulatorINS_3PcfIffEEED1Ev
   fun:_ZSt10destroy_atIN4mpcf11AccumulatorINS0_3PcfIffEEEEEvPT_
   fun:_ZSt8_DestroyIN4mpcf11AccumulatorINS0_3PcfIffEEEEEvPT_
   fun:_ZNSt12_Destroy_auxILb0EE9__destroyIPN4mpcf11AccumulatorINS2_3PcfIffEEEEEEvT_S8_
   fun:_ZSt8_DestroyIPN4mpcf11AccumulatorINS0_3PcfIffEEEEEvT_S6_
   fun:_Destroy<mpcf::Accumulator<mpcf::Pcf<float, float> >*, mpcf::Accumulator<mpcf::Pcf<float, float> > >
   fun:_ZNSt6vectorIN4mpcf11AccumulatorINS0_3PcfIffEEEESaIS4_EED1Ev
   fun:_ZN4mpcf15parallel_reduceIN9__gnu_cxx17__normal_iteratorIPKNS_3PcfIffEESt6vectorIS4_SaIS4_EEEEEENSt15iterator_traitsIT_E10value_typeESC_SC_St8functionIFNSE_10value_typeERKNSE_14rectangle_typeEEEmRNS_8ExecutorE
   fun:_ZN4mpcf7averageIffEENS_3PcfIT_T0_EERKSt6vectorIS4_SaIS4_EEm
   fun:_ZN12_GLOBAL__N_150PcfAlgebraAndNormsTest_AverageForSmallExample_TestIN4mpcf3PcfIffEEE8TestBodyEv
   fun:_ZN7testing8internal38HandleSehExceptionsInMethodIfSupportedINS_4TestEvEET0_PT_MS4_FS3_vEPKc
}
{
   <insert_a_suppression_name_here>
   Helgrind:Race
   fun:_ZNSt14_Function_baseD1Ev
   obj:*
   fun:_ZN4mpcf7averageIffEENS_3PcfIT_T0_EERKSt6vectorIS4_SaIS4_EEm
   fun:_ZN12_GLOBAL__N_150PcfAlgebraAndNormsTest_AverageForSmallExample_TestIN4mpcf3PcfIffEEE8TestBodyEv
   fun:_ZN7testing8internal38HandleSehExceptionsInMethodIfSupportedINS_4TestEvEET0_PT_MS4_FS3_vEPKc
   fun:_ZN7testing8internal35HandleExceptionsInMethodIfSupportedINS_4TestEvEET0_PT_MS4_FS3_vEPKc
   fun:_ZN7testing4Test3RunEv
   fun:_ZN7testing8TestInfo3RunEv
   fun:_ZN7testing9TestSuite3RunEv
   fun:_ZN7testing8internal12UnitTestImpl11RunAllTestsEv
   fun:_ZN7testing8internal38HandleSehExceptionsInMethodIfSupportedINS0_12UnitTestImplEbEET0_PT_MS4_FS3_vEPKc
   fun:_ZN7testing8internal35HandleExceptionsInMethodIfSupportedINS0_12UnitTestImplEbEET0_PT_MS4_FS3_vEPKc
}
{
   <insert_a_suppression_name_here>
   Helgrind:Race
   fun:_ZNSt14_Function_baseD1Ev
   fun:_ZNSt8functionIFfRKN4mpcf9RectangleIffEEEED1Ev
   fun:_ZN4mpcf7averageIffEENS_3PcfIT_T0_EERKSt6vectorIS4_SaIS4_EEm
   fun:_ZN12_GLOBAL__N_150PcfAlgebraAndNormsTest_AverageForSmallExample_TestIN4mpcf3PcfIffEEE8TestBodyEv
   fun:_ZN7testing8internal38HandleSehExceptionsInMethodIfSupportedINS_4TestEvEET0_PT_MS4_FS3_vEPKc
   fun:_ZN7testing8internal35HandleExceptionsInMethodIfSupportedINS_4TestEvEET0_PT_MS4_FS3_vEPKc
   fun:_ZN7testing4Test3RunEv
   fun:_ZN7testing8TestInfo3RunEv
   fun:_ZN7testing9TestSuite3RunEv
   fun:_ZN7testing8internal12UnitTestImpl11RunAllTestsEv
   fun:_ZN7testing8internal38HandleSehExceptionsInMethodIfSupportedINS0_12UnitTestImplEbEET0_PT_MS4_FS3_vEPKc
   fun:_ZN7testing8internal35HandleExceptionsInMethodIfSupportedINS0_12UnitTestImplEbEET0_PT_MS4_FS3_vEPKc
}
{
   <insert_a_suppression_name_here>
   Helgrind:Race
   fun:_ZNSt17_Function_handlerIFfRKN4mpcf9RectangleIffEEEZNS0_7averageIffEENS0_3PcfIT_T0_EERKSt6vectorISA_SaISA_EEmEUlS4_E_E10_M_managerERSt9_Any_dataRKSI_St18_Manager_operation
   obj:*
   fun:_ZNSt8functionIFfRKN4mpcf9RectangleIffEEEED1Ev
   fun:_ZN4mpcf7averageIffEENS_3PcfIT_T0_EERKSt6vectorIS4_SaIS4_EEm
   fun:_ZN12_GLOBAL__N_150PcfAlgebraAndNormsTest_AverageForSmallExample_TestIN4mpcf3PcfIffEEE8TestBodyEv
   fun:_ZN7testing8internal38HandleSehExceptionsInMethodIfSupportedINS_4TestEvEET0_PT_MS4_FS3_vEPKc
   fun:_ZN7testing8internal35HandleExceptionsInMethodIfSupportedINS_4TestEvEET0_PT_MS4_FS3_vEPKc
   fun:_ZN7testing4Test3RunEv
   fun:_ZN7testing8TestInfo3RunEv
   fun:_ZN7testing9TestSuite3RunEv
   fun:_ZN7testing8internal12UnitTestImpl11RunAllTestsEv
   fun:_ZN7testing8internal38HandleSehExceptionsInMethodIfSupportedINS0_12UnitTestImplEbEET0_PT_MS4_FS3_vEPKc
}
{
   <insert_a_suppression_name_here>
   Helgrind:Race
   fun:_ZNSt17_Function_handlerIFfRKN4mpcf9RectangleIffEEEZNS0_7averageIffEENS0_3PcfIT_T0_EERKSt6vectorISA_SaISA_EEmEUlS4_E_E10_M_managerERSt9_Any_dataRKSI_St18_Manager_operation
   fun:_ZNSt14_Function_baseD1Ev
   fun:_ZNSt8functionIFfRKN4mpcf9RectangleIffEEEED1Ev
   fun:_ZN4mpcf7averageIffEENS_3PcfIT_T0_EERKSt6vectorIS4_SaIS4_EEm
   fun:_ZN12_GLOBAL__N_150PcfAlgebraAndNormsTest_AverageForSmallExample_TestIN4mpcf3PcfIffEEE8TestBodyEv
   fun:_ZN7testing8internal38HandleSehExceptionsInMethodIfSupportedINS_4TestEvEET0_PT_MS4_FS3_vEPKc
   fun:_ZN7testing8internal35HandleExceptionsInMethodIfSupportedINS_4TestEvEET0_PT_MS4_FS3_vEPKc
   fun:_ZN7testing4Test3RunEv
   fun:_ZN7testing8TestInfo3RunEv
   fun:_ZN7testing9TestSuite3RunEv
   fun:_ZN7testing8internal12UnitTestImpl11RunAllTestsEv
   fun:_ZN7testing8internal38HandleSehExceptionsInMethodIfSupportedINS0_12UnitTestImplEbEET0_PT_MS4_FS3_vEPKc
}
{
   <insert_a_suppression_name_here>
   Helgrind:Race
   fun:_ZNSt17_Function_handlerIFfRKN4mpcf9RectangleIffEEEZNS0_7averageIffEENS0_3PcfIT_T0_EERKSt6vectorISA_SaISA_EEmEUlS4_E_E10_M_managerERSt9_Any_dataRKSI_St18_Manager_operation
   fun:_ZNSt14_Function_baseD1Ev
   fun:_ZNSt8functionIFfRKN4mpcf9RectangleIffEEEED1Ev
   fun:_ZN4mpcf7averageIffEENS_3PcfIT_T0_EERKSt6vectorIS4_SaIS4_EEm
   fun:_ZN12_GLOBAL__N_150PcfAlgebraAndNormsTest_AverageForSmallExample_TestIN4mpcf3PcfIffEEE8TestBodyEv
   fun:_ZN7testing8internal38HandleSehExceptionsInMethodIfSupportedINS_4TestEvEET0_PT_MS4_FS3_vEPKc
   fun:_ZN7testing8internal35HandleExceptionsInMethodIfSupportedINS_4TestEvEET0_PT_MS4_FS3_vEPKc
   fun:_ZN7testing4Test3RunEv
   fun:_ZN7testing8TestInfo3RunEv
   fun:_ZN7testing9TestSuite3RunEv
   fun:_ZN7testing8internal12UnitTestImpl11RunAllTestsEv
   fun:_ZN7testing8internal38HandleSehExceptionsInMethodIfSupportedINS0_12UnitTestImplEbEET0_PT_MS4_FS3_vEPKc
}
{
   <insert_a_suppression_name_here>
   Helgrind:Race
   fun:_ZN4mpcf3PcfIffEC1ERKS1_
   obj:*
   fun:_ZN4mpcf7averageIffEENS_3PcfIT_T0_EERKSt6vectorIS4_SaIS4_EEm
   fun:_ZN12_GLOBAL__N_150PcfAlgebraAndNormsTest_AverageForSmallExample_TestIN4mpcf3PcfIffEEE8TestBodyEv
   fun:_ZN7testing8internal38HandleSehExceptionsInMethodIfSupportedINS_4TestEvEET0_PT_MS4_FS3_vEPKc
   fun:_ZN7testing8internal35HandleExceptionsInMethodIfSupportedINS_4TestEvEET0_PT_MS4_FS3_vEPKc
   fun:_ZN7testing4Test3RunEv
   fun:_ZN7testing8TestInfo3RunEv
   fun:_ZN7testing9TestSuite3RunEv
   fun:_ZN7testing8internal12UnitTestImpl11RunAllTestsEv
   fun:_ZN7testing8internal38HandleSehExceptionsInMethodIfSupportedINS0_12UnitTestImplEbEET0_PT_MS4_FS3_vEPKc
   fun:_ZN7testing8internal35HandleExceptionsInMethodIfSupportedINS0_12UnitTestImplEbEET0_PT_MS4_FS3_vEPKc
}
{
   <insert_a_suppression_name_here>
   Helgrind:Race
   fun:_ZNSt6vectorIN4mpcf5PointIffEESaIS2_EEC1ERKS4_
   obj:*
   fun:_ZN4mpcfdvIfffEENS_3PcfIT_T0_EERKS4_T1_
   fun:_ZN4mpcf7averageIffEENS_3PcfIT_T0_EERKSt6vectorIS4_SaIS4_EEm
   fun:_ZN12_GLOBAL__N_150PcfAlgebraAndNormsTest_AverageForSmallExample_TestIN4mpcf3PcfIffEEE8TestBodyEv
   fun:_ZN7testing8internal38HandleSehExceptionsInMethodIfSupportedINS_4TestEvEET0_PT_MS4_FS3_vEPKc
   fun:_ZN7testing8internal35HandleExceptionsInMethodIfSupportedINS_4TestEvEET0_PT_MS4_FS3_vEPKc
   fun:_ZN7testing4Test3RunEv
   fun:_ZN7testing8TestInfo3RunEv
   fun:_ZN7testing9TestSuite3RunEv
   fun:_ZN7testing8internal12UnitTestImpl11RunAllTestsEv
   fun:_ZN7testing8internal38HandleSehExceptionsInMethodIfSupportedINS0_12UnitTestImplEbEET0_PT_MS4_FS3_vEPKc
}
{
   <insert_a_suppression_name_here>
   Helgrind:Race
   fun:_ZSt10_ConstructIN4mpcf5PointIffEEJRKS2_EEvPT_DpOT0_
   fun:_ZSt16__do_uninit_copyIN9__gnu_cxx17__normal_iteratorIPKN4mpcf5PointIffEESt6vectorIS4_SaIS4_EEEEPS4_ET0_T_SD_SC_
   fun:_ZNSt20__uninitialized_copyILb0EE13__uninit_copyIN9__gnu_cxx17__normal_iteratorIPKN4mpcf5PointIffEESt6vectorIS6_SaIS6_EEEEPS6_EET0_T_SF_SE_
   fun:_ZSt18uninitialized_copyIN9__gnu_cxx17__normal_iteratorIPKN4mpcf5PointIffEESt6vectorIS4_SaIS4_EEEEPS4_ET0_T_SD_SC_
   fun:_ZSt22__uninitialized_copy_aIN9__gnu_cxx17__normal_iteratorIPKN4mpcf5PointIffEESt6vectorIS4_SaIS4_EEEEPS4_S4_ET0_T_SD_SC_RSaIT1_E
   fun:_ZNSt6vectorIN4mpcf5PointIffEESaIS2_EEC1ERKS4_
   fun:_ZN4mpcf3PcfIffEC1ERKS1_
   fun:_ZN4mpcfdvIfffEENS_3PcfIT_T0_EERKS4_T1_
   fun:_ZN4mpcf7averageIffEENS_3PcfIT_T0_EERKSt6vectorIS4_SaIS4_EEm
   fun:_ZN12_GLOBAL__N_150PcfAlgebraAndNormsTest_AverageForSmallExample_TestIN4mpcf3PcfIffEEE8TestBodyEv
   fun:_ZN7testing8internal38HandleSehExceptionsInMethodIfSupportedINS_4TestEvEET0_PT_MS4_FS3_vEPKc
   fun:_ZN7testing8internal35HandleExceptionsInMethodIfSupportedINS_4TestEvEET0_PT_MS4_FS3_vEPKc
}
{
   <insert_a_suppression_name_here>
   Helgrind:Race
   fun:_ZNKSt7variantIJSt8functionIFvvEES0_IFvRN2tf7RuntimeEEES0_IFvS5_bEEEE5indexEv
   fun:_ZN2tf8Executor18_invoke_async_taskERNS_6WorkerEPNS_4NodeE
   fun:_ZN2tf8Executor7_invokeERNS_6WorkerEPNS_4NodeE
   fun:_ZN2tf8Executor13_exploit_taskERNS_6WorkerERPNS_4NodeE
   fun:_ZZN2tf8Executor6_spawnEmSt10shared_ptrINS_15WorkerInterfaceEEENKUlvE_clEv
   fun:_ZSt13__invoke_implIvZN2tf8Executor6_spawnEmSt10shared_ptrINS0_15WorkerInterfaceEEEUlvE_JEET_St14__invoke_otherOT0_DpOT1_
   fun:_ZSt8__invokeIZN2tf8Executor6_spawnEmSt10shared_ptrINS0_15WorkerInterfaceEEEUlvE_JEENSt15__invoke_resultIT_JDpT0_EE4typeEOS7_DpOS8_
   fun:_ZNSt6thread8_InvokerISt5tupleIJZN2tf8Executor6_spawnEmSt10shared_ptrINS2_15WorkerInterfaceEEEUlvE_EEE9_M_invokeIJLm0EEEEvSt12_Index_tupleIJXspT_EEE
   fun:_ZNSt6thread8_InvokerISt5tupleIJZN2tf8Executor6_spawnEmSt10shared_ptrINS2_15WorkerInterfaceEEEUlvE_EEEclEv
   fun:_ZNSt6thread11_State_implINS_8_InvokerISt5tupleIJZN2tf8Executor6_spawnEmSt10shared_ptrINS3_15WorkerInterfaceEEEUlvE_EEEEE6_M_runEv
   obj:/usr/lib/x86_64-linux-gnu/libstdc++.so.6.0.33
   obj:/usr/libexec/valgrind/vgpreload_helgrind-amd64-linux.so
}
{
   <insert_a_suppression_name_here>
   Helgrind:Race
   fun:_ZN2tf8Executor25_invoke_runtime_task_implERNS_6WorkerEPNS_4NodeERSt8functionIFvRNS_7RuntimeEEE
   fun:_ZN2tf8Executor18_invoke_async_taskERNS_6WorkerEPNS_4NodeE
   fun:_ZN2tf8Executor7_invokeERNS_6WorkerEPNS_4NodeE
   fun:_ZN2tf8Executor13_exploit_taskERNS_6WorkerERPNS_4NodeE
   fun:_ZZN2tf8Executor6_spawnEmSt10shared_ptrINS_15WorkerInterfaceEEENKUlvE_clEv
   fun:_ZSt13__invoke_implIvZN2tf8Executor6_spawnEmSt10shared_ptrINS0_15WorkerInterfaceEEEUlvE_JEET_St14__invoke_otherOT0_DpOT1_
   fun:_ZSt8__invokeIZN2tf8Executor6_spawnEmSt10shared_ptrINS0_15WorkerInterfaceEEEUlvE_JEENSt15__invoke_resultIT_JDpT0_EE4typeEOS7_DpOS8_
   fun:_ZNSt6thread8_InvokerISt5tupleIJZN2tf8Executor6_spawnEmSt10shared_ptrINS2_15WorkerInterfaceEEEUlvE_EEE9_M_invokeIJLm0EEEEvSt12_Index_tupleIJXspT_EEE
   fun:_ZNSt6thread8_InvokerISt5tupleIJZN2tf8Executor6_spawnEmSt10shared_ptrINS2_15WorkerInterfaceEEEUlvE_EEEclEv
   fun:_ZNSt6thread11_State_implINS_8_InvokerISt5tupleIJZN2tf8Executor6_spawnEmSt10shared_ptrINS3_15WorkerInterfaceEEEUlvE_EEEEE6_M_runEv
   obj:/usr/lib/x86_64-linux-gnu/libstdc++.so.6.0.33
   obj:/usr/libexec/valgrind/vgpreload_helgrind-amd64-linux.so
}
{
   <insert_a_suppression_name_here>
   Helgrind:Race
   fun:fetch_add
   fun:_ZN2tf8Executor25_invoke_runtime_task_implERNS_6WorkerEPNS_4NodeERSt8functionIFvRNS_7RuntimeEEE
   fun:_ZN2tf8Executor18_invoke_async_taskERNS_6WorkerEPNS_4NodeE
   fun:_ZN2tf8Executor7_invokeERNS_6WorkerEPNS_4NodeE
   fun:_ZN2tf8Executor13_exploit_taskERNS_6WorkerERPNS_4NodeE
   fun:_ZZN2tf8Executor6_spawnEmSt10shared_ptrINS_15WorkerInterfaceEEENKUlvE_clEv
   fun:_ZSt13__invoke_implIvZN2tf8Executor6_spawnEmSt10shared_ptrINS0_15WorkerInterfaceEEEUlvE_JEET_St14__invoke_otherOT0_DpOT1_
   fun:_ZSt8__invokeIZN2tf8Executor6_spawnEmSt10shared_ptrINS0_15WorkerInterfaceEEEUlvE_JEENSt15__invoke_resultIT_JDpT0_EE4typeEOS7_DpOS8_
   fun:_ZNSt6thread8_InvokerISt5tupleIJZN2tf8Executor6_spawnEmSt10shared_ptrINS2_15WorkerInterfaceEEEUlvE_EEE9_M_invokeIJLm0EEEEvSt12_Index_tupleIJXspT_EEE
   fun:_ZNSt6thread8_InvokerISt5tupleIJZN2tf8Executor6_spawnEmSt10shared_ptrINS2_15WorkerInterfaceEEEUlvE_EEEclEv
   fun:_ZNSt6thread11_State_implINS_8_InvokerISt5tupleIJZN2tf8Executor6_spawnEmSt10shared_ptrINS3_15WorkerInterfaceEEEUlvE_EEEEE6_M_runEv
   obj:/usr/lib/x86_64-linux-gnu/libstdc++.so.6.0.33
   obj:/usr/libexec/valgrind/vgpreload_helgrind-amd64-linux.so
}
{
   <insert_a_suppression_name_here>
   Helgrind:Race
   fun:_ZNKSt14_Function_base8_M_emptyEv
   fun:_ZNKSt8functionIFvRN2tf7RuntimeEEEclES2_
   fun:_ZN2tf8Executor25_invoke_runtime_task_implERNS_6WorkerEPNS_4NodeERSt8functionIFvRNS_7RuntimeEEE
   fun:_ZN2tf8Executor18_invoke_async_taskERNS_6WorkerEPNS_4NodeE
   fun:_ZN2tf8Executor7_invokeERNS_6WorkerEPNS_4NodeE
   fun:_ZN2tf8Executor13_exploit_taskERNS_6WorkerERPNS_4NodeE
   fun:_ZZN2tf8Executor6_spawnEmSt10shared_ptrINS_15WorkerInterfaceEEENKUlvE_clEv
   fun:_ZSt13__invoke_implIvZN2tf8Executor6_spawnEmSt10shared_ptrINS0_15WorkerInterfaceEEEUlvE_JEET_St14__invoke_otherOT0_DpOT1_
   fun:_ZSt8__invokeIZN2tf8Executor6_spawnEmSt10shared_ptrINS0_15WorkerInterfaceEEEUlvE_JEENSt15__invoke_resultIT_JDpT0_EE4typeEOS7_DpOS8_
   fun:_ZNSt6thread8_InvokerISt5tupleIJZN2tf8Executor6_spawnEmSt10shared_ptrINS2_15WorkerInterfaceEEEUlvE_EEE9_M_invokeIJLm0EEEEvSt12_Index_tupleIJXspT_EEE
   fun:_ZNSt6thread8_InvokerISt5tupleIJZN2tf8Executor6_spawnEmSt10shared_ptrINS2_15WorkerInterfaceEEEUlvE_EEEclEv
   fun:_ZNSt6thread11_State_implINS_8_InvokerISt5tupleIJZN2tf8Executor6_spawnEmSt10shared_ptrINS3_15WorkerInterfaceEEEUlvE_EEEEE6_M_runEv
}
{
   <insert_a_suppression_name_here>
   Helgrind:Race
   fun:_ZNKSt8functionIFvRN2tf7RuntimeEEEclES2_
   fun:_ZN2tf8Executor25_invoke_runtime_task_implERNS_6WorkerEPNS_4NodeERSt8functionIFvRNS_7RuntimeEEE
   fun:_ZN2tf8Executor18_invoke_async_taskERNS_6WorkerEPNS_4NodeE
   fun:_ZN2tf8Executor7_invokeERNS_6WorkerEPNS_4NodeE
   fun:_ZN2tf8Executor13_exploit_taskERNS_6WorkerERPNS_4NodeE
   fun:_ZZN2tf8Executor6_spawnEmSt10shared_ptrINS_15WorkerInterfaceEEENKUlvE_clEv
   fun:_ZSt13__invoke_implIvZN2tf8Executor6_spawnEmSt10shared_ptrINS0_15WorkerInterfaceEEEUlvE_JEET_St14__invoke_otherOT0_DpOT1_
   fun:_ZSt8__invokeIZN2tf8Executor6_spawnEmSt10shared_ptrINS0_15WorkerInterfaceEEEUlvE_JEENSt15__invoke_resultIT_JDpT0_EE4typeEOS7_DpOS8_
   fun:_ZNSt6thread8_InvokerISt5tupleIJZN2tf8Executor6_spawnEmSt10shared_ptrINS2_15WorkerInterfaceEEEUlvE_EEE9_M_invokeIJLm0EEEEvSt12_Index_tupleIJXspT_EEE
   fun:_ZNSt6thread8_InvokerISt5tupleIJZN2tf8Executor6_spawnEmSt10shared_ptrINS2_15WorkerInterfaceEEEUlvE_EEEclEv
   fun:_ZNSt6thread11_State_implINS_8_InvokerISt5tupleIJZN2tf8Executor6_spawnEmSt10shared_ptrINS3_15WorkerInterfaceEEEUlvE_EEEEE6_M_runEv
   obj:/usr/lib/x86_64-linux-gnu/libstdc++.so.6.0.33
}
{
   <insert_a_suppression_name_here>
   Helgrind:Race
   fun:_ZNSt14_Function_base13_Base_managerIZN2tf8Executor9run_untilIZNS2_5run_nIZNS2_3runEONS1_8TaskflowEEUlvE_EENS1_6FutureIvEES6_mOT_EUlvE_S7_EES9_S6_SB_OT0_EUlRNS1_7RuntimeEE_E14_M_get_pointerERKSt9_Any_data
   fun:_ZNSt17_Function_handlerIFvRN2tf7RuntimeEEZNS0_8Executor9run_untilIZNS4_5run_nIZNS4_3runEONS0_8TaskflowEEUlvE_EENS0_6FutureIvEES8_mOT_EUlvE_S9_EESB_S8_SD_OT0_EUlS2_E_E9_M_invokeERKSt9_Any_dataS2_
   fun:_ZNKSt8functionIFvRN2tf7RuntimeEEEclES2_
   fun:_ZN2tf8Executor25_invoke_runtime_task_implERNS_6WorkerEPNS_4NodeERSt8functionIFvRNS_7RuntimeEEE
   fun:_ZN2tf8Executor18_invoke_async_taskERNS_6WorkerEPNS_4NodeE
   fun:_ZN2tf8Executor7_invokeERNS_6WorkerEPNS_4NodeE
   fun:_ZN2tf8Executor13_exploit_taskERNS_6WorkerERPNS_4NodeE
   fun:_ZZN2tf8Executor6_spawnEmSt10shared_ptrINS_15WorkerInterfaceEEENKUlvE_clEv
   fun:_ZSt13__invoke_implIvZN2tf8Executor6_spawnEmSt10shared_ptrINS0_15WorkerInterfaceEEEUlvE_JEET_St14__invoke_otherOT0_DpOT1_
   fun:_ZSt8__invokeIZN2tf8Executor6_spawnEmSt10shared_ptrINS0_15WorkerInterfaceEEEUlvE_JEENSt15__invoke_resultIT_JDpT0_EE4typeEOS7_DpOS8_
   fun:_ZNSt6thread8_InvokerISt5tupleIJZN2tf8Executor6_spawnEmSt10shared_ptrINS2_15WorkerInterfaceEEEUlvE_EEE9_M_invokeIJLm0EEEEvSt12_Index_tupleIJXspT_EEE
   fun:_ZNSt6thread8_InvokerISt5tupleIJZN2tf8Executor6_spawnEmSt10shared_ptrINS2_15WorkerInterfaceEEEUlvE_EEEclEv
}
{
   <insert_a_suppression_name_here>
   Helgrind:Race
   fun:_ZNKSt12__shared_ptrIN2tf8TopologyELN9__gnu_cxx12_Lock_policyE2EE3getEv
   fun:_ZNKSt19__shared_ptr_accessIN2tf8TopologyELN9__gnu_cxx12_Lock_policyE2ELb0ELb0EE6_M_getEv
   fun:_ZNKSt19__shared_ptr_accessIN2tf8TopologyELN9__gnu_cxx12_Lock_policyE2ELb0ELb0EEptEv
   fun:_ZZN2tf8Executor9run_untilIZNS0_5run_nIZNS0_3runEONS_8TaskflowEEUlvE_EENS_6FutureIvEES4_mOT_EUlvE_S5_EES7_S4_S9_OT0_ENUlRNS_7RuntimeEE_clESE_
   fun:_ZSt13__invoke_implIvRZN2tf8Executor9run_untilIZNS1_5run_nIZNS1_3runEONS0_8TaskflowEEUlvE_EENS0_6FutureIvEES5_mOT_EUlvE_S6_EES8_S5_SA_OT0_EUlRNS0_7RuntimeEE_JSF_EES9_St14__invoke_otherSD_DpOT1_
   fun:_ZSt10__invoke_rIvRZN2tf8Executor9run_untilIZNS1_5run_nIZNS1_3runEONS0_8TaskflowEEUlvE_EENS0_6FutureIvEES5_mOT_EUlvE_S6_EES8_S5_SA_OT0_EUlRNS0_7RuntimeEE_JSF_EENSt9enable_ifIX16is_invocable_r_vIS9_SC_DpT1_EES9_E4typeESD_DpOSJ_
   fun:_ZNSt17_Function_handlerIFvRN2tf7RuntimeEEZNS0_8Executor9run_untilIZNS4_5run_nIZNS4_3runEONS0_8TaskflowEEUlvE_EENS0_6FutureIvEES8_mOT_EUlvE_S9_EESB_S8_SD_OT0_EUlS2_E_E9_M_invokeERKSt9_Any_dataS2_
   fun:_ZNKSt8functionIFvRN2tf7RuntimeEEEclES2_
   fun:_ZN2tf8Executor25_invoke_runtime_task_implERNS_6WorkerEPNS_4NodeERSt8functionIFvRNS_7RuntimeEEE
   fun:_ZN2tf8Executor18_invoke_async_taskERNS_6WorkerEPNS_4NodeE
   fun:_ZN2tf8Executor7_invokeERNS_6WorkerEPNS_4NodeE
   fun:_ZN2tf8Executor13_exploit_taskERNS_6WorkerERPNS_4NodeE
}
{
   <insert_a_suppression_name_here>
   Helgrind:Race
   fun:_ZZN2tf8Executor9run_untilIZNS0_5run_nIZNS0_3runEONS_8TaskflowEEUlvE_EENS_6FutureIvEES4_mOT_EUlvE_S5_EES7_S4_S9_OT0_ENUlRNS_7RuntimeEE_clESE_
   fun:_ZSt13__invoke_implIvRZN2tf8Executor9run_untilIZNS1_5run_nIZNS1_3runEONS0_8TaskflowEEUlvE_EENS0_6FutureIvEES5_mOT_EUlvE_S6_EES8_S5_SA_OT0_EUlRNS0_7RuntimeEE_JSF_EES9_St14__invoke_otherSD_DpOT1_
   fun:_ZSt10__invoke_rIvRZN2tf8Executor9run_untilIZNS1_5run_nIZNS1_3runEONS0_8TaskflowEEUlvE_EENS0_6FutureIvEES5_mOT_EUlvE_S6_EES8_S5_SA_OT0_EUlRNS0_7RuntimeEE_JSF_EENSt9enable_ifIX16is_invocable_r_vIS9_SC_DpT1_EES9_E4typeESD_DpOSJ_
   fun:_ZNSt17_Function_handlerIFvRN2tf7RuntimeEEZNS0_8Executor9run_untilIZNS4_5run_nIZNS4_3runEONS0_8TaskflowEEUlvE_EENS0_6FutureIvEES8_mOT_EUlvE_S9_EESB_S8_SD_OT0_EUlS2_E_E9_M_invokeERKSt9_Any_dataS2_
   fun:_ZNKSt8functionIFvRN2tf7RuntimeEEEclES2_
   fun:_ZN2tf8Executor25_invoke_runtime_task_implERNS_6WorkerEPNS_4NodeERSt8functionIFvRNS_7RuntimeEEE
   fun:_ZN2tf8Executor18_invoke_async_taskERNS_6WorkerEPNS_4NodeE
   fun:_ZN2tf8Executor7_invokeERNS_6WorkerEPNS_4NodeE
   fun:_ZN2tf8Executor13_exploit_taskERNS_6WorkerERPNS_4NodeE
   fun:_ZZN2tf8Executor6_spawnEmSt10shared_ptrINS_15WorkerInterfaceEEENKUlvE_clEv
   fun:_ZSt13__invoke_implIvZN2tf8Executor6_spawnEmSt10shared_ptrINS0_15WorkerInterfaceEEEUlvE_JEET_St14__invoke_otherOT0_DpOT1_
   fun:_ZSt8__invokeIZN2tf8Executor6_spawnEmSt10shared_ptrINS0_15WorkerInterfaceEEEUlvE_JEENSt15__invoke_resultIT_JDpT0_EE4typeEOS7_DpOS8_
}
{
   <insert_a_suppression_name_here>
   Helgrind:Race
   fun:_ZNKSt15__uniq_ptr_implIN2tf8TaskflowESt14default_deleteIS1_EE6_M_ptrEv
   fun:_ZNKSt10unique_ptrIN2tf8TaskflowESt14default_deleteIS1_EE3getEv
   fun:_ZNKSt10unique_ptrIN2tf8TaskflowESt14default_deleteIS1_EEptEv
   fun:_ZZN2tf8Executor9run_untilIZNS0_5run_nIZNS0_3runEONS_8TaskflowEEUlvE_EENS_6FutureIvEES4_mOT_EUlvE_S5_EES7_S4_S9_OT0_ENUlRNS_7RuntimeEE_clESE_
   fun:_ZSt13__invoke_implIvRZN2tf8Executor9run_untilIZNS1_5run_nIZNS1_3runEONS0_8TaskflowEEUlvE_EENS0_6FutureIvEES5_mOT_EUlvE_S6_EES8_S5_SA_OT0_EUlRNS0_7RuntimeEE_JSF_EES9_St14__invoke_otherSD_DpOT1_
   fun:_ZSt10__invoke_rIvRZN2tf8Executor9run_untilIZNS1_5run_nIZNS1_3runEONS0_8TaskflowEEUlvE_EENS0_6FutureIvEES5_mOT_EUlvE_S6_EES8_S5_SA_OT0_EUlRNS0_7RuntimeEE_JSF_EENSt9enable_ifIX16is_invocable_r_vIS9_SC_DpT1_EES9_E4typeESD_DpOSJ_
   fun:_ZNSt17_Function_handlerIFvRN2tf7RuntimeEEZNS0_8Executor9run_untilIZNS4_5run_nIZNS4_3runEONS0_8TaskflowEEUlvE_EENS0_6FutureIvEES8_mOT_EUlvE_S9_EESB_S8_SD_OT0_EUlS2_E_E9_M_invokeERKSt9_Any_dataS2_
   fun:_ZNKSt8functionIFvRN2tf7RuntimeEEEclES2_
   fun:_ZN2tf8Executor25_invoke_runtime_task_implERNS_6WorkerEPNS_4NodeERSt8functionIFvRNS_7RuntimeEEE
   fun:_ZN2tf8Executor18_invoke_async_taskERNS_6WorkerEPNS_4NodeE
   fun:_ZN2tf8Executor7_invokeERNS_6WorkerEPNS_4NodeE
   fun:_ZN2tf8Executor13_exploit_taskERNS_6WorkerERPNS_4NodeE
}
{
   <insert_a_suppression_name_here>
   Helgrind:Race
   fun:_ZNSt14__shared_countILN9__gnu_cxx12_Lock_policyE2EEC1ERKS2_
   fun:_ZNSt12__shared_ptrIN2tf8TopologyELN9__gnu_cxx12_Lock_policyE2EEC1ERKS4_
   fun:_ZNSt10shared_ptrIN2tf8TopologyEEC1ERKS2_
   fun:_ZZN2tf8Executor9run_untilIZNS0_5run_nIZNS0_3runEONS_8TaskflowEEUlvE_EENS_6FutureIvEES4_mOT_EUlvE_S5_EES7_S4_S9_OT0_ENUlRNS_7RuntimeEE_clESE_
   fun:_ZSt13__invoke_implIvRZN2tf8Executor9run_untilIZNS1_5run_nIZNS1_3runEONS0_8TaskflowEEUlvE_EENS0_6FutureIvEES5_mOT_EUlvE_S6_EES8_S5_SA_OT0_EUlRNS0_7RuntimeEE_JSF_EES9_St14__invoke_otherSD_DpOT1_
   fun:_ZSt10__invoke_rIvRZN2tf8Executor9run_untilIZNS1_5run_nIZNS1_3runEONS0_8TaskflowEEUlvE_EENS0_6FutureIvEES5_mOT_EUlvE_S6_EES8_S5_SA_OT0_EUlRNS0_7RuntimeEE_JSF_EENSt9enable_ifIX16is_invocable_r_vIS9_SC_DpT1_EES9_E4typeESD_DpOSJ_
   fun:_ZNSt17_Function_handlerIFvRN2tf7RuntimeEEZNS0_8Executor9run_untilIZNS4_5run_nIZNS4_3runEONS0_8TaskflowEEUlvE_EENS0_6FutureIvEES8_mOT_EUlvE_S9_EESB_S8_SD_OT0_EUlS2_E_E9_M_invokeERKSt9_Any_dataS2_
   fun:_ZNKSt8functionIFvRN2tf7RuntimeEEEclES2_
   fun:_ZN2tf8Executor25_invoke_runtime_task_implERNS_6WorkerEPNS_4NodeERSt8functionIFvRNS_7RuntimeEEE
   fun:_ZN2tf8Executor18_invoke_async_taskERNS_6WorkerEPNS_4NodeE
   fun:_ZN2tf8Executor7_invokeERNS_6WorkerEPNS_4NodeE
   fun:_ZN2tf8Executor13_exploit_taskERNS_6WorkerERPNS_4NodeE
}
{
   <insert_a_suppression_name_here>
   Helgrind:Race
   fun:__atomic_add
   fun:__atomic_add_dispatch
   fun:_ZNSt16_Sp_counted_baseILN9__gnu_cxx12_Lock_policyE2EE15_M_add_ref_copyEv
   fun:_ZNSt14__shared_countILN9__gnu_cxx12_Lock_policyE2EEC1ERKS2_
   fun:_ZNSt12__shared_ptrIN2tf8TopologyELN9__gnu_cxx12_Lock_policyE2EEC1ERKS4_
   fun:_ZNSt10shared_ptrIN2tf8TopologyEEC1ERKS2_
   fun:_ZZN2tf8Executor9run_untilIZNS0_5run_nIZNS0_3runEONS_8TaskflowEEUlvE_EENS_6FutureIvEES4_mOT_EUlvE_S5_EES7_S4_S9_OT0_ENUlRNS_7RuntimeEE_clESE_
   fun:_ZSt13__invoke_implIvRZN2tf8Executor9run_untilIZNS1_5run_nIZNS1_3runEONS0_8TaskflowEEUlvE_EENS0_6FutureIvEES5_mOT_EUlvE_S6_EES8_S5_SA_OT0_EUlRNS0_7RuntimeEE_JSF_EES9_St14__invoke_otherSD_DpOT1_
   fun:_ZSt10__invoke_rIvRZN2tf8Executor9run_untilIZNS1_5run_nIZNS1_3runEONS0_8TaskflowEEUlvE_EENS0_6FutureIvEES5_mOT_EUlvE_S6_EES8_S5_SA_OT0_EUlRNS0_7RuntimeEE_JSF_EENSt9enable_ifIX16is_invocable_r_vIS9_SC_DpT1_EES9_E4typeESD_DpOSJ_
   fun:_ZNSt17_Function_handlerIFvRN2tf7RuntimeEEZNS0_8Executor9run_untilIZNS4_5run_nIZNS4_3runEONS0_8TaskflowEEUlvE_EENS0_6FutureIvEES8_mOT_EUlvE_S9_EESB_S8_SD_OT0_EUlS2_E_E9_M_invokeERKSt9_Any_dataS2_
   fun:_ZNKSt8functionIFvRN2tf7RuntimeEEEclES2_
   fun:_ZN2tf8Executor25_invoke_runtime_task_implERNS_6WorkerEPNS_4NodeERSt8functionIFvRNS_7RuntimeEEE
   fun:_ZN2tf8Executor18_invoke_async_taskERNS_6WorkerEPNS_4NodeE
   fun:_ZN2tf8Executor7_invokeERNS_6WorkerEPNS_4NodeE
}
{
   <insert_a_suppression_name_here>
   Helgrind:Race
   fun:_ZStmiRKSt15_Deque_iteratorISt10shared_ptrIN2tf8TopologyEERS3_PS3_ES8_
   fun:_ZNKSt5dequeISt10shared_ptrIN2tf8TopologyEESaIS3_EE4sizeEv
   fun:_ZNKSt5queueISt10shared_ptrIN2tf8TopologyEESt5dequeIS3_SaIS3_EEE4sizeEv
   fun:_ZN2tf8Taskflow14_fetch_enqueueESt10shared_ptrINS_8TopologyEE
   fun:_ZZN2tf8Executor9run_untilIZNS0_5run_nIZNS0_3runEONS_8TaskflowEEUlvE_EENS_6FutureIvEES4_mOT_EUlvE_S5_EES7_S4_S9_OT0_ENUlRNS_7RuntimeEE_clESE_
   fun:_ZSt13__invoke_implIvRZN2tf8Executor9run_untilIZNS1_5run_nIZNS1_3runEONS0_8TaskflowEEUlvE_EENS0_6FutureIvEES5_mOT_EUlvE_S6_EES8_S5_SA_OT0_EUlRNS0_7RuntimeEE_JSF_EES9_St14__invoke_otherSD_DpOT1_
   fun:_ZSt10__invoke_rIvRZN2tf8Executor9run_untilIZNS1_5run_nIZNS1_3runEONS0_8TaskflowEEUlvE_EENS0_6FutureIvEES5_mOT_EUlvE_S6_EES8_S5_SA_OT0_EUlRNS0_7RuntimeEE_JSF_EENSt9enable_ifIX16is_invocable_r_vIS9_SC_DpT1_EES9_E4typeESD_DpOSJ_
   fun:_ZNSt17_Function_handlerIFvRN2tf7RuntimeEEZNS0_8Executor9run_untilIZNS4_5run_nIZNS4_3runEONS0_8TaskflowEEUlvE_EENS0_6FutureIvEES8_mOT_EUlvE_S9_EESB_S8_SD_OT0_EUlS2_E_E9_M_invokeERKSt9_Any_dataS2_
   fun:_ZNKSt8functionIFvRN2tf7RuntimeEEEclES2_
   fun:_ZN2tf8Executor25_invoke_runtime_task_implERNS_6WorkerEPNS_4NodeERSt8functionIFvRNS_7RuntimeEEE
   fun:_ZN2tf8Executor18_invoke_async_taskERNS_6WorkerEPNS_4NodeE
   fun:_ZN2tf8Executor7_invokeERNS_6WorkerEPNS_4NodeE
}
{
   <insert_a_suppression_name_here>
   Helgrind:Race
   fun:_ZStmiRKSt15_Deque_iteratorISt10shared_ptrIN2tf8TopologyEERS3_PS3_ES8_
   fun:_ZNKSt5dequeISt10shared_ptrIN2tf8TopologyEESaIS3_EE4sizeEv
   fun:_ZNKSt5queueISt10shared_ptrIN2tf8TopologyEESt5dequeIS3_SaIS3_EEE4sizeEv
   fun:_ZN2tf8Taskflow14_fetch_enqueueESt10shared_ptrINS_8TopologyEE
   fun:_ZZN2tf8Executor9run_untilIZNS0_5run_nIZNS0_3runEONS_8TaskflowEEUlvE_EENS_6FutureIvEES4_mOT_EUlvE_S5_EES7_S4_S9_OT0_ENUlRNS_7RuntimeEE_clESE_
   fun:_ZSt13__invoke_implIvRZN2tf8Executor9run_untilIZNS1_5run_nIZNS1_3runEONS0_8TaskflowEEUlvE_EENS0_6FutureIvEES5_mOT_EUlvE_S6_EES8_S5_SA_OT0_EUlRNS0_7RuntimeEE_JSF_EES9_St14__invoke_otherSD_DpOT1_
   fun:_ZSt10__invoke_rIvRZN2tf8Executor9run_untilIZNS1_5run_nIZNS1_3runEONS0_8TaskflowEEUlvE_EENS0_6FutureIvEES5_mOT_EUlvE_S6_EES8_S5_SA_OT0_EUlRNS0_7RuntimeEE_JSF_EENSt9enable_ifIX16is_invocable_r_vIS9_SC_DpT1_EES9_E4typeESD_DpOSJ_
   fun:_ZNSt17_Function_handlerIFvRN2tf7RuntimeEEZNS0_8Executor9run_untilIZNS4_5run_nIZNS4_3runEONS0_8TaskflowEEUlvE_EENS0_6FutureIvEES8_mOT_EUlvE_S9_EESB_S8_SD_OT0_EUlS2_E_E9_M_invokeERKSt9_Any_dataS2_
   fun:_ZNKSt8functionIFvRN2tf7RuntimeEEEclES2_
   fun:_ZN2tf8Executor25_invoke_runtime_task_implERNS_6WorkerEPNS_4NodeERSt8functionIFvRNS_7RuntimeEEE
   fun:_ZN2tf8Executor18_invoke_async_taskERNS_6WorkerEPNS_4NodeE
   fun:_ZN2tf8Executor7_invokeERNS_6WorkerEPNS_4NodeE
}
{
   <insert_a_suppression_name_here>
   Helgrind:Race
   fun:_ZStmiRKSt15_Deque_iteratorISt10shared_ptrIN2tf8TopologyEERS3_PS3_ES8_
   fun:_ZNKSt5dequeISt10shared_ptrIN2tf8TopologyEESaIS3_EE4sizeEv
   fun:_ZNKSt5queueISt10shared_ptrIN2tf8TopologyEESt5dequeIS3_SaIS3_EEE4sizeEv
   fun:_ZN2tf8Taskflow14_fetch_enqueueESt10shared_ptrINS_8TopologyEE
   fun:_ZZN2tf8Executor9run_untilIZNS0_5run_nIZNS0_3runEONS_8TaskflowEEUlvE_EENS_6FutureIvEES4_mOT_EUlvE_S5_EES7_S4_S9_OT0_ENUlRNS_7RuntimeEE_clESE_
   fun:_ZSt13__invoke_implIvRZN2tf8Executor9run_untilIZNS1_5run_nIZNS1_3runEONS0_8TaskflowEEUlvE_EENS0_6FutureIvEES5_mOT_EUlvE_S6_EES8_S5_SA_OT0_EUlRNS0_7RuntimeEE_JSF_EES9_St14__invoke_otherSD_DpOT1_
   fun:_ZSt10__invoke_rIvRZN2tf8Executor9run_untilIZNS1_5run_nIZNS1_3runEONS0_8TaskflowEEUlvE_EENS0_6FutureIvEES5_mOT_EUlvE_S6_EES8_S5_SA_OT0_EUlRNS0_7RuntimeEE_JSF_EENSt9enable_ifIX16is_invocable_r_vIS9_SC_DpT1_EES9_E4typeESD_DpOSJ_
   fun:_ZNSt17_Function_handlerIFvRN2tf7RuntimeEEZNS0_8Executor9run_untilIZNS4_5run_nIZNS4_3runEONS0_8TaskflowEEUlvE_EENS0_6FutureIvEES8_mOT_EUlvE_S9_EESB_S8_SD_OT0_EUlS2_E_E9_M_invokeERKSt9_Any_dataS2_
   fun:_ZNKSt8functionIFvRN2tf7RuntimeEEEclES2_
   fun:_ZN2tf8Executor25_invoke_runtime_task_implERNS_6WorkerEPNS_4NodeERSt8functionIFvRNS_7RuntimeEEE
   fun:_ZN2tf8Executor18_invoke_async_taskERNS_6WorkerEPNS_4NodeE
   fun:_ZN2tf8Executor7_invokeERNS_6WorkerEPNS_4NodeE
}
{
   <insert_a_suppression_name_here>
   Helgrind:Race
   fun:_ZStmiRKSt15_Deque_iteratorISt10shared_ptrIN2tf8TopologyEERS3_PS3_ES8_
   fun:_ZNKSt5dequeISt10shared_ptrIN2tf8TopologyEESaIS3_EE4sizeEv
   fun:_ZNKSt5queueISt10shared_ptrIN2tf8TopologyEESt5dequeIS3_SaIS3_EEE4sizeEv
   fun:_ZN2tf8Taskflow14_fetch_enqueueESt10shared_ptrINS_8TopologyEE
   fun:_ZZN2tf8Executor9run_untilIZNS0_5run_nIZNS0_3runEONS_8TaskflowEEUlvE_EENS_6FutureIvEES4_mOT_EUlvE_S5_EES7_S4_S9_OT0_ENUlRNS_7RuntimeEE_clESE_
   fun:_ZSt13__invoke_implIvRZN2tf8Executor9run_untilIZNS1_5run_nIZNS1_3runEONS0_8TaskflowEEUlvE_EENS0_6FutureIvEES5_mOT_EUlvE_S6_EES8_S5_SA_OT0_EUlRNS0_7RuntimeEE_JSF_EES9_St14__invoke_otherSD_DpOT1_
   fun:_ZSt10__invoke_rIvRZN2tf8Executor9run_untilIZNS1_5run_nIZNS1_3runEONS0_8TaskflowEEUlvE_EENS0_6FutureIvEES5_mOT_EUlvE_S6_EES8_S5_SA_OT0_EUlRNS0_7RuntimeEE_JSF_EENSt9enable_ifIX16is_invocable_r_vIS9_SC_DpT1_EES9_E4typeESD_DpOSJ_
   fun:_ZNSt17_Function_handlerIFvRN2tf7RuntimeEEZNS0_8Executor9run_untilIZNS4_5run_nIZNS4_3runEONS0_8TaskflowEEUlvE_EENS0_6FutureIvEES8_mOT_EUlvE_S9_EESB_S8_SD_OT0_EUlS2_E_E9_M_invokeERKSt9_Any_dataS2_
   fun:_ZNKSt8functionIFvRN2tf7RuntimeEEEclES2_
   fun:_ZN2tf8Executor25_invoke_runtime_task_implERNS_6WorkerEPNS_4NodeERSt8functionIFvRNS_7RuntimeEEE
   fun:_ZN2tf8Executor18_invoke_async_taskERNS_6WorkerEPNS_4NodeE
   fun:_ZN2tf8Executor7_invokeERNS_6WorkerEPNS_4NodeE
}
{
   <insert_a_suppression_name_here>
   Helgrind:Race
   fun:_ZStmiRKSt15_Deque_iteratorISt10shared_ptrIN2tf8TopologyEERS3_PS3_ES8_
   fun:_ZNKSt5dequeISt10shared_ptrIN2tf8TopologyEESaIS3_EE4sizeEv
   fun:_ZNKSt5queueISt10shared_ptrIN2tf8TopologyEESt5dequeIS3_SaIS3_EEE4sizeEv
   fun:_ZN2tf8Taskflow14_fetch_enqueueESt10shared_ptrINS_8TopologyEE
   fun:_ZZN2tf8Executor9run_untilIZNS0_5run_nIZNS0_3runEONS_8TaskflowEEUlvE_EENS_6FutureIvEES4_mOT_EUlvE_S5_EES7_S4_S9_OT0_ENUlRNS_7RuntimeEE_clESE_
   fun:_ZSt13__invoke_implIvRZN2tf8Executor9run_untilIZNS1_5run_nIZNS1_3runEONS0_8TaskflowEEUlvE_EENS0_6FutureIvEES5_mOT_EUlvE_S6_EES8_S5_SA_OT0_EUlRNS0_7RuntimeEE_JSF_EES9_St14__invoke_otherSD_DpOT1_
   fun:_ZSt10__invoke_rIvRZN2tf8Executor9run_untilIZNS1_5run_nIZNS1_3runEONS0_8TaskflowEEUlvE_EENS0_6FutureIvEES5_mOT_EUlvE_S6_EES8_S5_SA_OT0_EUlRNS0_7RuntimeEE_JSF_EENSt9enable_ifIX16is_invocable_r_vIS9_SC_DpT1_EES9_E4typeESD_DpOSJ_
   fun:_ZNSt17_Function_handlerIFvRN2tf7RuntimeEEZNS0_8Executor9run_untilIZNS4_5run_nIZNS4_3runEONS0_8TaskflowEEUlvE_EENS0_6FutureIvEES8_mOT_EUlvE_S9_EESB_S8_SD_OT0_EUlS2_E_E9_M_invokeERKSt9_Any_dataS2_
   fun:_ZNKSt8functionIFvRN2tf7RuntimeEEEclES2_
   fun:_ZN2tf8Executor25_invoke_runtime_task_implERNS_6WorkerEPNS_4NodeERSt8functionIFvRNS_7RuntimeEEE
   fun:_ZN2tf8Executor18_invoke_async_taskERNS_6WorkerEPNS_4NodeE
   fun:_ZN2tf8Executor7_invokeERNS_6WorkerEPNS_4NodeE
}
{
   <insert_a_suppression_name_here>
   Helgrind:Race
   fun:_ZStmiRKSt15_Deque_iteratorISt10shared_ptrIN2tf8TopologyEERS3_PS3_ES8_
   fun:_ZNKSt5dequeISt10shared_ptrIN2tf8TopologyEESaIS3_EE4sizeEv
   fun:_ZNKSt5queueISt10shared_ptrIN2tf8TopologyEESt5dequeIS3_SaIS3_EEE4sizeEv
   fun:_ZN2tf8Taskflow14_fetch_enqueueESt10shared_ptrINS_8TopologyEE
   fun:_ZZN2tf8Executor9run_untilIZNS0_5run_nIZNS0_3runEONS_8TaskflowEEUlvE_EENS_6FutureIvEES4_mOT_EUlvE_S5_EES7_S4_S9_OT0_ENUlRNS_7RuntimeEE_clESE_
   fun:_ZSt13__invoke_implIvRZN2tf8Executor9run_untilIZNS1_5run_nIZNS1_3runEONS0_8TaskflowEEUlvE_EENS0_6FutureIvEES5_mOT_EUlvE_S6_EES8_S5_SA_OT0_EUlRNS0_7RuntimeEE_JSF_EES9_St14__invoke_otherSD_DpOT1_
   fun:_ZSt10__invoke_rIvRZN2tf8Executor9run_untilIZNS1_5run_nIZNS1_3runEONS0_8TaskflowEEUlvE_EENS0_6FutureIvEES5_mOT_EUlvE_S6_EES8_S5_SA_OT0_EUlRNS0_7RuntimeEE_JSF_EENSt9enable_ifIX16is_invocable_r_vIS9_SC_DpT1_EES9_E4typeESD_DpOSJ_
   fun:_ZNSt17_Function_handlerIFvRN2tf7RuntimeEEZNS0_8Executor9run_untilIZNS4_5run_nIZNS4_3runEONS0_8TaskflowEEUlvE_EENS0_6FutureIvEES8_mOT_EUlvE_S9_EESB_S8_SD_OT0_EUlS2_E_E9_M_invokeERKSt9_Any_dataS2_
   fun:_ZNKSt8functionIFvRN2tf7RuntimeEEEclES2_
   fun:_ZN2tf8Executor25_invoke_runtime_task_implERNS_6WorkerEPNS_4NodeERSt8functionIFvRNS_7RuntimeEEE
   fun:_ZN2tf8Executor18_invoke_async_taskERNS_6WorkerEPNS_4NodeE
   fun:_ZN2tf8Executor7_invokeERNS_6WorkerEPNS_4NodeE
}
{
   <insert_a_suppression_name_here>
   Helgrind:Race
   fun:_ZNSt5dequeISt10shared_ptrIN2tf8TopologyEESaIS3_EE12emplace_backIJS3_EEERS3_DpOT_
   fun:_ZNSt5queueISt10shared_ptrIN2tf8TopologyEESt5dequeIS3_SaIS3_EEE7emplaceIJS3_EEEDcDpOT_
   fun:_ZN2tf8Taskflow14_fetch_enqueueESt10shared_ptrINS_8TopologyEE
   fun:_ZZN2tf8Executor9run_untilIZNS0_5run_nIZNS0_3runEONS_8TaskflowEEUlvE_EENS_6FutureIvEES4_mOT_EUlvE_S5_EES7_S4_S9_OT0_ENUlRNS_7RuntimeEE_clESE_
   fun:_ZSt13__invoke_implIvRZN2tf8Executor9run_untilIZNS1_5run_nIZNS1_3runEONS0_8TaskflowEEUlvE_EENS0_6FutureIvEES5_mOT_EUlvE_S6_EES8_S5_SA_OT0_EUlRNS0_7RuntimeEE_JSF_EES9_St14__invoke_otherSD_DpOT1_
   fun:_ZSt10__invoke_rIvRZN2tf8Executor9run_untilIZNS1_5run_nIZNS1_3runEONS0_8TaskflowEEUlvE_EENS0_6FutureIvEES5_mOT_EUlvE_S6_EES8_S5_SA_OT0_EUlRNS0_7RuntimeEE_JSF_EENSt9enable_ifIX16is_invocable_r_vIS9_SC_DpT1_EES9_E4typeESD_DpOSJ_
   fun:_ZNSt17_Function_handlerIFvRN2tf7RuntimeEEZNS0_8Executor9run_untilIZNS4_5run_nIZNS4_3runEONS0_8TaskflowEEUlvE_EENS0_6FutureIvEES8_mOT_EUlvE_S9_EESB_S8_SD_OT0_EUlS2_E_E9_M_invokeERKSt9_Any_dataS2_
   fun:_ZNKSt8functionIFvRN2tf7RuntimeEEEclES2_
   fun:_ZN2tf8Executor25_invoke_runtime_task_implERNS_6WorkerEPNS_4NodeERSt8functionIFvRNS_7RuntimeEEE
   fun:_ZN2tf8Executor18_invoke_async_taskERNS_6WorkerEPNS_4NodeE
   fun:_ZN2tf8Executor7_invokeERNS_6WorkerEPNS_4NodeE
   fun:_ZN2tf8Executor13_exploit_taskERNS_6WorkerERPNS_4NodeE
}
{
   <insert_a_suppression_name_here>
   Helgrind:Race
   fun:_ZNSt12__shared_ptrIN2tf8TopologyELN9__gnu_cxx12_Lock_policyE2EEC1EOS4_
   fun:_ZNSt10shared_ptrIN2tf8TopologyEEC1EOS2_
   fun:_ZSt12construct_atISt10shared_ptrIN2tf8TopologyEEJS3_EEDTgsnwcvPvLi0E_T_pispcl7declvalIT0_EEEEPS5_DpOS6_
   fun:construct<std::shared_ptr<tf::Topology>, std::shared_ptr<tf::Topology> >
   fun:_ZNSt5dequeISt10shared_ptrIN2tf8TopologyEESaIS3_EE12emplace_backIJS3_EEERS3_DpOT_
   fun:_ZNSt5queueISt10shared_ptrIN2tf8TopologyEESt5dequeIS3_SaIS3_EEE7emplaceIJS3_EEEDcDpOT_
   fun:_ZN2tf8Taskflow14_fetch_enqueueESt10shared_ptrINS_8TopologyEE
   fun:_ZZN2tf8Executor9run_untilIZNS0_5run_nIZNS0_3runEONS_8TaskflowEEUlvE_EENS_6FutureIvEES4_mOT_EUlvE_S5_EES7_S4_S9_OT0_ENUlRNS_7RuntimeEE_clESE_
   fun:_ZSt13__invoke_implIvRZN2tf8Executor9run_untilIZNS1_5run_nIZNS1_3runEONS0_8TaskflowEEUlvE_EENS0_6FutureIvEES5_mOT_EUlvE_S6_EES8_S5_SA_OT0_EUlRNS0_7RuntimeEE_JSF_EES9_St14__invoke_otherSD_DpOT1_
   fun:_ZSt10__invoke_rIvRZN2tf8Executor9run_untilIZNS1_5run_nIZNS1_3runEONS0_8TaskflowEEUlvE_EENS0_6FutureIvEES5_mOT_EUlvE_S6_EES8_S5_SA_OT0_EUlRNS0_7RuntimeEE_JSF_EENSt9enable_ifIX16is_invocable_r_vIS9_SC_DpT1_EES9_E4typeESD_DpOSJ_
   fun:_ZNSt17_Function_handlerIFvRN2tf7RuntimeEEZNS0_8Executor9run_untilIZNS4_5run_nIZNS4_3runEONS0_8TaskflowEEUlvE_EENS0_6FutureIvEES8_mOT_EUlvE_S9_EESB_S8_SD_OT0_EUlS2_E_E9_M_invokeERKSt9_Any_dataS2_
   fun:_ZNKSt8functionIFvRN2tf7RuntimeEEEclES2_
   fun:_ZN2tf8Executor25_invoke_runtime_task_implERNS_6WorkerEPNS_4NodeERSt8functionIFvRNS_7RuntimeEEE
}
{
   <insert_a_suppression_name_here>
   Helgrind:Race
   fun:_ZNSt14__shared_countILN9__gnu_cxx12_Lock_policyE2EEC1Ev
   fun:_ZNSt12__shared_ptrIN2tf8TopologyELN9__gnu_cxx12_Lock_policyE2EEC1EOS4_
   fun:_ZNSt10shared_ptrIN2tf8TopologyEEC1EOS2_
   fun:_ZSt12construct_atISt10shared_ptrIN2tf8TopologyEEJS3_EEDTgsnwcvPvLi0E_T_pispcl7declvalIT0_EEEEPS5_DpOS6_
   fun:construct<std::shared_ptr<tf::Topology>, std::shared_ptr<tf::Topology> >
   fun:_ZNSt5dequeISt10shared_ptrIN2tf8TopologyEESaIS3_EE12emplace_backIJS3_EEERS3_DpOT_
   fun:_ZNSt5queueISt10shared_ptrIN2tf8TopologyEESt5dequeIS3_SaIS3_EEE7emplaceIJS3_EEEDcDpOT_
   fun:_ZN2tf8Taskflow14_fetch_enqueueESt10shared_ptrINS_8TopologyEE
   fun:_ZZN2tf8Executor9run_untilIZNS0_5run_nIZNS0_3runEONS_8TaskflowEEUlvE_EENS_6FutureIvEES4_mOT_EUlvE_S5_EES7_S4_S9_OT0_ENUlRNS_7RuntimeEE_clESE_
   fun:_ZSt13__invoke_implIvRZN2tf8Executor9run_untilIZNS1_5run_nIZNS1_3runEONS0_8TaskflowEEUlvE_EENS0_6FutureIvEES5_mOT_EUlvE_S6_EES8_S5_SA_OT0_EUlRNS0_7RuntimeEE_JSF_EES9_St14__invoke_otherSD_DpOT1_
   fun:_ZSt10__invoke_rIvRZN2tf8Executor9run_untilIZNS1_5run_nIZNS1_3runEONS0_8TaskflowEEUlvE_EENS0_6FutureIvEES5_mOT_EUlvE_S6_EES8_S5_SA_OT0_EUlRNS0_7RuntimeEE_JSF_EENSt9enable_ifIX16is_invocable_r_vIS9_SC_DpT1_EES9_E4typeESD_DpOSJ_
   fun:_ZNSt17_Function_handlerIFvRN2tf7RuntimeEEZNS0_8Executor9run_untilIZNS4_5run_nIZNS4_3runEONS0_8TaskflowEEUlvE_EENS0_6FutureIvEES8_mOT_EUlvE_S9_EESB_S8_SD_OT0_EUlS2_E_E9_M_invokeERKSt9_Any_dataS2_
   fun:_ZNKSt8functionIFvRN2tf7RuntimeEEEclES2_
}
{
   <insert_a_suppression_name_here>
   Helgrind:Race
   fun:_ZNSt5dequeISt10shared_ptrIN2tf8TopologyEESaIS3_EE12emplace_backIJS3_EEERS3_DpOT_
   fun:_ZNSt5queueISt10shared_ptrIN2tf8TopologyEESt5dequeIS3_SaIS3_EEE7emplaceIJS3_EEEDcDpOT_
   fun:_ZN2tf8Taskflow14_fetch_enqueueESt10shared_ptrINS_8TopologyEE
   fun:_ZZN2tf8Executor9run_untilIZNS0_5run_nIZNS0_3runEONS_8TaskflowEEUlvE_EENS_6FutureIvEES4_mOT_EUlvE_S5_EES7_S4_S9_OT0_ENUlRNS_7RuntimeEE_clESE_
   fun:_ZSt13__invoke_implIvRZN2tf8Executor9run_untilIZNS1_5run_nIZNS1_3runEONS0_8TaskflowEEUlvE_EENS0_6FutureIvEES5_mOT_EUlvE_S6_EES8_S5_SA_OT0_EUlRNS0_7RuntimeEE_JSF_EES9_St14__invoke_otherSD_DpOT1_
   fun:_ZSt10__invoke_rIvRZN2tf8Executor9run_untilIZNS1_5run_nIZNS1_3runEONS0_8TaskflowEEUlvE_EENS0_6FutureIvEES5_mOT_EUlvE_S6_EES8_S5_SA_OT0_EUlRNS0_7RuntimeEE_JSF_EENSt9enable_ifIX16is_invocable_r_vIS9_SC_DpT1_EES9_E4typeESD_DpOSJ_
   fun:_ZNSt17_Function_handlerIFvRN2tf7RuntimeEEZNS0_8Executor9run_untilIZNS4_5run_nIZNS4_3runEONS0_8TaskflowEEUlvE_EENS0_6FutureIvEES8_mOT_EUlvE_S9_EESB_S8_SD_OT0_EUlS2_E_E9_M_invokeERKSt9_Any_dataS2_
   fun:_ZNKSt8functionIFvRN2tf7RuntimeEEEclES2_
   fun:_ZN2tf8Executor25_invoke_runtime_task_implERNS_6WorkerEPNS_4NodeERSt8functionIFvRNS_7RuntimeEEE
   fun:_ZN2tf8Executor18_invoke_async_taskERNS_6WorkerEPNS_4NodeE
   fun:_ZN2tf8Executor7_invokeERNS_6WorkerEPNS_4NodeE
   fun:_ZN2tf8Executor13_exploit_taskERNS_6WorkerERPNS_4NodeE
}
{
   <insert_a_suppression_name_here>
   Helgrind:Race
   fun:_ZNKSt12__shared_ptrIN2tf8TopologyELN9__gnu_cxx12_Lock_policyE2EE3getEv
   fun:_ZZN2tf8Executor9run_untilIZNS0_5run_nIZNS0_3runEONS_8TaskflowEEUlvE_EENS_6FutureIvEES4_mOT_EUlvE_S5_EES7_S4_S9_OT0_ENUlRNS_7RuntimeEE_clESE_
   fun:_ZSt13__invoke_implIvRZN2tf8Executor9run_untilIZNS1_5run_nIZNS1_3runEONS0_8TaskflowEEUlvE_EENS0_6FutureIvEES5_mOT_EUlvE_S6_EES8_S5_SA_OT0_EUlRNS0_7RuntimeEE_JSF_EES9_St14__invoke_otherSD_DpOT1_
   fun:_ZSt10__invoke_rIvRZN2tf8Executor9run_untilIZNS1_5run_nIZNS1_3runEONS0_8TaskflowEEUlvE_EENS0_6FutureIvEES5_mOT_EUlvE_S6_EES8_S5_SA_OT0_EUlRNS0_7RuntimeEE_JSF_EENSt9enable_ifIX16is_invocable_r_vIS9_SC_DpT1_EES9_E4typeESD_DpOSJ_
   fun:_ZNSt17_Function_handlerIFvRN2tf7RuntimeEEZNS0_8Executor9run_untilIZNS4_5run_nIZNS4_3runEONS0_8TaskflowEEUlvE_EENS0_6FutureIvEES8_mOT_EUlvE_S9_EESB_S8_SD_OT0_EUlS2_E_E9_M_invokeERKSt9_Any_dataS2_
   fun:_ZNKSt8functionIFvRN2tf7RuntimeEEEclES2_
   fun:_ZN2tf8Executor25_invoke_runtime_task_implERNS_6WorkerEPNS_4NodeERSt8functionIFvRNS_7RuntimeEEE
   fun:_ZN2tf8Executor18_invoke_async_taskERNS_6WorkerEPNS_4NodeE
   fun:_ZN2tf8Executor7_invokeERNS_6WorkerEPNS_4NodeE
   fun:_ZN2tf8Executor13_exploit_taskERNS_6WorkerERPNS_4NodeE
   fun:_ZZN2tf8Executor6_spawnEmSt10shared_ptrINS_15WorkerInterfaceEEENKUlvE_clEv
   fun:_ZSt13__invoke_implIvZN2tf8Executor6_spawnEmSt10shared_ptrINS0_15WorkerInterfaceEEEUlvE_JEET_St14__invoke_otherOT0_DpOT1_
}
{
   <insert_a_suppression_name_here>
   Helgrind:Race
   fun:_ZN9__gnu_cxx17__normal_iteratorIPPN2tf4NodeESt6vectorIS3_SaIS3_EEEC1ERKS4_
   fun:_ZNSt6vectorIPN2tf4NodeESaIS2_EE5beginEv
   fun:_ZN2tf5Graph5beginEv
   fun:_ZN2tf8Executor13_set_up_graphERNS_5GraphEPNS_8TopologyEPNS_8NodeBaseE
   fun:_ZN2tf8Executor27_schedule_graph_with_parentERNS_6WorkerERNS_5GraphEPNS_8TopologyEPNS_8NodeBaseE
   fun:_ZZN2tf8Executor9run_untilIZNS0_5run_nIZNS0_3runEONS_8TaskflowEEUlvE_EENS_6FutureIvEES4_mOT_EUlvE_S5_EES7_S4_S9_OT0_ENUlRNS_7RuntimeEE_clESE_
   fun:_ZSt13__invoke_implIvRZN2tf8Executor9run_untilIZNS1_5run_nIZNS1_3runEONS0_8TaskflowEEUlvE_EENS0_6FutureIvEES5_mOT_EUlvE_S6_EES8_S5_SA_OT0_EUlRNS0_7RuntimeEE_JSF_EES9_St14__invoke_otherSD_DpOT1_
   fun:_ZSt10__invoke_rIvRZN2tf8Executor9run_untilIZNS1_5run_nIZNS1_3runEONS0_8TaskflowEEUlvE_EENS0_6FutureIvEES5_mOT_EUlvE_S6_EES8_S5_SA_OT0_EUlRNS0_7RuntimeEE_JSF_EENSt9enable_ifIX16is_invocable_r_vIS9_SC_DpT1_EES9_E4typeESD_DpOSJ_
   fun:_ZNSt17_Function_handlerIFvRN2tf7RuntimeEEZNS0_8Executor9run_untilIZNS4_5run_nIZNS4_3runEONS0_8TaskflowEEUlvE_EENS0_6FutureIvEES8_mOT_EUlvE_S9_EESB_S8_SD_OT0_EUlS2_E_E9_M_invokeERKSt9_Any_dataS2_
   fun:_ZNKSt8functionIFvRN2tf7RuntimeEEEclES2_
   fun:_ZN2tf8Executor25_invoke_runtime_task_implERNS_6WorkerEPNS_4NodeERSt8functionIFvRNS_7RuntimeEEE
   fun:_ZN2tf8Executor18_invoke_async_taskERNS_6WorkerEPNS_4NodeE
}
{
   <insert_a_suppression_name_here>
   Helgrind:Race
   fun:_ZN9__gnu_cxx17__normal_iteratorIPPN2tf4NodeESt6vectorIS3_SaIS3_EEEC1ERKS4_
   fun:_ZNSt6vectorIPN2tf4NodeESaIS2_EE3endEv
   fun:_ZN2tf5Graph3endEv
   fun:_ZN2tf8Executor13_set_up_graphERNS_5GraphEPNS_8TopologyEPNS_8NodeBaseE
   fun:_ZN2tf8Executor27_schedule_graph_with_parentERNS_6WorkerERNS_5GraphEPNS_8TopologyEPNS_8NodeBaseE
   fun:_ZZN2tf8Executor9run_untilIZNS0_5run_nIZNS0_3runEONS_8TaskflowEEUlvE_EENS_6FutureIvEES4_mOT_EUlvE_S5_EES7_S4_S9_OT0_ENUlRNS_7RuntimeEE_clESE_
   fun:_ZSt13__invoke_implIvRZN2tf8Executor9run_untilIZNS1_5run_nIZNS1_3runEONS0_8TaskflowEEUlvE_EENS0_6FutureIvEES5_mOT_EUlvE_S6_EES8_S5_SA_OT0_EUlRNS0_7RuntimeEE_JSF_EES9_St14__invoke_otherSD_DpOT1_
   fun:_ZSt10__invoke_rIvRZN2tf8Executor9run_untilIZNS1_5run_nIZNS1_3runEONS0_8TaskflowEEUlvE_EENS0_6FutureIvEES5_mOT_EUlvE_S6_EES8_S5_SA_OT0_EUlRNS0_7RuntimeEE_JSF_EENSt9enable_ifIX16is_invocable_r_vIS9_SC_DpT1_EES9_E4typeESD_DpOSJ_
   fun:_ZNSt17_Function_handlerIFvRN2tf7RuntimeEEZNS0_8Executor9run_untilIZNS4_5run_nIZNS4_3runEONS0_8TaskflowEEUlvE_EENS0_6FutureIvEES8_mOT_EUlvE_S9_EESB_S8_SD_OT0_EUlS2_E_E9_M_invokeERKSt9_Any_dataS2_
   fun:_ZNKSt8functionIFvRN2tf7RuntimeEEEclES2_
   fun:_ZN2tf8Executor25_invoke_runtime_task_implERNS_6WorkerEPNS_4NodeERSt8functionIFvRNS_7RuntimeEEE
   fun:_ZN2tf8Executor18_invoke_async_taskERNS_6WorkerEPNS_4NodeE
}
{
   <insert_a_suppression_name_here>
   Helgrind:Race
   fun:_ZN2tf8Executor13_set_up_graphERNS_5GraphEPNS_8TopologyEPNS_8NodeBaseE
   fun:_ZN2tf8Executor27_schedule_graph_with_parentERNS_6WorkerERNS_5GraphEPNS_8TopologyEPNS_8NodeBaseE
   fun:_ZZN2tf8Executor9run_untilIZNS0_5run_nIZNS0_3runEONS_8TaskflowEEUlvE_EENS_6FutureIvEES4_mOT_EUlvE_S5_EES7_S4_S9_OT0_ENUlRNS_7RuntimeEE_clESE_
   fun:_ZSt13__invoke_implIvRZN2tf8Executor9run_untilIZNS1_5run_nIZNS1_3runEONS0_8TaskflowEEUlvE_EENS0_6FutureIvEES5_mOT_EUlvE_S6_EES8_S5_SA_OT0_EUlRNS0_7RuntimeEE_JSF_EES9_St14__invoke_otherSD_DpOT1_
   fun:_ZSt10__invoke_rIvRZN2tf8Executor9run_untilIZNS1_5run_nIZNS1_3runEONS0_8TaskflowEEUlvE_EENS0_6FutureIvEES5_mOT_EUlvE_S6_EES8_S5_SA_OT0_EUlRNS0_7RuntimeEE_JSF_EENSt9enable_ifIX16is_invocable_r_vIS9_SC_DpT1_EES9_E4typeESD_DpOSJ_
   fun:_ZNSt17_Function_handlerIFvRN2tf7RuntimeEEZNS0_8Executor9run_untilIZNS4_5run_nIZNS4_3runEONS0_8TaskflowEEUlvE_EENS0_6FutureIvEES8_mOT_EUlvE_S9_EESB_S8_SD_OT0_EUlS2_E_E9_M_invokeERKSt9_Any_dataS2_
   fun:_ZNKSt8functionIFvRN2tf7RuntimeEEEclES2_
   fun:_ZN2tf8Executor25_invoke_runtime_task_implERNS_6WorkerEPNS_4NodeERSt8functionIFvRNS_7RuntimeEEE
   fun:_ZN2tf8Executor18_invoke_async_taskERNS_6WorkerEPNS_4NodeE
   fun:_ZN2tf8Executor7_invokeERNS_6WorkerEPNS_4NodeE
   fun:_ZN2tf8Executor13_exploit_taskERNS_6WorkerERPNS_4NodeE
   fun:_ZZN2tf8Executor6_spawnEmSt10shared_ptrINS_15WorkerInterfaceEEENKUlvE_clEv
}
{
   <insert_a_suppression_name_here>
   Helgrind:Race
   fun:_ZN2tf8Executor13_set_up_graphERNS_5GraphEPNS_8TopologyEPNS_8NodeBaseE
   fun:_ZN2tf8Executor27_schedule_graph_with_parentERNS_6WorkerERNS_5GraphEPNS_8TopologyEPNS_8NodeBaseE
   fun:_ZZN2tf8Executor9run_untilIZNS0_5run_nIZNS0_3runEONS_8TaskflowEEUlvE_EENS_6FutureIvEES4_mOT_EUlvE_S5_EES7_S4_S9_OT0_ENUlRNS_7RuntimeEE_clESE_
   fun:_ZSt13__invoke_implIvRZN2tf8Executor9run_untilIZNS1_5run_nIZNS1_3runEONS0_8TaskflowEEUlvE_EENS0_6FutureIvEES5_mOT_EUlvE_S6_EES8_S5_SA_OT0_EUlRNS0_7RuntimeEE_JSF_EES9_St14__invoke_otherSD_DpOT1_
   fun:_ZSt10__invoke_rIvRZN2tf8Executor9run_untilIZNS1_5run_nIZNS1_3runEONS0_8TaskflowEEUlvE_EENS0_6FutureIvEES5_mOT_EUlvE_S6_EES8_S5_SA_OT0_EUlRNS0_7RuntimeEE_JSF_EENSt9enable_ifIX16is_invocable_r_vIS9_SC_DpT1_EES9_E4typeESD_DpOSJ_
   fun:_ZNSt17_Function_handlerIFvRN2tf7RuntimeEEZNS0_8Executor9run_untilIZNS4_5run_nIZNS4_3runEONS0_8TaskflowEEUlvE_EENS0_6FutureIvEES8_mOT_EUlvE_S9_EESB_S8_SD_OT0_EUlS2_E_E9_M_invokeERKSt9_Any_dataS2_
   fun:_ZNKSt8functionIFvRN2tf7RuntimeEEEclES2_
   fun:_ZN2tf8Executor25_invoke_runtime_task_implERNS_6WorkerEPNS_4NodeERSt8functionIFvRNS_7RuntimeEEE
   fun:_ZN2tf8Executor18_invoke_async_taskERNS_6WorkerEPNS_4NodeE
   fun:_ZN2tf8Executor7_invokeERNS_6WorkerEPNS_4NodeE
   fun:_ZN2tf8Executor13_exploit_taskERNS_6WorkerERPNS_4NodeE
   fun:_ZZN2tf8Executor6_spawnEmSt10shared_ptrINS_15WorkerInterfaceEEENKUlvE_clEv
}
{
   <insert_a_suppression_name_here>
   Helgrind:Race
   fun:_ZN2tf8Executor13_set_up_graphERNS_5GraphEPNS_8TopologyEPNS_8NodeBaseE
   fun:_ZN2tf8Executor27_schedule_graph_with_parentERNS_6WorkerERNS_5GraphEPNS_8TopologyEPNS_8NodeBaseE
   fun:_ZZN2tf8Executor9run_untilIZNS0_5run_nIZNS0_3runEONS_8TaskflowEEUlvE_EENS_6FutureIvEES4_mOT_EUlvE_S5_EES7_S4_S9_OT0_ENUlRNS_7RuntimeEE_clESE_
   fun:_ZSt13__invoke_implIvRZN2tf8Executor9run_untilIZNS1_5run_nIZNS1_3runEONS0_8TaskflowEEUlvE_EENS0_6FutureIvEES5_mOT_EUlvE_S6_EES8_S5_SA_OT0_EUlRNS0_7RuntimeEE_JSF_EES9_St14__invoke_otherSD_DpOT1_
   fun:_ZSt10__invoke_rIvRZN2tf8Executor9run_untilIZNS1_5run_nIZNS1_3runEONS0_8TaskflowEEUlvE_EENS0_6FutureIvEES5_mOT_EUlvE_S6_EES8_S5_SA_OT0_EUlRNS0_7RuntimeEE_JSF_EENSt9enable_ifIX16is_invocable_r_vIS9_SC_DpT1_EES9_E4typeESD_DpOSJ_
   fun:_ZNSt17_Function_handlerIFvRN2tf7RuntimeEEZNS0_8Executor9run_untilIZNS4_5run_nIZNS4_3runEONS0_8TaskflowEEUlvE_EENS0_6FutureIvEES8_mOT_EUlvE_S9_EESB_S8_SD_OT0_EUlS2_E_E9_M_invokeERKSt9_Any_dataS2_
   fun:_ZNKSt8functionIFvRN2tf7RuntimeEEEclES2_
   fun:_ZN2tf8Executor25_invoke_runtime_task_implERNS_6WorkerEPNS_4NodeERSt8functionIFvRNS_7RuntimeEEE
   fun:_ZN2tf8Executor18_invoke_async_taskERNS_6WorkerEPNS_4NodeE
   fun:_ZN2tf8Executor7_invokeERNS_6WorkerEPNS_4NodeE
   fun:_ZN2tf8Executor13_exploit_taskERNS_6WorkerERPNS_4NodeE
   fun:_ZZN2tf8Executor6_spawnEmSt10shared_ptrINS_15WorkerInterfaceEEENKUlvE_clEv
}
{
   <insert_a_suppression_name_here>
   Helgrind:Race
   fun:_ZN2tf8Executor13_set_up_graphERNS_5GraphEPNS_8TopologyEPNS_8NodeBaseE
   fun:_ZN2tf8Executor27_schedule_graph_with_parentERNS_6WorkerERNS_5GraphEPNS_8TopologyEPNS_8NodeBaseE
   fun:_ZZN2tf8Executor9run_untilIZNS0_5run_nIZNS0_3runEONS_8TaskflowEEUlvE_EENS_6FutureIvEES4_mOT_EUlvE_S5_EES7_S4_S9_OT0_ENUlRNS_7RuntimeEE_clESE_
   fun:_ZSt13__invoke_implIvRZN2tf8Executor9run_untilIZNS1_5run_nIZNS1_3runEONS0_8TaskflowEEUlvE_EENS0_6FutureIvEES5_mOT_EUlvE_S6_EES8_S5_SA_OT0_EUlRNS0_7RuntimeEE_JSF_EES9_St14__invoke_otherSD_DpOT1_
   fun:_ZSt10__invoke_rIvRZN2tf8Executor9run_untilIZNS1_5run_nIZNS1_3runEONS0_8TaskflowEEUlvE_EENS0_6FutureIvEES5_mOT_EUlvE_S6_EES8_S5_SA_OT0_EUlRNS0_7RuntimeEE_JSF_EENSt9enable_ifIX16is_invocable_r_vIS9_SC_DpT1_EES9_E4typeESD_DpOSJ_
   fun:_ZNSt17_Function_handlerIFvRN2tf7RuntimeEEZNS0_8Executor9run_untilIZNS4_5run_nIZNS4_3runEONS0_8TaskflowEEUlvE_EENS0_6FutureIvEES8_mOT_EUlvE_S9_EESB_S8_SD_OT0_EUlS2_E_E9_M_invokeERKSt9_Any_dataS2_
   fun:_ZNKSt8functionIFvRN2tf7RuntimeEEEclES2_
   fun:_ZN2tf8Executor25_invoke_runtime_task_implERNS_6WorkerEPNS_4NodeERSt8functionIFvRNS_7RuntimeEEE
   fun:_ZN2tf8Executor18_invoke_async_taskERNS_6WorkerEPNS_4NodeE
   fun:_ZN2tf8Executor7_invokeERNS_6WorkerEPNS_4NodeE
   fun:_ZN2tf8Executor13_exploit_taskERNS_6WorkerERPNS_4NodeE
   fun:_ZZN2tf8Executor6_spawnEmSt10shared_ptrINS_15WorkerInterfaceEEENKUlvE_clEv
}
{
   <insert_a_suppression_name_here>
   Helgrind:Race
   fun:store
   fun:_ZN2tf8Executor13_set_up_graphERNS_5GraphEPNS_8TopologyEPNS_8NodeBaseE
   fun:_ZN2tf8Executor27_schedule_graph_with_parentERNS_6WorkerERNS_5GraphEPNS_8TopologyEPNS_8NodeBaseE
   fun:_ZZN2tf8Executor9run_untilIZNS0_5run_nIZNS0_3runEONS_8TaskflowEEUlvE_EENS_6FutureIvEES4_mOT_EUlvE_S5_EES7_S4_S9_OT0_ENUlRNS_7RuntimeEE_clESE_
   fun:_ZSt13__invoke_implIvRZN2tf8Executor9run_untilIZNS1_5run_nIZNS1_3runEONS0_8TaskflowEEUlvE_EENS0_6FutureIvEES5_mOT_EUlvE_S6_EES8_S5_SA_OT0_EUlRNS0_7RuntimeEE_JSF_EES9_St14__invoke_otherSD_DpOT1_
   fun:_ZSt10__invoke_rIvRZN2tf8Executor9run_untilIZNS1_5run_nIZNS1_3runEONS0_8TaskflowEEUlvE_EENS0_6FutureIvEES5_mOT_EUlvE_S6_EES8_S5_SA_OT0_EUlRNS0_7RuntimeEE_JSF_EENSt9enable_ifIX16is_invocable_r_vIS9_SC_DpT1_EES9_E4typeESD_DpOSJ_
   fun:_ZNSt17_Function_handlerIFvRN2tf7RuntimeEEZNS0_8Executor9run_untilIZNS4_5run_nIZNS4_3runEONS0_8TaskflowEEUlvE_EENS0_6FutureIvEES8_mOT_EUlvE_S9_EESB_S8_SD_OT0_EUlS2_E_E9_M_invokeERKSt9_Any_dataS2_
   fun:_ZNKSt8functionIFvRN2tf7RuntimeEEEclES2_
   fun:_ZN2tf8Executor25_invoke_runtime_task_implERNS_6WorkerEPNS_4NodeERSt8functionIFvRNS_7RuntimeEEE
   fun:_ZN2tf8Executor18_invoke_async_taskERNS_6WorkerEPNS_4NodeE
   fun:_ZN2tf8Executor7_invokeERNS_6WorkerEPNS_4NodeE
   fun:_ZN2tf8Executor13_exploit_taskERNS_6WorkerERPNS_4NodeE
   fun:_ZZN2tf8Executor6_spawnEmSt10shared_ptrINS_15WorkerInterfaceEEENKUlvE_clEv
}
{
   <insert_a_suppression_name_here>
   Helgrind:Race
   fun:_ZN2tf4Node20_set_up_join_counterEv
   fun:_ZN2tf8Executor13_set_up_graphERNS_5GraphEPNS_8TopologyEPNS_8NodeBaseE
   fun:_ZN2tf8Executor27_schedule_graph_with_parentERNS_6WorkerERNS_5GraphEPNS_8TopologyEPNS_8NodeBaseE
   fun:_ZZN2tf8Executor9run_untilIZNS0_5run_nIZNS0_3runEONS_8TaskflowEEUlvE_EENS_6FutureIvEES4_mOT_EUlvE_S5_EES7_S4_S9_OT0_ENUlRNS_7RuntimeEE_clESE_
   fun:_ZSt13__invoke_implIvRZN2tf8Executor9run_untilIZNS1_5run_nIZNS1_3runEONS0_8TaskflowEEUlvE_EENS0_6FutureIvEES5_mOT_EUlvE_S6_EES8_S5_SA_OT0_EUlRNS0_7RuntimeEE_JSF_EES9_St14__invoke_otherSD_DpOT1_
   fun:_ZSt10__invoke_rIvRZN2tf8Executor9run_untilIZNS1_5run_nIZNS1_3runEONS0_8TaskflowEEUlvE_EENS0_6FutureIvEES5_mOT_EUlvE_S6_EES8_S5_SA_OT0_EUlRNS0_7RuntimeEE_JSF_EENSt9enable_ifIX16is_invocable_r_vIS9_SC_DpT1_EES9_E4typeESD_DpOSJ_
   fun:_ZNSt17_Function_handlerIFvRN2tf7RuntimeEEZNS0_8Executor9run_untilIZNS4_5run_nIZNS4_3runEONS0_8TaskflowEEUlvE_EENS0_6FutureIvEES8_mOT_EUlvE_S9_EESB_S8_SD_OT0_EUlS2_E_E9_M_invokeERKSt9_Any_dataS2_
   fun:_ZNKSt8functionIFvRN2tf7RuntimeEEEclES2_
   fun:_ZN2tf8Executor25_invoke_runtime_task_implERNS_6WorkerEPNS_4NodeERSt8functionIFvRNS_7RuntimeEEE
   fun:_ZN2tf8Executor18_invoke_async_taskERNS_6WorkerEPNS_4NodeE
   fun:_ZN2tf8Executor7_invokeERNS_6WorkerEPNS_4NodeE
   fun:_ZN2tf8Executor13_exploit_taskERNS_6WorkerERPNS_4NodeE
}
{
   <insert_a_suppression_name_here>
   Helgrind:Race
   fun:store
   fun:_ZN2tf4Node20_set_up_join_counterEv
   fun:_ZN2tf8Executor13_set_up_graphERNS_5GraphEPNS_8TopologyEPNS_8NodeBaseE
   fun:_ZN2tf8Executor27_schedule_graph_with_parentERNS_6WorkerERNS_5GraphEPNS_8TopologyEPNS_8NodeBaseE
   fun:_ZZN2tf8Executor9run_untilIZNS0_5run_nIZNS0_3runEONS_8TaskflowEEUlvE_EENS_6FutureIvEES4_mOT_EUlvE_S5_EES7_S4_S9_OT0_ENUlRNS_7RuntimeEE_clESE_
   fun:_ZSt13__invoke_implIvRZN2tf8Executor9run_untilIZNS1_5run_nIZNS1_3runEONS0_8TaskflowEEUlvE_EENS0_6FutureIvEES5_mOT_EUlvE_S6_EES8_S5_SA_OT0_EUlRNS0_7RuntimeEE_JSF_EES9_St14__invoke_otherSD_DpOT1_
   fun:_ZSt10__invoke_rIvRZN2tf8Executor9run_untilIZNS1_5run_nIZNS1_3runEONS0_8TaskflowEEUlvE_EENS0_6FutureIvEES5_mOT_EUlvE_S6_EES8_S5_SA_OT0_EUlRNS0_7RuntimeEE_JSF_EENSt9enable_ifIX16is_invocable_r_vIS9_SC_DpT1_EES9_E4typeESD_DpOSJ_
   fun:_ZNSt17_Function_handlerIFvRN2tf7RuntimeEEZNS0_8Executor9run_untilIZNS4_5run_nIZNS4_3runEONS0_8TaskflowEEUlvE_EENS0_6FutureIvEES8_mOT_EUlvE_S9_EESB_S8_SD_OT0_EUlS2_E_E9_M_invokeERKSt9_Any_dataS2_
   fun:_ZNKSt8functionIFvRN2tf7RuntimeEEEclES2_
   fun:_ZN2tf8Executor25_invoke_runtime_task_implERNS_6WorkerEPNS_4NodeERSt8functionIFvRNS_7RuntimeEEE
   fun:_ZN2tf8Executor18_invoke_async_taskERNS_6WorkerEPNS_4NodeE
   fun:_ZN2tf8Executor7_invokeERNS_6WorkerEPNS_4NodeE
   fun:_ZN2tf8Executor13_exploit_taskERNS_6WorkerERPNS_4NodeE
}
{
   <insert_a_suppression_name_here>
   Helgrind:Race
   fun:_ZNSt15__exception_ptr13exception_ptr4swapERS0_
   fun:_ZNSt15__exception_ptr13exception_ptraSEOS0_
   fun:_ZN2tf8Executor13_set_up_graphERNS_5GraphEPNS_8TopologyEPNS_8NodeBaseE
   fun:_ZN2tf8Executor27_schedule_graph_with_parentERNS_6WorkerERNS_5GraphEPNS_8TopologyEPNS_8NodeBaseE
   fun:_ZZN2tf8Executor9run_untilIZNS0_5run_nIZNS0_3runEONS_8TaskflowEEUlvE_EENS_6FutureIvEES4_mOT_EUlvE_S5_EES7_S4_S9_OT0_ENUlRNS_7RuntimeEE_clESE_
   fun:_ZSt13__invoke_implIvRZN2tf8Executor9run_untilIZNS1_5run_nIZNS1_3runEONS0_8TaskflowEEUlvE_EENS0_6FutureIvEES5_mOT_EUlvE_S6_EES8_S5_SA_OT0_EUlRNS0_7RuntimeEE_JSF_EES9_St14__invoke_otherSD_DpOT1_
   fun:_ZSt10__invoke_rIvRZN2tf8Executor9run_untilIZNS1_5run_nIZNS1_3runEONS0_8TaskflowEEUlvE_EENS0_6FutureIvEES5_mOT_EUlvE_S6_EES8_S5_SA_OT0_EUlRNS0_7RuntimeEE_JSF_EENSt9enable_ifIX16is_invocable_r_vIS9_SC_DpT1_EES9_E4typeESD_DpOSJ_
   fun:_ZNSt17_Function_handlerIFvRN2tf7RuntimeEEZNS0_8Executor9run_untilIZNS4_5run_nIZNS4_3runEONS0_8TaskflowEEUlvE_EENS0_6FutureIvEES8_mOT_EUlvE_S9_EESB_S8_SD_OT0_EUlS2_E_E9_M_invokeERKSt9_Any_dataS2_
   fun:_ZNKSt8functionIFvRN2tf7RuntimeEEEclES2_
   fun:_ZN2tf8Executor25_invoke_runtime_task_implERNS_6WorkerEPNS_4NodeERSt8functionIFvRNS_7RuntimeEEE
   fun:_ZN2tf8Executor18_invoke_async_taskERNS_6WorkerEPNS_4NodeE
   fun:_ZN2tf8Executor7_invokeERNS_6WorkerEPNS_4NodeE
}
{
   <insert_a_suppression_name_here>
   Helgrind:Race
   fun:_ZNSt15__exception_ptr13exception_ptr4swapERS0_
   fun:_ZNSt15__exception_ptr13exception_ptraSEOS0_
   fun:_ZN2tf8Executor13_set_up_graphERNS_5GraphEPNS_8TopologyEPNS_8NodeBaseE
   fun:_ZN2tf8Executor27_schedule_graph_with_parentERNS_6WorkerERNS_5GraphEPNS_8TopologyEPNS_8NodeBaseE
   fun:_ZZN2tf8Executor9run_untilIZNS0_5run_nIZNS0_3runEONS_8TaskflowEEUlvE_EENS_6FutureIvEES4_mOT_EUlvE_S5_EES7_S4_S9_OT0_ENUlRNS_7RuntimeEE_clESE_
   fun:_ZSt13__invoke_implIvRZN2tf8Executor9run_untilIZNS1_5run_nIZNS1_3runEONS0_8TaskflowEEUlvE_EENS0_6FutureIvEES5_mOT_EUlvE_S6_EES8_S5_SA_OT0_EUlRNS0_7RuntimeEE_JSF_EES9_St14__invoke_otherSD_DpOT1_
   fun:_ZSt10__invoke_rIvRZN2tf8Executor9run_untilIZNS1_5run_nIZNS1_3runEONS0_8TaskflowEEUlvE_EENS0_6FutureIvEES5_mOT_EUlvE_S6_EES8_S5_SA_OT0_EUlRNS0_7RuntimeEE_JSF_EENSt9enable_ifIX16is_invocable_r_vIS9_SC_DpT1_EES9_E4typeESD_DpOSJ_
   fun:_ZNSt17_Function_handlerIFvRN2tf7RuntimeEEZNS0_8Executor9run_untilIZNS4_5run_nIZNS4_3runEONS0_8TaskflowEEUlvE_EENS0_6FutureIvEES8_mOT_EUlvE_S9_EESB_S8_SD_OT0_EUlS2_E_E9_M_invokeERKSt9_Any_dataS2_
   fun:_ZNKSt8functionIFvRN2tf7RuntimeEEEclES2_
   fun:_ZN2tf8Executor25_invoke_runtime_task_implERNS_6WorkerEPNS_4NodeERSt8functionIFvRNS_7RuntimeEEE
   fun:_ZN2tf8Executor18_invoke_async_taskERNS_6WorkerEPNS_4NodeE
   fun:_ZN2tf8Executor7_invokeERNS_6WorkerEPNS_4NodeE
}
{
   <insert_a_suppression_name_here>
   Helgrind:Race
   fun:_ZSt4swapIPN2tf4NodeEENSt9enable_ifIXsrSt6__and_IJSt6__not_ISt15__is_tuple_likeIT_EESt21is_move_constructibleIS7_ESt18is_move_assignableIS7_EEE5valueEvE4typeERS7_SH_
   fun:_ZSt9iter_swapIN9__gnu_cxx17__normal_iteratorIPPN2tf4NodeESt6vectorIS4_SaIS4_EEEES9_EvT_T0_
   fun:_ZN2tf8Executor13_set_up_graphERNS_5GraphEPNS_8TopologyEPNS_8NodeBaseE
   fun:_ZN2tf8Executor27_schedule_graph_with_parentERNS_6WorkerERNS_5GraphEPNS_8TopologyEPNS_8NodeBaseE
   fun:_ZZN2tf8Executor9run_untilIZNS0_5run_nIZNS0_3runEONS_8TaskflowEEUlvE_EENS_6FutureIvEES4_mOT_EUlvE_S5_EES7_S4_S9_OT0_ENUlRNS_7RuntimeEE_clESE_
   fun:_ZSt13__invoke_implIvRZN2tf8Executor9run_untilIZNS1_5run_nIZNS1_3runEONS0_8TaskflowEEUlvE_EENS0_6FutureIvEES5_mOT_EUlvE_S6_EES8_S5_SA_OT0_EUlRNS0_7RuntimeEE_JSF_EES9_St14__invoke_otherSD_DpOT1_
   fun:_ZSt10__invoke_rIvRZN2tf8Executor9run_untilIZNS1_5run_nIZNS1_3runEONS0_8TaskflowEEUlvE_EENS0_6FutureIvEES5_mOT_EUlvE_S6_EES8_S5_SA_OT0_EUlRNS0_7RuntimeEE_JSF_EENSt9enable_ifIX16is_invocable_r_vIS9_SC_DpT1_EES9_E4typeESD_DpOSJ_
   fun:_ZNSt17_Function_handlerIFvRN2tf7RuntimeEEZNS0_8Executor9run_untilIZNS4_5run_nIZNS4_3runEONS0_8TaskflowEEUlvE_EENS0_6FutureIvEES8_mOT_EUlvE_S9_EESB_S8_SD_OT0_EUlS2_E_E9_M_invokeERKSt9_Any_dataS2_
   fun:_ZNKSt8functionIFvRN2tf7RuntimeEEEclES2_
   fun:_ZN2tf8Executor25_invoke_runtime_task_implERNS_6WorkerEPNS_4NodeERSt8functionIFvRNS_7RuntimeEEE
   fun:_ZN2tf8Executor18_invoke_async_taskERNS_6WorkerEPNS_4NodeE
   fun:_ZN2tf8Executor7_invokeERNS_6WorkerEPNS_4NodeE
}
{
   <insert_a_suppression_name_here>
   Helgrind:Race
   fun:fetch_add
   fun:_ZN2tf8Executor27_schedule_graph_with_parentERNS_6WorkerERNS_5GraphEPNS_8TopologyEPNS_8NodeBaseE
   fun:_ZZN2tf8Executor9run_untilIZNS0_5run_nIZNS0_3runEONS_8TaskflowEEUlvE_EENS_6FutureIvEES4_mOT_EUlvE_S5_EES7_S4_S9_OT0_ENUlRNS_7RuntimeEE_clESE_
   fun:_ZSt13__invoke_implIvRZN2tf8Executor9run_untilIZNS1_5run_nIZNS1_3runEONS0_8TaskflowEEUlvE_EENS0_6FutureIvEES5_mOT_EUlvE_S6_EES8_S5_SA_OT0_EUlRNS0_7RuntimeEE_JSF_EES9_St14__invoke_otherSD_DpOT1_
   fun:_ZSt10__invoke_rIvRZN2tf8Executor9run_untilIZNS1_5run_nIZNS1_3runEONS0_8TaskflowEEUlvE_EENS0_6FutureIvEES5_mOT_EUlvE_S6_EES8_S5_SA_OT0_EUlRNS0_7RuntimeEE_JSF_EENSt9enable_ifIX16is_invocable_r_vIS9_SC_DpT1_EES9_E4typeESD_DpOSJ_
   fun:_ZNSt17_Function_handlerIFvRN2tf7RuntimeEEZNS0_8Executor9run_untilIZNS4_5run_nIZNS4_3runEONS0_8TaskflowEEUlvE_EENS0_6FutureIvEES8_mOT_EUlvE_S9_EESB_S8_SD_OT0_EUlS2_E_E9_M_invokeERKSt9_Any_dataS2_
   fun:_ZNKSt8functionIFvRN2tf7RuntimeEEEclES2_
   fun:_ZN2tf8Executor25_invoke_runtime_task_implERNS_6WorkerEPNS_4NodeERSt8functionIFvRNS_7RuntimeEEE
   fun:_ZN2tf8Executor18_invoke_async_taskERNS_6WorkerEPNS_4NodeE
   fun:_ZN2tf8Executor7_invokeERNS_6WorkerEPNS_4NodeE
   fun:_ZN2tf8Executor13_exploit_taskERNS_6WorkerERPNS_4NodeE
   fun:_ZZN2tf8Executor6_spawnEmSt10shared_ptrINS_15WorkerInterfaceEEENKUlvE_clEv
   fun:_ZSt13__invoke_implIvZN2tf8Executor6_spawnEmSt10shared_ptrINS0_15WorkerInterfaceEEEUlvE_JEET_St14__invoke_otherOT0_DpOT1_
}
{
   <insert_a_suppression_name_here>
   Helgrind:Race
   fun:fetch_sub
   fun:_ZN2tf8Executor25_invoke_runtime_task_implERNS_6WorkerEPNS_4NodeERSt8functionIFvRNS_7RuntimeEEE
   fun:_ZN2tf8Executor18_invoke_async_taskERNS_6WorkerEPNS_4NodeE
   fun:_ZN2tf8Executor7_invokeERNS_6WorkerEPNS_4NodeE
   fun:_ZN2tf8Executor13_exploit_taskERNS_6WorkerERPNS_4NodeE
   fun:_ZZN2tf8Executor6_spawnEmSt10shared_ptrINS_15WorkerInterfaceEEENKUlvE_clEv
   fun:_ZSt13__invoke_implIvZN2tf8Executor6_spawnEmSt10shared_ptrINS0_15WorkerInterfaceEEEUlvE_JEET_St14__invoke_otherOT0_DpOT1_
   fun:_ZSt8__invokeIZN2tf8Executor6_spawnEmSt10shared_ptrINS0_15WorkerInterfaceEEEUlvE_JEENSt15__invoke_resultIT_JDpT0_EE4typeEOS7_DpOS8_
   fun:_ZNSt6thread8_InvokerISt5tupleIJZN2tf8Executor6_spawnEmSt10shared_ptrINS2_15WorkerInterfaceEEEUlvE_EEE9_M_invokeIJLm0EEEEvSt12_Index_tupleIJXspT_EEE
   fun:_ZNSt6thread8_InvokerISt5tupleIJZN2tf8Executor6_spawnEmSt10shared_ptrINS2_15WorkerInterfaceEEEUlvE_EEEclEv
   fun:_ZNSt6thread11_State_implINS_8_InvokerISt5tupleIJZN2tf8Executor6_spawnEmSt10shared_ptrINS3_15WorkerInterfaceEEEUlvE_EEEEE6_M_runEv
   obj:/usr/lib/x86_64-linux-gnu/libstdc++.so.6.0.33
   obj:/usr/libexec/valgrind/vgpreload_helgrind-amd64-linux.so
}
{
   <insert_a_suppression_name_here>
   Helgrind:Race
   fun:_ZNSt14_Function_base13_Base_managerIZN2tf19make_transform_taskIN9__gnu_cxx17__normal_iteratorIPN4mpcf3PcfIffEESt6vectorIS7_SaIS7_EEEESC_NS4_IPfS9_IfSaIfEEEEZNS5_16apply_functionalISC_SG_ZN12_GLOBAL__N_165PcfAlgebraAndNormsTest_ApplyFunctionalWithL1NormMultiplePcfs_TestIS7_E8TestBodyEvEUlRKS7_E_EEvT_SO_T0_T1_RNS5_8ExecutorEEUlRS7_E_NS1_17GuidedPartitionerINS1_21DefaultClosureWrapperEEELPv0EEEDaSO_SP_SQ_T2_T3_EUlRNS1_7RuntimeEE_E14_M_get_pointerERKSt9_Any_data
   fun:_ZNSt17_Function_handlerIFvRN2tf7RuntimeEEZNS0_19make_transform_taskIN9__gnu_cxx17__normal_iteratorIPN4mpcf3PcfIffEESt6vectorIS9_SaIS9_EEEESE_NS6_IPfSB_IfSaIfEEEEZNS7_16apply_functionalISE_SI_ZN12_GLOBAL__N_165PcfAlgebraAndNormsTest_ApplyFunctionalWithL1NormMultiplePcfs_TestIS9_E8TestBodyEvEUlRKS9_E_EEvT_SQ_T0_T1_RNS7_8ExecutorEEUlRS9_E_NS0_17GuidedPartitionerINS0_21DefaultClosureWrapperEEELPv0EEEDaSQ_SR_SS_T2_T3_EUlS2_E_E9_M_invokeERKSt9_Any_dataS2_
   fun:_ZNKSt8functionIFvRN2tf7RuntimeEEEclES2_
   fun:_ZN2tf8Executor25_invoke_runtime_task_implERNS_6WorkerEPNS_4NodeERSt8functionIFvRNS_7RuntimeEEE
   fun:_ZN2tf8Executor20_invoke_runtime_taskERNS_6WorkerEPNS_4NodeE
   fun:_ZN2tf8Executor7_invokeERNS_6WorkerEPNS_4NodeE
   fun:_ZN2tf8Executor13_exploit_taskERNS_6WorkerERPNS_4NodeE
   fun:_ZZN2tf8Executor6_spawnEmSt10shared_ptrINS_15WorkerInterfaceEEENKUlvE_clEv
   fun:_ZSt13__invoke_implIvZN2tf8Executor6_spawnEmSt10shared_ptrINS0_15WorkerInterfaceEEEUlvE_JEET_St14__invoke_otherOT0_DpOT1_
   fun:_ZSt8__invokeIZN2tf8Executor6_spawnEmSt10shared_ptrINS0_15WorkerInterfaceEEEUlvE_JEENSt15__invoke_resultIT_JDpT0_EE4typeEOS7_DpOS8_
   fun:_ZNSt6thread8_InvokerISt5tupleIJZN2tf8Executor6_spawnEmSt10shared_ptrINS2_15WorkerInterfaceEEEUlvE_EEE9_M_invokeIJLm0EEEEvSt12_Index_tupleIJXspT_EEE
   fun:_ZNSt6thread8_InvokerISt5tupleIJZN2tf8Executor6_spawnEmSt10shared_ptrINS2_15WorkerInterfaceEEEUlvE_EEEclEv
}
{
   <insert_a_suppression_name_here>
   Helgrind:Race
   fun:_ZZN2tf19make_transform_taskIN9__gnu_cxx17__normal_iteratorIPN4mpcf3PcfIffEESt6vectorIS5_SaIS5_EEEESA_NS2_IPfS7_IfSaIfEEEEZNS3_16apply_functionalISA_SE_ZN12_GLOBAL__N_165PcfAlgebraAndNormsTest_ApplyFunctionalWithL1NormMultiplePcfs_TestIS5_E8TestBodyEvEUlRKS5_E_EEvT_SM_T0_T1_RNS3_8ExecutorEEUlRS5_E_NS_17GuidedPartitionerINS_21DefaultClosureWrapperEEELPv0EEEDaSM_SN_SO_T2_T3_ENUlRNS_7RuntimeEE_clES10_
   fun:_ZSt13__invoke_implIvRZN2tf19make_transform_taskIN9__gnu_cxx17__normal_iteratorIPN4mpcf3PcfIffEESt6vectorIS6_SaIS6_EEEESB_NS3_IPfS8_IfSaIfEEEEZNS4_16apply_functionalISB_SF_ZN12_GLOBAL__N_165PcfAlgebraAndNormsTest_ApplyFunctionalWithL1NormMultiplePcfs_TestIS6_E8TestBodyEvEUlRKS6_E_EEvT_SN_T0_T1_RNS4_8ExecutorEEUlRS6_E_NS0_17GuidedPartitionerINS0_21DefaultClosureWrapperEEELPv0EEEDaSN_SO_SP_T2_T3_EUlRNS0_7RuntimeEE_JS11_EESN_St14__invoke_otherOSO_DpOT1_
   fun:_ZSt10__invoke_rIvRZN2tf19make_transform_taskIN9__gnu_cxx17__normal_iteratorIPN4mpcf3PcfIffEESt6vectorIS6_SaIS6_EEEESB_NS3_IPfS8_IfSaIfEEEEZNS4_16apply_functionalISB_SF_ZN12_GLOBAL__N_165PcfAlgebraAndNormsTest_ApplyFunctionalWithL1NormMultiplePcfs_TestIS6_E8TestBodyEvEUlRKS6_E_EEvT_SN_T0_T1_RNS4_8ExecutorEEUlRS6_E_NS0_17GuidedPartitionerINS0_21DefaultClosureWrapperEEELPv0EEEDaSN_SO_SP_T2_T3_EUlRNS0_7RuntimeEE_JS11_EENSt9enable_ifIX16is_invocable_r_vISN_SO_DpT1_EESN_E4typeEOSO_DpOS15_
   fun:_ZNSt17_Function_handlerIFvRN2tf7RuntimeEEZNS0_19make_transform_taskIN9__gnu_cxx17__normal_iteratorIPN4mpcf3PcfIffEESt6vectorIS9_SaIS9_EEEESE_NS6_IPfSB_IfSaIfEEEEZNS7_16apply_functionalISE_SI_ZN12_GLOBAL__N_165PcfAlgebraAndNormsTest_ApplyFunctionalWithL1NormMultiplePcfs_TestIS9_E8TestBodyEvEUlRKS9_E_EEvT_SQ_T0_T1_RNS7_8ExecutorEEUlRS9_E_NS0_17GuidedPartitionerINS0_21DefaultClosureWrapperEEELPv0EEEDaSQ_SR_SS_T2_T3_EUlS2_E_E9_M_invokeERKSt9_Any_dataS2_
   fun:_ZNKSt8functionIFvRN2tf7RuntimeEEEclES2_
   fun:_ZN2tf8Executor25_invoke_runtime_task_implERNS_6WorkerEPNS_4NodeERSt8functionIFvRNS_7RuntimeEEE
   fun:_ZN2tf8Executor20_invoke_runtime_taskERNS_6WorkerEPNS_4NodeE
   fun:_ZN2tf8Executor7_invokeERNS_6WorkerEPNS_4NodeE
   fun:_ZN2tf8Executor13_exploit_taskERNS_6WorkerERPNS_4NodeE
   fun:_ZZN2tf8Executor6_spawnEmSt10shared_ptrINS_15WorkerInterfaceEEENKUlvE_clEv
   fun:_ZSt13__invoke_implIvZN2tf8Executor6_spawnEmSt10shared_ptrINS0_15WorkerInterfaceEEEUlvE_JEET_St14__invoke_otherOT0_DpOT1_
   fun:_ZSt8__invokeIZN2tf8Executor6_spawnEmSt10shared_ptrINS0_15WorkerInterfaceEEEUlvE_JEENSt15__invoke_resultIT_JDpT0_EE4typeEOS7_DpOS8_
}
{
   <insert_a_suppression_name_here>
   Helgrind:Race
   fun:_ZZN2tf19make_transform_taskIN9__gnu_cxx17__normal_iteratorIPN4mpcf3PcfIffEESt6vectorIS5_SaIS5_EEEESA_NS2_IPfS7_IfSaIfEEEEZNS3_16apply_functionalISA_SE_ZN12_GLOBAL__N_165PcfAlgebraAndNormsTest_ApplyFunctionalWithL1NormMultiplePcfs_TestIS5_E8TestBodyEvEUlRKS5_E_EEvT_SM_T0_T1_RNS3_8ExecutorEEUlRS5_E_NS_17GuidedPartitionerINS_21DefaultClosureWrapperEEELPv0EEEDaSM_SN_SO_T2_T3_ENUlRNS_7RuntimeEE_clES10_
   fun:_ZSt13__invoke_implIvRZN2tf19make_transform_taskIN9__gnu_cxx17__normal_iteratorIPN4mpcf3PcfIffEESt6vectorIS6_SaIS6_EEEESB_NS3_IPfS8_IfSaIfEEEEZNS4_16apply_functionalISB_SF_ZN12_GLOBAL__N_165PcfAlgebraAndNormsTest_ApplyFunctionalWithL1NormMultiplePcfs_TestIS6_E8TestBodyEvEUlRKS6_E_EEvT_SN_T0_T1_RNS4_8ExecutorEEUlRS6_E_NS0_17GuidedPartitionerINS0_21DefaultClosureWrapperEEELPv0EEEDaSN_SO_SP_T2_T3_EUlRNS0_7RuntimeEE_JS11_EESN_St14__invoke_otherOSO_DpOT1_
   fun:_ZSt10__invoke_rIvRZN2tf19make_transform_taskIN9__gnu_cxx17__normal_iteratorIPN4mpcf3PcfIffEESt6vectorIS6_SaIS6_EEEESB_NS3_IPfS8_IfSaIfEEEEZNS4_16apply_functionalISB_SF_ZN12_GLOBAL__N_165PcfAlgebraAndNormsTest_ApplyFunctionalWithL1NormMultiplePcfs_TestIS6_E8TestBodyEvEUlRKS6_E_EEvT_SN_T0_T1_RNS4_8ExecutorEEUlRS6_E_NS0_17GuidedPartitionerINS0_21DefaultClosureWrapperEEELPv0EEEDaSN_SO_SP_T2_T3_EUlRNS0_7RuntimeEE_JS11_EENSt9enable_ifIX16is_invocable_r_vISN_SO_DpT1_EESN_E4typeEOSO_DpOS15_
   fun:_ZNSt17_Function_handlerIFvRN2tf7RuntimeEEZNS0_19make_transform_taskIN9__gnu_cxx17__normal_iteratorIPN4mpcf3PcfIffEESt6vectorIS9_SaIS9_EEEESE_NS6_IPfSB_IfSaIfEEEEZNS7_16apply_functionalISE_SI_ZN12_GLOBAL__N_165PcfAlgebraAndNormsTest_ApplyFunctionalWithL1NormMultiplePcfs_TestIS9_E8TestBodyEvEUlRKS9_E_EEvT_SQ_T0_T1_RNS7_8ExecutorEEUlRS9_E_NS0_17GuidedPartitionerINS0_21DefaultClosureWrapperEEELPv0EEEDaSQ_SR_SS_T2_T3_EUlS2_E_E9_M_invokeERKSt9_Any_dataS2_
   fun:_ZNKSt8functionIFvRN2tf7RuntimeEEEclES2_
   fun:_ZN2tf8Executor25_invoke_runtime_task_implERNS_6WorkerEPNS_4NodeERSt8functionIFvRNS_7RuntimeEEE
   fun:_ZN2tf8Executor20_invoke_runtime_taskERNS_6WorkerEPNS_4NodeE
   fun:_ZN2tf8Executor7_invokeERNS_6WorkerEPNS_4NodeE
   fun:_ZN2tf8Executor13_exploit_taskERNS_6WorkerERPNS_4NodeE
   fun:_ZZN2tf8Executor6_spawnEmSt10shared_ptrINS_15WorkerInterfaceEEENKUlvE_clEv
   fun:_ZSt13__invoke_implIvZN2tf8Executor6_spawnEmSt10shared_ptrINS0_15WorkerInterfaceEEEUlvE_JEET_St14__invoke_otherOT0_DpOT1_
   fun:_ZSt8__invokeIZN2tf8Executor6_spawnEmSt10shared_ptrINS0_15WorkerInterfaceEEEUlvE_JEENSt15__invoke_resultIT_JDpT0_EE4typeEOS7_DpOS8_
}
{
   <insert_a_suppression_name_here>
   Helgrind:Race
   fun:_ZZN2tf19make_transform_taskIN9__gnu_cxx17__normal_iteratorIPN4mpcf3PcfIffEESt6vectorIS5_SaIS5_EEEESA_NS2_IPfS7_IfSaIfEEEEZNS3_16apply_functionalISA_SE_ZN12_GLOBAL__N_165PcfAlgebraAndNormsTest_ApplyFunctionalWithL1NormMultiplePcfs_TestIS5_E8TestBodyEvEUlRKS5_E_EEvT_SM_T0_T1_RNS3_8ExecutorEEUlRS5_E_NS_17GuidedPartitionerINS_21DefaultClosureWrapperEEELPv0EEEDaSM_SN_SO_T2_T3_ENUlRNS_7RuntimeEE_clES10_
   fun:_ZSt13__invoke_implIvRZN2tf19make_transform_taskIN9__gnu_cxx17__normal_iteratorIPN4mpcf3PcfIffEESt6vectorIS6_SaIS6_EEEESB_NS3_IPfS8_IfSaIfEEEEZNS4_16apply_functionalISB_SF_ZN12_GLOBAL__N_165PcfAlgebraAndNormsTest_ApplyFunctionalWithL1NormMultiplePcfs_TestIS6_E8TestBodyEvEUlRKS6_E_EEvT_SN_T0_T1_RNS4_8ExecutorEEUlRS6_E_NS0_17GuidedPartitionerINS0_21DefaultClosureWrapperEEELPv0EEEDaSN_SO_SP_T2_T3_EUlRNS0_7RuntimeEE_JS11_EESN_St14__invoke_otherOSO_DpOT1_
   fun:_ZSt10__invoke_rIvRZN2tf19make_transform_taskIN9__gnu_cxx17__normal_iteratorIPN4mpcf3PcfIffEESt6vectorIS6_SaIS6_EEEESB_NS3_IPfS8_IfSaIfEEEEZNS4_16apply_functionalISB_SF_ZN12_GLOBAL__N_165PcfAlgebraAndNormsTest_ApplyFunctionalWithL1NormMultiplePcfs_TestIS6_E8TestBodyEvEUlRKS6_E_EEvT_SN_T0_T1_RNS4_8ExecutorEEUlRS6_E_NS0_17GuidedPartitionerINS0_21DefaultClosureWrapperEEELPv0EEEDaSN_SO_SP_T2_T3_EUlRNS0_7RuntimeEE_JS11_EENSt9enable_ifIX16is_invocable_r_vISN_SO_DpT1_EESN_E4typeEOSO_DpOS15_
   fun:_ZNSt17_Function_handlerIFvRN2tf7RuntimeEEZNS0_19make_transform_taskIN9__gnu_cxx17__normal_iteratorIPN4mpcf3PcfIffEESt6vectorIS9_SaIS9_EEEESE_NS6_IPfSB_IfSaIfEEEEZNS7_16apply_functionalISE_SI_ZN12_GLOBAL__N_165PcfAlgebraAndNormsTest_ApplyFunctionalWithL1NormMultiplePcfs_TestIS9_E8TestBodyEvEUlRKS9_E_EEvT_SQ_T0_T1_RNS7_8ExecutorEEUlRS9_E_NS0_17GuidedPartitionerINS0_21DefaultClosureWrapperEEELPv0EEEDaSQ_SR_SS_T2_T3_EUlS2_E_E9_M_invokeERKSt9_Any_dataS2_
   fun:_ZNKSt8functionIFvRN2tf7RuntimeEEEclES2_
   fun:_ZN2tf8Executor25_invoke_runtime_task_implERNS_6WorkerEPNS_4NodeERSt8functionIFvRNS_7RuntimeEEE
   fun:_ZN2tf8Executor20_invoke_runtime_taskERNS_6WorkerEPNS_4NodeE
   fun:_ZN2tf8Executor7_invokeERNS_6WorkerEPNS_4NodeE
   fun:_ZN2tf8Executor13_exploit_taskERNS_6WorkerERPNS_4NodeE
   fun:_ZZN2tf8Executor6_spawnEmSt10shared_ptrINS_15WorkerInterfaceEEENKUlvE_clEv
   fun:_ZSt13__invoke_implIvZN2tf8Executor6_spawnEmSt10shared_ptrINS0_15WorkerInterfaceEEEUlvE_JEET_St14__invoke_otherOT0_DpOT1_
   fun:_ZSt8__invokeIZN2tf8Executor6_spawnEmSt10shared_ptrINS0_15WorkerInterfaceEEEUlvE_JEENSt15__invoke_resultIT_JDpT0_EE4typeEOS7_DpOS8_
}
{
   <insert_a_suppression_name_here>
   Helgrind:Race
   fun:_ZNK2tf15PartitionerBaseINS_21DefaultClosureWrapperEE10chunk_sizeEv
   fun:_ZZN2tf19make_transform_taskIN9__gnu_cxx17__normal_iteratorIPN4mpcf3PcfIffEESt6vectorIS5_SaIS5_EEEESA_NS2_IPfS7_IfSaIfEEEEZNS3_16apply_functionalISA_SE_ZN12_GLOBAL__N_165PcfAlgebraAndNormsTest_ApplyFunctionalWithL1NormMultiplePcfs_TestIS5_E8TestBodyEvEUlRKS5_E_EEvT_SM_T0_T1_RNS3_8ExecutorEEUlRS5_E_NS_17GuidedPartitionerINS_21DefaultClosureWrapperEEELPv0EEEDaSM_SN_SO_T2_T3_ENUlRNS_7RuntimeEE_clES10_
   fun:_ZSt13__invoke_implIvRZN2tf19make_transform_taskIN9__gnu_cxx17__normal_iteratorIPN4mpcf3PcfIffEESt6vectorIS6_SaIS6_EEEESB_NS3_IPfS8_IfSaIfEEEEZNS4_16apply_functionalISB_SF_ZN12_GLOBAL__N_165PcfAlgebraAndNormsTest_ApplyFunctionalWithL1NormMultiplePcfs_TestIS6_E8TestBodyEvEUlRKS6_E_EEvT_SN_T0_T1_RNS4_8ExecutorEEUlRS6_E_NS0_17GuidedPartitionerINS0_21DefaultClosureWrapperEEELPv0EEEDaSN_SO_SP_T2_T3_EUlRNS0_7RuntimeEE_JS11_EESN_St14__invoke_otherOSO_DpOT1_
   fun:_ZSt10__invoke_rIvRZN2tf19make_transform_taskIN9__gnu_cxx17__normal_iteratorIPN4mpcf3PcfIffEESt6vectorIS6_SaIS6_EEEESB_NS3_IPfS8_IfSaIfEEEEZNS4_16apply_functionalISB_SF_ZN12_GLOBAL__N_165PcfAlgebraAndNormsTest_ApplyFunctionalWithL1NormMultiplePcfs_TestIS6_E8TestBodyEvEUlRKS6_E_EEvT_SN_T0_T1_RNS4_8ExecutorEEUlRS6_E_NS0_17GuidedPartitionerINS0_21DefaultClosureWrapperEEELPv0EEEDaSN_SO_SP_T2_T3_EUlRNS0_7RuntimeEE_JS11_EENSt9enable_ifIX16is_invocable_r_vISN_SO_DpT1_EESN_E4typeEOSO_DpOS15_
   fun:_ZNSt17_Function_handlerIFvRN2tf7RuntimeEEZNS0_19make_transform_taskIN9__gnu_cxx17__normal_iteratorIPN4mpcf3PcfIffEESt6vectorIS9_SaIS9_EEEESE_NS6_IPfSB_IfSaIfEEEEZNS7_16apply_functionalISE_SI_ZN12_GLOBAL__N_165PcfAlgebraAndNormsTest_ApplyFunctionalWithL1NormMultiplePcfs_TestIS9_E8TestBodyEvEUlRKS9_E_EEvT_SQ_T0_T1_RNS7_8ExecutorEEUlRS9_E_NS0_17GuidedPartitionerINS0_21DefaultClosureWrapperEEELPv0EEEDaSQ_SR_SS_T2_T3_EUlS2_E_E9_M_invokeERKSt9_Any_dataS2_
   fun:_ZNKSt8functionIFvRN2tf7RuntimeEEEclES2_
   fun:_ZN2tf8Executor25_invoke_runtime_task_implERNS_6WorkerEPNS_4NodeERSt8functionIFvRNS_7RuntimeEEE
   fun:_ZN2tf8Executor20_invoke_runtime_taskERNS_6WorkerEPNS_4NodeE
   fun:_ZN2tf8Executor7_invokeERNS_6WorkerEPNS_4NodeE
   fun:_ZN2tf8Executor13_exploit_taskERNS_6WorkerERPNS_4NodeE
   fun:_ZZN2tf8Executor6_spawnEmSt10shared_ptrINS_15WorkerInterfaceEEENKUlvE_clEv
   fun:_ZSt13__invoke_implIvZN2tf8Executor6_spawnEmSt10shared_ptrINS0_15WorkerInterfaceEEEUlvE_JEET_St14__invoke_otherOT0_DpOT1_
}
{
   <insert_a_suppression_name_here>
   Helgrind:Race
   fun:_ZZN2tf19make_transform_taskIN9__gnu_cxx17__normal_iteratorIPN4mpcf3PcfIffEESt6vectorIS5_SaIS5_EEEESA_NS2_IPfS7_IfSaIfEEEEZNS3_16apply_functionalISA_SE_ZN12_GLOBAL__N_165PcfAlgebraAndNormsTest_ApplyFunctionalWithL1NormMultiplePcfs_TestIS5_E8TestBodyEvEUlRKS5_E_EEvT_SM_T0_T1_RNS3_8ExecutorEEUlRS5_E_NS_17GuidedPartitionerINS_21DefaultClosureWrapperEEELPv0EEEDaSM_SN_SO_T2_T3_ENUlRNS_7RuntimeEE_clES10_
   fun:_ZSt13__invoke_implIvRZN2tf19make_transform_taskIN9__gnu_cxx17__normal_iteratorIPN4mpcf3PcfIffEESt6vectorIS6_SaIS6_EEEESB_NS3_IPfS8_IfSaIfEEEEZNS4_16apply_functionalISB_SF_ZN12_GLOBAL__N_165PcfAlgebraAndNormsTest_ApplyFunctionalWithL1NormMultiplePcfs_TestIS6_E8TestBodyEvEUlRKS6_E_EEvT_SN_T0_T1_RNS4_8ExecutorEEUlRS6_E_NS0_17GuidedPartitionerINS0_21DefaultClosureWrapperEEELPv0EEEDaSN_SO_SP_T2_T3_EUlRNS0_7RuntimeEE_JS11_EESN_St14__invoke_otherOSO_DpOT1_
   fun:_ZSt10__invoke_rIvRZN2tf19make_transform_taskIN9__gnu_cxx17__normal_iteratorIPN4mpcf3PcfIffEESt6vectorIS6_SaIS6_EEEESB_NS3_IPfS8_IfSaIfEEEEZNS4_16apply_functionalISB_SF_ZN12_GLOBAL__N_165PcfAlgebraAndNormsTest_ApplyFunctionalWithL1NormMultiplePcfs_TestIS6_E8TestBodyEvEUlRKS6_E_EEvT_SN_T0_T1_RNS4_8ExecutorEEUlRS6_E_NS0_17GuidedPartitionerINS0_21DefaultClosureWrapperEEELPv0EEEDaSN_SO_SP_T2_T3_EUlRNS0_7RuntimeEE_JS11_EENSt9enable_ifIX16is_invocable_r_vISN_SO_DpT1_EESN_E4typeEOSO_DpOS15_
   fun:_ZNSt17_Function_handlerIFvRN2tf7RuntimeEEZNS0_19make_transform_taskIN9__gnu_cxx17__normal_iteratorIPN4mpcf3PcfIffEESt6vectorIS9_SaIS9_EEEESE_NS6_IPfSB_IfSaIfEEEEZNS7_16apply_functionalISE_SI_ZN12_GLOBAL__N_165PcfAlgebraAndNormsTest_ApplyFunctionalWithL1NormMultiplePcfs_TestIS9_E8TestBodyEvEUlRKS9_E_EEvT_SQ_T0_T1_RNS7_8ExecutorEEUlRS9_E_NS0_17GuidedPartitionerINS0_21DefaultClosureWrapperEEELPv0EEEDaSQ_SR_SS_T2_T3_EUlS2_E_E9_M_invokeERKSt9_Any_dataS2_
   fun:_ZNKSt8functionIFvRN2tf7RuntimeEEEclES2_
   fun:_ZN2tf8Executor25_invoke_runtime_task_implERNS_6WorkerEPNS_4NodeERSt8functionIFvRNS_7RuntimeEEE
   fun:_ZN2tf8Executor20_invoke_runtime_taskERNS_6WorkerEPNS_4NodeE
   fun:_ZN2tf8Executor7_invokeERNS_6WorkerEPNS_4NodeE
   fun:_ZN2tf8Executor13_exploit_taskERNS_6WorkerERPNS_4NodeE
   fun:_ZZN2tf8Executor6_spawnEmSt10shared_ptrINS_15WorkerInterfaceEEENKUlvE_clEv
   fun:_ZSt13__invoke_implIvZN2tf8Executor6_spawnEmSt10shared_ptrINS0_15WorkerInterfaceEEEUlvE_JEET_St14__invoke_otherOT0_DpOT1_
   fun:_ZSt8__invokeIZN2tf8Executor6_spawnEmSt10shared_ptrINS0_15WorkerInterfaceEEEUlvE_JEENSt15__invoke_resultIT_JDpT0_EE4typeEOS7_DpOS8_
}
{
   <insert_a_suppression_name_here>
   Helgrind:Race
   fun:_ZZN2tf19make_transform_taskIN9__gnu_cxx17__normal_iteratorIPN4mpcf3PcfIffEESt6vectorIS5_SaIS5_EEEESA_NS2_IPfS7_IfSaIfEEEEZNS3_16apply_functionalISA_SE_ZN12_GLOBAL__N_165PcfAlgebraAndNormsTest_ApplyFunctionalWithL1NormMultiplePcfs_TestIS5_E8TestBodyEvEUlRKS5_E_EEvT_SM_T0_T1_RNS3_8ExecutorEEUlRS5_E_NS_17GuidedPartitionerINS_21DefaultClosureWrapperEEELPv0EEEDaSM_SN_SO_T2_T3_ENUlRNS_7RuntimeEE_clES10_
   fun:_ZSt13__invoke_implIvRZN2tf19make_transform_taskIN9__gnu_cxx17__normal_iteratorIPN4mpcf3PcfIffEESt6vectorIS6_SaIS6_EEEESB_NS3_IPfS8_IfSaIfEEEEZNS4_16apply_functionalISB_SF_ZN12_GLOBAL__N_165PcfAlgebraAndNormsTest_ApplyFunctionalWithL1NormMultiplePcfs_TestIS6_E8TestBodyEvEUlRKS6_E_EEvT_SN_T0_T1_RNS4_8ExecutorEEUlRS6_E_NS0_17GuidedPartitionerINS0_21DefaultClosureWrapperEEELPv0EEEDaSN_SO_SP_T2_T3_EUlRNS0_7RuntimeEE_JS11_EESN_St14__invoke_otherOSO_DpOT1_
   fun:_ZSt10__invoke_rIvRZN2tf19make_transform_taskIN9__gnu_cxx17__normal_iteratorIPN4mpcf3PcfIffEESt6vectorIS6_SaIS6_EEEESB_NS3_IPfS8_IfSaIfEEEEZNS4_16apply_functionalISB_SF_ZN12_GLOBAL__N_165PcfAlgebraAndNormsTest_ApplyFunctionalWithL1NormMultiplePcfs_TestIS6_E8TestBodyEvEUlRKS6_E_EEvT_SN_T0_T1_RNS4_8ExecutorEEUlRS6_E_NS0_17GuidedPartitionerINS0_21DefaultClosureWrapperEEELPv0EEEDaSN_SO_SP_T2_T3_EUlRNS0_7RuntimeEE_JS11_EENSt9enable_ifIX16is_invocable_r_vISN_SO_DpT1_EESN_E4typeEOSO_DpOS15_
   fun:_ZNSt17_Function_handlerIFvRN2tf7RuntimeEEZNS0_19make_transform_taskIN9__gnu_cxx17__normal_iteratorIPN4mpcf3PcfIffEESt6vectorIS9_SaIS9_EEEESE_NS6_IPfSB_IfSaIfEEEEZNS7_16apply_functionalISE_SI_ZN12_GLOBAL__N_165PcfAlgebraAndNormsTest_ApplyFunctionalWithL1NormMultiplePcfs_TestIS9_E8TestBodyEvEUlRKS9_E_EEvT_SQ_T0_T1_RNS7_8ExecutorEEUlRS9_E_NS0_17GuidedPartitionerINS0_21DefaultClosureWrapperEEELPv0EEEDaSQ_SR_SS_T2_T3_EUlS2_E_E9_M_invokeERKSt9_Any_dataS2_
   fun:_ZNKSt8functionIFvRN2tf7RuntimeEEEclES2_
   fun:_ZN2tf8Executor25_invoke_runtime_task_implERNS_6WorkerEPNS_4NodeERSt8functionIFvRNS_7RuntimeEEE
   fun:_ZN2tf8Executor20_invoke_runtime_taskERNS_6WorkerEPNS_4NodeE
   fun:_ZN2tf8Executor7_invokeERNS_6WorkerEPNS_4NodeE
   fun:_ZN2tf8Executor13_exploit_taskERNS_6WorkerERPNS_4NodeE
   fun:_ZZN2tf8Executor6_spawnEmSt10shared_ptrINS_15WorkerInterfaceEEENKUlvE_clEv
   fun:_ZSt13__invoke_implIvZN2tf8Executor6_spawnEmSt10shared_ptrINS0_15WorkerInterfaceEEEUlvE_JEET_St14__invoke_otherOT0_DpOT1_
   fun:_ZSt8__invokeIZN2tf8Executor6_spawnEmSt10shared_ptrINS0_15WorkerInterfaceEEEUlvE_JEENSt15__invoke_resultIT_JDpT0_EE4typeEOS7_DpOS8_
}
{
   <insert_a_suppression_name_here>
   Helgrind:Race
   fun:_ZNKSt10_HashtableINSt6thread2idESt4pairIKS1_PN2tf6WorkerEESaIS7_ENSt8__detail10_Select1stESt8equal_toIS1_ESt4hashIS1_ENS9_18_Mod_range_hashingENS9_20_Default_ranged_hashENS9_20_Prime_rehash_policyENS9_17_Hashtable_traitsILb0ELb0ELb1EEEE4sizeEv
   fun:_ZNSt10_HashtableINSt6thread2idESt4pairIKS1_PN2tf6WorkerEESaIS7_ENSt8__detail10_Select1stESt8equal_toIS1_ESt4hashIS1_ENS9_18_Mod_range_hashingENS9_20_Default_ranged_hashENS9_20_Prime_rehash_policyENS9_17_Hashtable_traitsILb0ELb0ELb1EEEE4findERS3_
   fun:_ZNSt13unordered_mapINSt6thread2idEPN2tf6WorkerESt4hashIS1_ESt8equal_toIS1_ESaISt4pairIKS1_S4_EEE4findERSA_
   fun:_ZN2tf8Executor11this_workerEv
   fun:_ZN2tf8Executor20_schedule_async_taskIJRKiS3_NS_17DefaultTaskParamsERPNS_8TopologyERPNS_8NodeBaseEiSt15in_place_type_tINS_4Node5AsyncEERZZNS_19make_transform_taskIN9__gnu_cxx17__normal_iteratorIPN4mpcf3PcfIffEESt6vectorISK_SaISK_EEEESP_NSH_IPfSM_IfSaIfEEEEZNSI_16apply_functionalISP_ST_ZN12_GLOBAL__N_165PcfAlgebraAndNormsTest_ApplyFunctionalWithL1NormMultiplePcfs_TestISK_E8TestBodyEvEUlRKSK_E_EEvT_S11_T0_T1_RNSI_8ExecutorEEUlRSK_E_NS_17GuidedPartitionerINS_21DefaultClosureWrapperEEELPv0EEEDaS11_S12_S13_T2_T3_ENUlRNS_7RuntimeEE_clES1F_EUlvE0_EEEvDpOT_
   fun:_ZN2tf8Executor13_silent_asyncINS_17DefaultTaskParamsERZZNS_19make_transform_taskIN9__gnu_cxx17__normal_iteratorIPN4mpcf3PcfIffEESt6vectorIS8_SaIS8_EEEESD_NS5_IPfSA_IfSaIfEEEEZNS6_16apply_functionalISD_SH_ZN12_GLOBAL__N_165PcfAlgebraAndNormsTest_ApplyFunctionalWithL1NormMultiplePcfs_TestIS8_E8TestBodyEvEUlRKS8_E_EEvT_SP_T0_T1_RNS6_8ExecutorEEUlRS8_E_NS_17GuidedPartitionerINS_21DefaultClosureWrapperEEELPv0EEEDaSP_SQ_SR_T2_T3_ENUlRNS_7RuntimeEE_clES13_EUlvE0_EEvOSP_OSQ_PNS_8TopologyEPNS_8NodeBaseE
   fun:_ZN2tf7Runtime12silent_asyncINS_17DefaultTaskParamsERZZNS_19make_transform_taskIN9__gnu_cxx17__normal_iteratorIPN4mpcf3PcfIffEESt6vectorIS8_SaIS8_EEEESD_NS5_IPfSA_IfSaIfEEEEZNS6_16apply_functionalISD_SH_ZN12_GLOBAL__N_165PcfAlgebraAndNormsTest_ApplyFunctionalWithL1NormMultiplePcfs_TestIS8_E8TestBodyEvEUlRKS8_E_EEvT_SP_T0_T1_RNS6_8ExecutorEEUlRS8_E_NS_17GuidedPartitionerINS_21DefaultClosureWrapperEEELPv0EEEDaSP_SQ_SR_T2_T3_ENUlRS0_E_clES12_EUlvE0_EEvOSP_OSQ_
   fun:_ZN2tf7Runtime12silent_asyncIRZZNS_19make_transform_taskIN9__gnu_cxx17__normal_iteratorIPN4mpcf3PcfIffEESt6vectorIS7_SaIS7_EEEESC_NS4_IPfS9_IfSaIfEEEEZNS5_16apply_functionalISC_SG_ZN12_GLOBAL__N_165PcfAlgebraAndNormsTest_ApplyFunctionalWithL1NormMultiplePcfs_TestIS7_E8TestBodyEvEUlRKS7_E_EEvT_SO_T0_T1_RNS5_8ExecutorEEUlRS7_E_NS_17GuidedPartitionerINS_21DefaultClosureWrapperEEELPv0EEEDaSO_SP_SQ_T2_T3_ENUlRS0_E_clES11_EUlvE0_EEvOSO_
   fun:_ZZN2tf19make_transform_taskIN9__gnu_cxx17__normal_iteratorIPN4mpcf3PcfIffEESt6vectorIS5_SaIS5_EEEESA_NS2_IPfS7_IfSaIfEEEEZNS3_16apply_functionalISA_SE_ZN12_GLOBAL__N_165PcfAlgebraAndNormsTest_ApplyFunctionalWithL1NormMultiplePcfs_TestIS5_E8TestBodyEvEUlRKS5_E_EEvT_SM_T0_T1_RNS3_8ExecutorEEUlRS5_E_NS_17GuidedPartitionerINS_21DefaultClosureWrapperEEELPv0EEEDaSM_SN_SO_T2_T3_ENUlRNS_7RuntimeEE_clES10_
   fun:_ZSt13__invoke_implIvRZN2tf19make_transform_taskIN9__gnu_cxx17__normal_iteratorIPN4mpcf3PcfIffEESt6vectorIS6_SaIS6_EEEESB_NS3_IPfS8_IfSaIfEEEEZNS4_16apply_functionalISB_SF_ZN12_GLOBAL__N_165PcfAlgebraAndNormsTest_ApplyFunctionalWithL1NormMultiplePcfs_TestIS6_E8TestBodyEvEUlRKS6_E_EEvT_SN_T0_T1_RNS4_8ExecutorEEUlRS6_E_NS0_17GuidedPartitionerINS0_21DefaultClosureWrapperEEELPv0EEEDaSN_SO_SP_T2_T3_EUlRNS0_7RuntimeEE_JS11_EESN_St14__invoke_otherOSO_DpOT1_
   fun:_ZSt10__invoke_rIvRZN2tf19make_transform_taskIN9__gnu_cxx17__normal_iteratorIPN4mpcf3PcfIffEESt6vectorIS6_SaIS6_EEEESB_NS3_IPfS8_IfSaIfEEEEZNS4_16apply_functionalISB_SF_ZN12_GLOBAL__N_165PcfAlgebraAndNormsTest_ApplyFunctionalWithL1NormMultiplePcfs_TestIS6_E8TestBodyEvEUlRKS6_E_EEvT_SN_T0_T1_RNS4_8ExecutorEEUlRS6_E_NS0_17GuidedPartitionerINS0_21DefaultClosureWrapperEEELPv0EEEDaSN_SO_SP_T2_T3_EUlRNS0_7RuntimeEE_JS11_EENSt9enable_ifIX16is_invocable_r_vISN_SO_DpT1_EESN_E4typeEOSO_DpOS15_
   fun:_ZNSt17_Function_handlerIFvRN2tf7RuntimeEEZNS0_19make_transform_taskIN9__gnu_cxx17__normal_iteratorIPN4mpcf3PcfIffEESt6vectorIS9_SaIS9_EEEESE_NS6_IPfSB_IfSaIfEEEEZNS7_16apply_functionalISE_SI_ZN12_GLOBAL__N_165PcfAlgebraAndNormsTest_ApplyFunctionalWithL1NormMultiplePcfs_TestIS9_E8TestBodyEvEUlRKS9_E_EEvT_SQ_T0_T1_RNS7_8ExecutorEEUlRS9_E_NS0_17GuidedPartitionerINS0_21DefaultClosureWrapperEEELPv0EEEDaSQ_SR_SS_T2_T3_EUlS2_E_E9_M_invokeERKSt9_Any_dataS2_
}
{
   <insert_a_suppression_name_here>
   Helgrind:Race
   fun:_ZNKSt10_HashtableINSt6thread2idESt4pairIKS1_PN2tf6WorkerEESaIS7_ENSt8__detail10_Select1stESt8equal_toIS1_ESt4hashIS1_ENS9_18_Mod_range_hashingENS9_20_Default_ranged_hashENS9_20_Prime_rehash_policyENS9_17_Hashtable_traitsILb0ELb0ELb1EEEE19_M_find_before_nodeEmRS3_m
   fun:_ZNKSt10_HashtableINSt6thread2idESt4pairIKS1_PN2tf6WorkerEESaIS7_ENSt8__detail10_Select1stESt8equal_toIS1_ESt4hashIS1_ENS9_18_Mod_range_hashingENS9_20_Default_ranged_hashENS9_20_Prime_rehash_policyENS9_17_Hashtable_traitsILb0ELb0ELb1EEEE12_M_find_nodeEmRS3_m
   fun:_ZNSt10_HashtableINSt6thread2idESt4pairIKS1_PN2tf6WorkerEESaIS7_ENSt8__detail10_Select1stESt8equal_toIS1_ESt4hashIS1_ENS9_18_Mod_range_hashingENS9_20_Default_ranged_hashENS9_20_Prime_rehash_policyENS9_17_Hashtable_traitsILb0ELb0ELb1EEEE4findERS3_
   fun:_ZNSt13unordered_mapINSt6thread2idEPN2tf6WorkerESt4hashIS1_ESt8equal_toIS1_ESaISt4pairIKS1_S4_EEE4findERSA_
   fun:_ZN2tf8Executor11this_workerEv
   fun:_ZN2tf8Executor20_schedule_async_taskIJRKiS3_NS_17DefaultTaskParamsERPNS_8TopologyERPNS_8NodeBaseEiSt15in_place_type_tINS_4Node5AsyncEERZZNS_19make_transform_taskIN9__gnu_cxx17__normal_iteratorIPN4mpcf3PcfIffEESt6vectorISK_SaISK_EEEESP_NSH_IPfSM_IfSaIfEEEEZNSI_16apply_functionalISP_ST_ZN12_GLOBAL__N_165PcfAlgebraAndNormsTest_ApplyFunctionalWithL1NormMultiplePcfs_TestISK_E8TestBodyEvEUlRKSK_E_EEvT_S11_T0_T1_RNSI_8ExecutorEEUlRSK_E_NS_17GuidedPartitionerINS_21DefaultClosureWrapperEEELPv0EEEDaS11_S12_S13_T2_T3_ENUlRNS_7RuntimeEE_clES1F_EUlvE0_EEEvDpOT_
   fun:_ZN2tf8Executor13_silent_asyncINS_17DefaultTaskParamsERZZNS_19make_transform_taskIN9__gnu_cxx17__normal_iteratorIPN4mpcf3PcfIffEESt6vectorIS8_SaIS8_EEEESD_NS5_IPfSA_IfSaIfEEEEZNS6_16apply_functionalISD_SH_ZN12_GLOBAL__N_165PcfAlgebraAndNormsTest_ApplyFunctionalWithL1NormMultiplePcfs_TestIS8_E8TestBodyEvEUlRKS8_E_EEvT_SP_T0_T1_RNS6_8ExecutorEEUlRS8_E_NS_17GuidedPartitionerINS_21DefaultClosureWrapperEEELPv0EEEDaSP_SQ_SR_T2_T3_ENUlRNS_7RuntimeEE_clES13_EUlvE0_EEvOSP_OSQ_PNS_8TopologyEPNS_8NodeBaseE
   fun:_ZN2tf7Runtime12silent_asyncINS_17DefaultTaskParamsERZZNS_19make_transform_taskIN9__gnu_cxx17__normal_iteratorIPN4mpcf3PcfIffEESt6vectorIS8_SaIS8_EEEESD_NS5_IPfSA_IfSaIfEEEEZNS6_16apply_functionalISD_SH_ZN12_GLOBAL__N_165PcfAlgebraAndNormsTest_ApplyFunctionalWithL1NormMultiplePcfs_TestIS8_E8TestBodyEvEUlRKS8_E_EEvT_SP_T0_T1_RNS6_8ExecutorEEUlRS8_E_NS_17GuidedPartitionerINS_21DefaultClosureWrapperEEELPv0EEEDaSP_SQ_SR_T2_T3_ENUlRS0_E_clES12_EUlvE0_EEvOSP_OSQ_
   fun:_ZN2tf7Runtime12silent_asyncIRZZNS_19make_transform_taskIN9__gnu_cxx17__normal_iteratorIPN4mpcf3PcfIffEESt6vectorIS7_SaIS7_EEEESC_NS4_IPfS9_IfSaIfEEEEZNS5_16apply_functionalISC_SG_ZN12_GLOBAL__N_165PcfAlgebraAndNormsTest_ApplyFunctionalWithL1NormMultiplePcfs_TestIS7_E8TestBodyEvEUlRKS7_E_EEvT_SO_T0_T1_RNS5_8ExecutorEEUlRS7_E_NS_17GuidedPartitionerINS_21DefaultClosureWrapperEEELPv0EEEDaSO_SP_SQ_T2_T3_ENUlRS0_E_clES11_EUlvE0_EEvOSO_
   fun:_ZZN2tf19make_transform_taskIN9__gnu_cxx17__normal_iteratorIPN4mpcf3PcfIffEESt6vectorIS5_SaIS5_EEEESA_NS2_IPfS7_IfSaIfEEEEZNS3_16apply_functionalISA_SE_ZN12_GLOBAL__N_165PcfAlgebraAndNormsTest_ApplyFunctionalWithL1NormMultiplePcfs_TestIS5_E8TestBodyEvEUlRKS5_E_EEvT_SM_T0_T1_RNS3_8ExecutorEEUlRS5_E_NS_17GuidedPartitionerINS_21DefaultClosureWrapperEEELPv0EEEDaSM_SN_SO_T2_T3_ENUlRNS_7RuntimeEE_clES10_
   fun:_ZSt13__invoke_implIvRZN2tf19make_transform_taskIN9__gnu_cxx17__normal_iteratorIPN4mpcf3PcfIffEESt6vectorIS6_SaIS6_EEEESB_NS3_IPfS8_IfSaIfEEEEZNS4_16apply_functionalISB_SF_ZN12_GLOBAL__N_165PcfAlgebraAndNormsTest_ApplyFunctionalWithL1NormMultiplePcfs_TestIS6_E8TestBodyEvEUlRKS6_E_EEvT_SN_T0_T1_RNS4_8ExecutorEEUlRS6_E_NS0_17GuidedPartitionerINS0_21DefaultClosureWrapperEEELPv0EEEDaSN_SO_SP_T2_T3_EUlRNS0_7RuntimeEE_JS11_EESN_St14__invoke_otherOSO_DpOT1_
   fun:_ZSt10__invoke_rIvRZN2tf19make_transform_taskIN9__gnu_cxx17__normal_iteratorIPN4mpcf3PcfIffEESt6vectorIS6_SaIS6_EEEESB_NS3_IPfS8_IfSaIfEEEEZNS4_16apply_functionalISB_SF_ZN12_GLOBAL__N_165PcfAlgebraAndNormsTest_ApplyFunctionalWithL1NormMultiplePcfs_TestIS6_E8TestBodyEvEUlRKS6_E_EEvT_SN_T0_T1_RNS4_8ExecutorEEUlRS6_E_NS0_17GuidedPartitionerINS0_21DefaultClosureWrapperEEELPv0EEEDaSN_SO_SP_T2_T3_EUlRNS0_7RuntimeEE_JS11_EENSt9enable_ifIX16is_invocable_r_vISN_SO_DpT1_EESN_E4typeEOSO_DpOS15_
}
{
   <insert_a_suppression_name_here>
   Helgrind:Race
   fun:_ZNKSt8equal_toINSt6thread2idEEclERKS1_S4_
   fun:_ZNKSt8__detail15_Hashtable_baseINSt6thread2idESt4pairIKS2_PN2tf6WorkerEENS_10_Select1stESt8equal_toIS2_ESt4hashIS2_ENS_18_Mod_range_hashingENS_20_Default_ranged_hashENS_17_Hashtable_traitsILb0ELb0ELb1EEEE13_M_key_equalsERS4_RKNS_16_Hash_node_valueIS8_Lb0EEE
   fun:_ZNKSt8__detail15_Hashtable_baseINSt6thread2idESt4pairIKS2_PN2tf6WorkerEENS_10_Select1stESt8equal_toIS2_ESt4hashIS2_ENS_18_Mod_range_hashingENS_20_Default_ranged_hashENS_17_Hashtable_traitsILb0ELb0ELb1EEEE9_M_equalsERS4_mRKNS_16_Hash_node_valueIS8_Lb0EEE
   fun:_ZNKSt10_HashtableINSt6thread2idESt4pairIKS1_PN2tf6WorkerEESaIS7_ENSt8__detail10_Select1stESt8equal_toIS1_ESt4hashIS1_ENS9_18_Mod_range_hashingENS9_20_Default_ranged_hashENS9_20_Prime_rehash_policyENS9_17_Hashtable_traitsILb0ELb0ELb1EEEE19_M_find_before_nodeEmRS3_m
   fun:_ZNKSt10_HashtableINSt6thread2idESt4pairIKS1_PN2tf6WorkerEESaIS7_ENSt8__detail10_Select1stESt8equal_toIS1_ESt4hashIS1_ENS9_18_Mod_range_hashingENS9_20_Default_ranged_hashENS9_20_Prime_rehash_policyENS9_17_Hashtable_traitsILb0ELb0ELb1EEEE12_M_find_nodeEmRS3_m
   fun:_ZNSt10_HashtableINSt6thread2idESt4pairIKS1_PN2tf6WorkerEESaIS7_ENSt8__detail10_Select1stESt8equal_toIS1_ESt4hashIS1_ENS9_18_Mod_range_hashingENS9_20_Default_ranged_hashENS9_20_Prime_rehash_policyENS9_17_Hashtable_traitsILb0ELb0ELb1EEEE4findERS3_
   fun:_ZNSt13unordered_mapINSt6thread2idEPN2tf6WorkerESt4hashIS1_ESt8equal_toIS1_ESaISt4pairIKS1_S4_EEE4findERSA_
   fun:_ZN2tf8Executor11this_workerEv
   fun:_ZN2tf8Executor20_schedule_async_taskIJRKiS3_NS_17DefaultTaskParamsERPNS_8TopologyERPNS_8NodeBaseEiSt15in_place_type_tINS_4Node5AsyncEERZZNS_19make_transform_taskIN9__gnu_cxx17__normal_iteratorIPN4mpcf3PcfIffEESt6vectorISK_SaISK_EEEESP_NSH_IPfSM_IfSaIfEEEEZNSI_16apply_functionalISP_ST_ZN12_GLOBAL__N_165PcfAlgebraAndNormsTest_ApplyFunctionalWithL1NormMultiplePcfs_TestISK_E8TestBodyEvEUlRKSK_E_EEvT_S11_T0_T1_RNSI_8ExecutorEEUlRSK_E_NS_17GuidedPartitionerINS_21DefaultClosureWrapperEEELPv0EEEDaS11_S12_S13_T2_T3_ENUlRNS_7RuntimeEE_clES1F_EUlvE0_EEEvDpOT_
   fun:_ZN2tf8Executor13_silent_asyncINS_17DefaultTaskParamsERZZNS_19make_transform_taskIN9__gnu_cxx17__normal_iteratorIPN4mpcf3PcfIffEESt6vectorIS8_SaIS8_EEEESD_NS5_IPfSA_IfSaIfEEEEZNS6_16apply_functionalISD_SH_ZN12_GLOBAL__N_165PcfAlgebraAndNormsTest_ApplyFunctionalWithL1NormMultiplePcfs_TestIS8_E8TestBodyEvEUlRKS8_E_EEvT_SP_T0_T1_RNS6_8ExecutorEEUlRS8_E_NS_17GuidedPartitionerINS_21DefaultClosureWrapperEEELPv0EEEDaSP_SQ_SR_T2_T3_ENUlRNS_7RuntimeEE_clES13_EUlvE0_EEvOSP_OSQ_PNS_8TopologyEPNS_8NodeBaseE
   fun:_ZN2tf7Runtime12silent_asyncINS_17DefaultTaskParamsERZZNS_19make_transform_taskIN9__gnu_cxx17__normal_iteratorIPN4mpcf3PcfIffEESt6vectorIS8_SaIS8_EEEESD_NS5_IPfSA_IfSaIfEEEEZNS6_16apply_functionalISD_SH_ZN12_GLOBAL__N_165PcfAlgebraAndNormsTest_ApplyFunctionalWithL1NormMultiplePcfs_TestIS8_E8TestBodyEvEUlRKS8_E_EEvT_SP_T0_T1_RNS6_8ExecutorEEUlRS8_E_NS_17GuidedPartitionerINS_21DefaultClosureWrapperEEELPv0EEEDaSP_SQ_SR_T2_T3_ENUlRS0_E_clES12_EUlvE0_EEvOSP_OSQ_
   fun:_ZN2tf7Runtime12silent_asyncIRZZNS_19make_transform_taskIN9__gnu_cxx17__normal_iteratorIPN4mpcf3PcfIffEESt6vectorIS7_SaIS7_EEEESC_NS4_IPfS9_IfSaIfEEEEZNS5_16apply_functionalISC_SG_ZN12_GLOBAL__N_165PcfAlgebraAndNormsTest_ApplyFunctionalWithL1NormMultiplePcfs_TestIS7_E8TestBodyEvEUlRKS7_E_EEvT_SO_T0_T1_RNS5_8ExecutorEEUlRS7_E_NS_17GuidedPartitionerINS_21DefaultClosureWrapperEEELPv0EEEDaSO_SP_SQ_T2_T3_ENUlRS0_E_clES11_EUlvE0_EEvOSO_
}
{
   <insert_a_suppression_name_here>
   Helgrind:Race
   fun:_ZN2tf8Executor11this_workerEv
   fun:_ZN2tf8Executor20_schedule_async_taskIJRKiS3_NS_17DefaultTaskParamsERPNS_8TopologyERPNS_8NodeBaseEiSt15in_place_type_tINS_4Node5AsyncEERZZNS_19make_transform_taskIN9__gnu_cxx17__normal_iteratorIPN4mpcf3PcfIffEESt6vectorISK_SaISK_EEEESP_NSH_IPfSM_IfSaIfEEEEZNSI_16apply_functionalISP_ST_ZN12_GLOBAL__N_165PcfAlgebraAndNormsTest_ApplyFunctionalWithL1NormMultiplePcfs_TestISK_E8TestBodyEvEUlRKSK_E_EEvT_S11_T0_T1_RNSI_8ExecutorEEUlRSK_E_NS_17GuidedPartitionerINS_21DefaultClosureWrapperEEELPv0EEEDaS11_S12_S13_T2_T3_ENUlRNS_7RuntimeEE_clES1F_EUlvE0_EEEvDpOT_
   fun:_ZN2tf8Executor13_silent_asyncINS_17DefaultTaskParamsERZZNS_19make_transform_taskIN9__gnu_cxx17__normal_iteratorIPN4mpcf3PcfIffEESt6vectorIS8_SaIS8_EEEESD_NS5_IPfSA_IfSaIfEEEEZNS6_16apply_functionalISD_SH_ZN12_GLOBAL__N_165PcfAlgebraAndNormsTest_ApplyFunctionalWithL1NormMultiplePcfs_TestIS8_E8TestBodyEvEUlRKS8_E_EEvT_SP_T0_T1_RNS6_8ExecutorEEUlRS8_E_NS_17GuidedPartitionerINS_21DefaultClosureWrapperEEELPv0EEEDaSP_SQ_SR_T2_T3_ENUlRNS_7RuntimeEE_clES13_EUlvE0_EEvOSP_OSQ_PNS_8TopologyEPNS_8NodeBaseE
   fun:_ZN2tf7Runtime12silent_asyncINS_17DefaultTaskParamsERZZNS_19make_transform_taskIN9__gnu_cxx17__normal_iteratorIPN4mpcf3PcfIffEESt6vectorIS8_SaIS8_EEEESD_NS5_IPfSA_IfSaIfEEEEZNS6_16apply_functionalISD_SH_ZN12_GLOBAL__N_165PcfAlgebraAndNormsTest_ApplyFunctionalWithL1NormMultiplePcfs_TestIS8_E8TestBodyEvEUlRKS8_E_EEvT_SP_T0_T1_RNS6_8ExecutorEEUlRS8_E_NS_17GuidedPartitionerINS_21DefaultClosureWrapperEEELPv0EEEDaSP_SQ_SR_T2_T3_ENUlRS0_E_clES12_EUlvE0_EEvOSP_OSQ_
   fun:_ZN2tf7Runtime12silent_asyncIRZZNS_19make_transform_taskIN9__gnu_cxx17__normal_iteratorIPN4mpcf3PcfIffEESt6vectorIS7_SaIS7_EEEESC_NS4_IPfS9_IfSaIfEEEEZNS5_16apply_functionalISC_SG_ZN12_GLOBAL__N_165PcfAlgebraAndNormsTest_ApplyFunctionalWithL1NormMultiplePcfs_TestIS7_E8TestBodyEvEUlRKS7_E_EEvT_SO_T0_T1_RNS5_8ExecutorEEUlRS7_E_NS_17GuidedPartitionerINS_21DefaultClosureWrapperEEELPv0EEEDaSO_SP_SQ_T2_T3_ENUlRS0_E_clES11_EUlvE0_EEvOSO_
   fun:_ZZN2tf19make_transform_taskIN9__gnu_cxx17__normal_iteratorIPN4mpcf3PcfIffEESt6vectorIS5_SaIS5_EEEESA_NS2_IPfS7_IfSaIfEEEEZNS3_16apply_functionalISA_SE_ZN12_GLOBAL__N_165PcfAlgebraAndNormsTest_ApplyFunctionalWithL1NormMultiplePcfs_TestIS5_E8TestBodyEvEUlRKS5_E_EEvT_SM_T0_T1_RNS3_8ExecutorEEUlRS5_E_NS_17GuidedPartitionerINS_21DefaultClosureWrapperEEELPv0EEEDaSM_SN_SO_T2_T3_ENUlRNS_7RuntimeEE_clES10_
   fun:_ZSt13__invoke_implIvRZN2tf19make_transform_taskIN9__gnu_cxx17__normal_iteratorIPN4mpcf3PcfIffEESt6vectorIS6_SaIS6_EEEESB_NS3_IPfS8_IfSaIfEEEEZNS4_16apply_functionalISB_SF_ZN12_GLOBAL__N_165PcfAlgebraAndNormsTest_ApplyFunctionalWithL1NormMultiplePcfs_TestIS6_E8TestBodyEvEUlRKS6_E_EEvT_SN_T0_T1_RNS4_8ExecutorEEUlRS6_E_NS0_17GuidedPartitionerINS0_21DefaultClosureWrapperEEELPv0EEEDaSN_SO_SP_T2_T3_EUlRNS0_7RuntimeEE_JS11_EESN_St14__invoke_otherOSO_DpOT1_
   fun:_ZSt10__invoke_rIvRZN2tf19make_transform_taskIN9__gnu_cxx17__normal_iteratorIPN4mpcf3PcfIffEESt6vectorIS6_SaIS6_EEEESB_NS3_IPfS8_IfSaIfEEEEZNS4_16apply_functionalISB_SF_ZN12_GLOBAL__N_165PcfAlgebraAndNormsTest_ApplyFunctionalWithL1NormMultiplePcfs_TestIS6_E8TestBodyEvEUlRKS6_E_EEvT_SN_T0_T1_RNS4_8ExecutorEEUlRS6_E_NS0_17GuidedPartitionerINS0_21DefaultClosureWrapperEEELPv0EEEDaSN_SO_SP_T2_T3_EUlRNS0_7RuntimeEE_JS11_EENSt9enable_ifIX16is_invocable_r_vISN_SO_DpT1_EESN_E4typeEOSO_DpOS15_
   fun:_ZNSt17_Function_handlerIFvRN2tf7RuntimeEEZNS0_19make_transform_taskIN9__gnu_cxx17__normal_iteratorIPN4mpcf3PcfIffEESt6vectorIS9_SaIS9_EEEESE_NS6_IPfSB_IfSaIfEEEEZNS7_16apply_functionalISE_SI_ZN12_GLOBAL__N_165PcfAlgebraAndNormsTest_ApplyFunctionalWithL1NormMultiplePcfs_TestIS9_E8TestBodyEvEUlRKS9_E_EEvT_SQ_T0_T1_RNS7_8ExecutorEEUlRS9_E_NS0_17GuidedPartitionerINS0_21DefaultClosureWrapperEEELPv0EEEDaSQ_SR_SS_T2_T3_EUlS2_E_E9_M_invokeERKSt9_Any_dataS2_
   fun:_ZNKSt8functionIFvRN2tf7RuntimeEEEclES2_
   fun:_ZN2tf8Executor25_invoke_runtime_task_implERNS_6WorkerEPNS_4NodeERSt8functionIFvRNS_7RuntimeEEE
   fun:_ZN2tf8Executor20_invoke_runtime_taskERNS_6WorkerEPNS_4NodeE
}
{
   <insert_a_suppression_name_here>
   Helgrind:Race
   fun:fetch_add
   fun:_ZN2tf7Runtime12silent_asyncINS_17DefaultTaskParamsERZZNS_19make_transform_taskIN9__gnu_cxx17__normal_iteratorIPN4mpcf3PcfIffEESt6vectorIS8_SaIS8_EEEESD_NS5_IPfSA_IfSaIfEEEEZNS6_16apply_functionalISD_SH_ZN12_GLOBAL__N_165PcfAlgebraAndNormsTest_ApplyFunctionalWithL1NormMultiplePcfs_TestIS8_E8TestBodyEvEUlRKS8_E_EEvT_SP_T0_T1_RNS6_8ExecutorEEUlRS8_E_NS_17GuidedPartitionerINS_21DefaultClosureWrapperEEELPv0EEEDaSP_SQ_SR_T2_T3_ENUlRS0_E_clES12_EUlvE0_EEvOSP_OSQ_
   fun:_ZN2tf7Runtime12silent_asyncIRZZNS_19make_transform_taskIN9__gnu_cxx17__normal_iteratorIPN4mpcf3PcfIffEESt6vectorIS7_SaIS7_EEEESC_NS4_IPfS9_IfSaIfEEEEZNS5_16apply_functionalISC_SG_ZN12_GLOBAL__N_165PcfAlgebraAndNormsTest_ApplyFunctionalWithL1NormMultiplePcfs_TestIS7_E8TestBodyEvEUlRKS7_E_EEvT_SO_T0_T1_RNS5_8ExecutorEEUlRS7_E_NS_17GuidedPartitionerINS_21DefaultClosureWrapperEEELPv0EEEDaSO_SP_SQ_T2_T3_ENUlRS0_E_clES11_EUlvE0_EEvOSO_
   fun:_ZZN2tf19make_transform_taskIN9__gnu_cxx17__normal_iteratorIPN4mpcf3PcfIffEESt6vectorIS5_SaIS5_EEEESA_NS2_IPfS7_IfSaIfEEEEZNS3_16apply_functionalISA_SE_ZN12_GLOBAL__N_165PcfAlgebraAndNormsTest_ApplyFunctionalWithL1NormMultiplePcfs_TestIS5_E8TestBodyEvEUlRKS5_E_EEvT_SM_T0_T1_RNS3_8ExecutorEEUlRS5_E_NS_17GuidedPartitionerINS_21DefaultClosureWrapperEEELPv0EEEDaSM_SN_SO_T2_T3_ENUlRNS_7RuntimeEE_clES10_
   fun:_ZSt13__invoke_implIvRZN2tf19make_transform_taskIN9__gnu_cxx17__normal_iteratorIPN4mpcf3PcfIffEESt6vectorIS6_SaIS6_EEEESB_NS3_IPfS8_IfSaIfEEEEZNS4_16apply_functionalISB_SF_ZN12_GLOBAL__N_165PcfAlgebraAndNormsTest_ApplyFunctionalWithL1NormMultiplePcfs_TestIS6_E8TestBodyEvEUlRKS6_E_EEvT_SN_T0_T1_RNS4_8ExecutorEEUlRS6_E_NS0_17GuidedPartitionerINS0_21DefaultClosureWrapperEEELPv0EEEDaSN_SO_SP_T2_T3_EUlRNS0_7RuntimeEE_JS11_EESN_St14__invoke_otherOSO_DpOT1_
   fun:_ZSt10__invoke_rIvRZN2tf19make_transform_taskIN9__gnu_cxx17__normal_iteratorIPN4mpcf3PcfIffEESt6vectorIS6_SaIS6_EEEESB_NS3_IPfS8_IfSaIfEEEEZNS4_16apply_functionalISB_SF_ZN12_GLOBAL__N_165PcfAlgebraAndNormsTest_ApplyFunctionalWithL1NormMultiplePcfs_TestIS6_E8TestBodyEvEUlRKS6_E_EEvT_SN_T0_T1_RNS4_8ExecutorEEUlRS6_E_NS0_17GuidedPartitionerINS0_21DefaultClosureWrapperEEELPv0EEEDaSN_SO_SP_T2_T3_EUlRNS0_7RuntimeEE_JS11_EENSt9enable_ifIX16is_invocable_r_vISN_SO_DpT1_EESN_E4typeEOSO_DpOS15_
   fun:_ZNSt17_Function_handlerIFvRN2tf7RuntimeEEZNS0_19make_transform_taskIN9__gnu_cxx17__normal_iteratorIPN4mpcf3PcfIffEESt6vectorIS9_SaIS9_EEEESE_NS6_IPfSB_IfSaIfEEEEZNS7_16apply_functionalISE_SI_ZN12_GLOBAL__N_165PcfAlgebraAndNormsTest_ApplyFunctionalWithL1NormMultiplePcfs_TestIS9_E8TestBodyEvEUlRKS9_E_EEvT_SQ_T0_T1_RNS7_8ExecutorEEUlRS9_E_NS0_17GuidedPartitionerINS0_21DefaultClosureWrapperEEELPv0EEEDaSQ_SR_SS_T2_T3_EUlS2_E_E9_M_invokeERKSt9_Any_dataS2_
   fun:_ZNKSt8functionIFvRN2tf7RuntimeEEEclES2_
   fun:_ZN2tf8Executor25_invoke_runtime_task_implERNS_6WorkerEPNS_4NodeERSt8functionIFvRNS_7RuntimeEEE
   fun:_ZN2tf8Executor20_invoke_runtime_taskERNS_6WorkerEPNS_4NodeE
   fun:_ZN2tf8Executor7_invokeERNS_6WorkerEPNS_4NodeE
   fun:_ZN2tf8Executor13_exploit_taskERNS_6WorkerERPNS_4NodeE
   fun:_ZZN2tf8Executor6_spawnEmSt10shared_ptrINS_15WorkerInterfaceEEENKUlvE_clEv
}
{
   <insert_a_suppression_name_here>
   Helgrind:Race
   fun:_ZN9__gnu_cxx17__normal_iteratorIPKN4mpcf5PointIffEESt6vectorIS3_SaIS3_EEEC1ERKS5_
   fun:_ZNKSt6vectorIN4mpcf5PointIffEESaIS2_EE4cendEv
   fun:_ZN4mpcf7l1_normINS_3PcfIffEEEENT_10value_typeERKS3_
   fun:_ZZN12_GLOBAL__N_165PcfAlgebraAndNormsTest_ApplyFunctionalWithL1NormMultiplePcfs_TestIN4mpcf3PcfIffEEE8TestBodyEvENKUlRKS3_E_clES6_
   fun:_ZZN4mpcf16apply_functionalIN9__gnu_cxx17__normal_iteratorIPNS_3PcfIffEESt6vectorIS4_SaIS4_EEEENS2_IPfS6_IfSaIfEEEEZN12_GLOBAL__N_165PcfAlgebraAndNormsTest_ApplyFunctionalWithL1NormMultiplePcfs_TestIS4_E8TestBodyEvEUlRKS4_E_EEvT_SK_T0_T1_RNS_8ExecutorEENKUlRS4_E_clESP_
   fun:_ZZZZN2tf19make_transform_taskIN9__gnu_cxx17__normal_iteratorIPN4mpcf3PcfIffEESt6vectorIS5_SaIS5_EEEESA_NS2_IPfS7_IfSaIfEEEEZNS3_16apply_functionalISA_SE_ZN12_GLOBAL__N_165PcfAlgebraAndNormsTest_ApplyFunctionalWithL1NormMultiplePcfs_TestIS5_E8TestBodyEvEUlRKS5_E_EEvT_SM_T0_T1_RNS3_8ExecutorEEUlRS5_E_NS_17GuidedPartitionerINS_21DefaultClosureWrapperEEELPv0EEEDaSM_SN_SO_T2_T3_ENUlRNS_7RuntimeEE_clES10_ENUlvE0_clEvENUlmmE_clEmm
   fun:_ZNK2tf17GuidedPartitionerINS_21DefaultClosureWrapperEE4loopIZZZNS_19make_transform_taskIN9__gnu_cxx17__normal_iteratorIPN4mpcf3PcfIffEESt6vectorIS9_SaIS9_EEEESE_NS6_IPfSB_IfSaIfEEEEZNS7_16apply_functionalISE_SI_ZN12_GLOBAL__N_165PcfAlgebraAndNormsTest_ApplyFunctionalWithL1NormMultiplePcfs_TestIS9_E8TestBodyEvEUlRKS9_E_EEvT_SQ_T0_T1_RNS7_8ExecutorEEUlRS9_E_S2_LPv0EEEDaSQ_SR_SS_T2_T3_ENUlRNS_7RuntimeEE_clES11_ENUlvE0_clEvEUlmmE_LSX_0EEEvmmRSt6atomicImEOSQ_
   fun:_ZZZN2tf19make_transform_taskIN9__gnu_cxx17__normal_iteratorIPN4mpcf3PcfIffEESt6vectorIS5_SaIS5_EEEESA_NS2_IPfS7_IfSaIfEEEEZNS3_16apply_functionalISA_SE_ZN12_GLOBAL__N_165PcfAlgebraAndNormsTest_ApplyFunctionalWithL1NormMultiplePcfs_TestIS5_E8TestBodyEvEUlRKS5_E_EEvT_SM_T0_T1_RNS3_8ExecutorEEUlRS5_E_NS_17GuidedPartitionerINS_21DefaultClosureWrapperEEELPv0EEEDaSM_SN_SO_T2_T3_ENUlRNS_7RuntimeEE_clES10_ENUlvE0_clEv
   fun:_ZZN2tf19make_transform_taskIN9__gnu_cxx17__normal_iteratorIPN4mpcf3PcfIffEESt6vectorIS5_SaIS5_EEEESA_NS2_IPfS7_IfSaIfEEEEZNS3_16apply_functionalISA_SE_ZN12_GLOBAL__N_165PcfAlgebraAndNormsTest_ApplyFunctionalWithL1NormMultiplePcfs_TestIS5_E8TestBodyEvEUlRKS5_E_EEvT_SM_T0_T1_RNS3_8ExecutorEEUlRS5_E_NS_17GuidedPartitionerINS_21DefaultClosureWrapperEEELPv0EEEDaSM_SN_SO_T2_T3_ENUlRNS_7RuntimeEE_clES10_
   fun:_ZSt13__invoke_implIvRZN2tf19make_transform_taskIN9__gnu_cxx17__normal_iteratorIPN4mpcf3PcfIffEESt6vectorIS6_SaIS6_EEEESB_NS3_IPfS8_IfSaIfEEEEZNS4_16apply_functionalISB_SF_ZN12_GLOBAL__N_165PcfAlgebraAndNormsTest_ApplyFunctionalWithL1NormMultiplePcfs_TestIS6_E8TestBodyEvEUlRKS6_E_EEvT_SN_T0_T1_RNS4_8ExecutorEEUlRS6_E_NS0_17GuidedPartitionerINS0_21DefaultClosureWrapperEEELPv0EEEDaSN_SO_SP_T2_T3_EUlRNS0_7RuntimeEE_JS11_EESN_St14__invoke_otherOSO_DpOT1_
   fun:_ZSt10__invoke_rIvRZN2tf19make_transform_taskIN9__gnu_cxx17__normal_iteratorIPN4mpcf3PcfIffEESt6vectorIS6_SaIS6_EEEESB_NS3_IPfS8_IfSaIfEEEEZNS4_16apply_functionalISB_SF_ZN12_GLOBAL__N_165PcfAlgebraAndNormsTest_ApplyFunctionalWithL1NormMultiplePcfs_TestIS6_E8TestBodyEvEUlRKS6_E_EEvT_SN_T0_T1_RNS4_8ExecutorEEUlRS6_E_NS0_17GuidedPartitionerINS0_21DefaultClosureWrapperEEELPv0EEEDaSN_SO_SP_T2_T3_EUlRNS0_7RuntimeEE_JS11_EENSt9enable_ifIX16is_invocable_r_vISN_SO_DpT1_EESN_E4typeEOSO_DpOS15_
   fun:_ZNSt17_Function_handlerIFvRN2tf7RuntimeEEZNS0_19make_transform_taskIN9__gnu_cxx17__normal_iteratorIPN4mpcf3PcfIffEESt6vectorIS9_SaIS9_EEEESE_NS6_IPfSB_IfSaIfEEEEZNS7_16apply_functionalISE_SI_ZN12_GLOBAL__N_165PcfAlgebraAndNormsTest_ApplyFunctionalWithL1NormMultiplePcfs_TestIS9_E8TestBodyEvEUlRKS9_E_EEvT_SQ_T0_T1_RNS7_8ExecutorEEUlRS9_E_NS0_17GuidedPartitionerINS0_21DefaultClosureWrapperEEELPv0EEEDaSQ_SR_SS_T2_T3_EUlS2_E_E9_M_invokeERKSt9_Any_dataS2_
}
{
   <insert_a_suppression_name_here>
   Helgrind:Race
   fun:_ZN9__gnu_cxx17__normal_iteratorIPKN4mpcf5PointIffEESt6vectorIS3_SaIS3_EEEC1ERKS5_
   fun:_ZNKSt6vectorIN4mpcf5PointIffEESaIS2_EE6cbeginEv
   fun:_ZN4mpcf7l1_normINS_3PcfIffEEEENT_10value_typeERKS3_
   fun:_ZZN12_GLOBAL__N_165PcfAlgebraAndNormsTest_ApplyFunctionalWithL1NormMultiplePcfs_TestIN4mpcf3PcfIffEEE8TestBodyEvENKUlRKS3_E_clES6_
   fun:_ZZN4mpcf16apply_functionalIN9__gnu_cxx17__normal_iteratorIPNS_3PcfIffEESt6vectorIS4_SaIS4_EEEENS2_IPfS6_IfSaIfEEEEZN12_GLOBAL__N_165PcfAlgebraAndNormsTest_ApplyFunctionalWithL1NormMultiplePcfs_TestIS4_E8TestBodyEvEUlRKS4_E_EEvT_SK_T0_T1_RNS_8ExecutorEENKUlRS4_E_clESP_
   fun:_ZZZZN2tf19make_transform_taskIN9__gnu_cxx17__normal_iteratorIPN4mpcf3PcfIffEESt6vectorIS5_SaIS5_EEEESA_NS2_IPfS7_IfSaIfEEEEZNS3_16apply_functionalISA_SE_ZN12_GLOBAL__N_165PcfAlgebraAndNormsTest_ApplyFunctionalWithL1NormMultiplePcfs_TestIS5_E8TestBodyEvEUlRKS5_E_EEvT_SM_T0_T1_RNS3_8ExecutorEEUlRS5_E_NS_17GuidedPartitionerINS_21DefaultClosureWrapperEEELPv0EEEDaSM_SN_SO_T2_T3_ENUlRNS_7RuntimeEE_clES10_ENUlvE0_clEvENUlmmE_clEmm
   fun:_ZNK2tf17GuidedPartitionerINS_21DefaultClosureWrapperEE4loopIZZZNS_19make_transform_taskIN9__gnu_cxx17__normal_iteratorIPN4mpcf3PcfIffEESt6vectorIS9_SaIS9_EEEESE_NS6_IPfSB_IfSaIfEEEEZNS7_16apply_functionalISE_SI_ZN12_GLOBAL__N_165PcfAlgebraAndNormsTest_ApplyFunctionalWithL1NormMultiplePcfs_TestIS9_E8TestBodyEvEUlRKS9_E_EEvT_SQ_T0_T1_RNS7_8ExecutorEEUlRS9_E_S2_LPv0EEEDaSQ_SR_SS_T2_T3_ENUlRNS_7RuntimeEE_clES11_ENUlvE0_clEvEUlmmE_LSX_0EEEvmmRSt6atomicImEOSQ_
   fun:_ZZZN2tf19make_transform_taskIN9__gnu_cxx17__normal_iteratorIPN4mpcf3PcfIffEESt6vectorIS5_SaIS5_EEEESA_NS2_IPfS7_IfSaIfEEEEZNS3_16apply_functionalISA_SE_ZN12_GLOBAL__N_165PcfAlgebraAndNormsTest_ApplyFunctionalWithL1NormMultiplePcfs_TestIS5_E8TestBodyEvEUlRKS5_E_EEvT_SM_T0_T1_RNS3_8ExecutorEEUlRS5_E_NS_17GuidedPartitionerINS_21DefaultClosureWrapperEEELPv0EEEDaSM_SN_SO_T2_T3_ENUlRNS_7RuntimeEE_clES10_ENUlvE0_clEv
   fun:_ZZN2tf19make_transform_taskIN9__gnu_cxx17__normal_iteratorIPN4mpcf3PcfIffEESt6vectorIS5_SaIS5_EEEESA_NS2_IPfS7_IfSaIfEEEEZNS3_16apply_functionalISA_SE_ZN12_GLOBAL__N_165PcfAlgebraAndNormsTest_ApplyFunctionalWithL1NormMultiplePcfs_TestIS5_E8TestBodyEvEUlRKS5_E_EEvT_SM_T0_T1_RNS3_8ExecutorEEUlRS5_E_NS_17GuidedPartitionerINS_21DefaultClosureWrapperEEELPv0EEEDaSM_SN_SO_T2_T3_ENUlRNS_7RuntimeEE_clES10_
   fun:_ZSt13__invoke_implIvRZN2tf19make_transform_taskIN9__gnu_cxx17__normal_iteratorIPN4mpcf3PcfIffEESt6vectorIS6_SaIS6_EEEESB_NS3_IPfS8_IfSaIfEEEEZNS4_16apply_functionalISB_SF_ZN12_GLOBAL__N_165PcfAlgebraAndNormsTest_ApplyFunctionalWithL1NormMultiplePcfs_TestIS6_E8TestBodyEvEUlRKS6_E_EEvT_SN_T0_T1_RNS4_8ExecutorEEUlRS6_E_NS0_17GuidedPartitionerINS0_21DefaultClosureWrapperEEELPv0EEEDaSN_SO_SP_T2_T3_EUlRNS0_7RuntimeEE_JS11_EESN_St14__invoke_otherOSO_DpOT1_
   fun:_ZSt10__invoke_rIvRZN2tf19make_transform_taskIN9__gnu_cxx17__normal_iteratorIPN4mpcf3PcfIffEESt6vectorIS6_SaIS6_EEEESB_NS3_IPfS8_IfSaIfEEEEZNS4_16apply_functionalISB_SF_ZN12_GLOBAL__N_165PcfAlgebraAndNormsTest_ApplyFunctionalWithL1NormMultiplePcfs_TestIS6_E8TestBodyEvEUlRKS6_E_EEvT_SN_T0_T1_RNS4_8ExecutorEEUlRS6_E_NS0_17GuidedPartitionerINS0_21DefaultClosureWrapperEEELPv0EEEDaSN_SO_SP_T2_T3_EUlRNS0_7RuntimeEE_JS11_EENSt9enable_ifIX16is_invocable_r_vISN_SO_DpT1_EESN_E4typeEOSO_DpOS15_
   fun:_ZNSt17_Function_handlerIFvRN2tf7RuntimeEEZNS0_19make_transform_taskIN9__gnu_cxx17__normal_iteratorIPN4mpcf3PcfIffEESt6vectorIS9_SaIS9_EEEESE_NS6_IPfSB_IfSaIfEEEEZNS7_16apply_functionalISE_SI_ZN12_GLOBAL__N_165PcfAlgebraAndNormsTest_ApplyFunctionalWithL1NormMultiplePcfs_TestIS9_E8TestBodyEvEUlRKS9_E_EEvT_SQ_T0_T1_RNS7_8ExecutorEEUlRS9_E_NS0_17GuidedPartitionerINS0_21DefaultClosureWrapperEEELPv0EEEDaSQ_SR_SS_T2_T3_EUlS2_E_E9_M_invokeERKSt9_Any_dataS2_
}
{
   <insert_a_suppression_name_here>
   Helgrind:Race
   fun:_ZN4mpcf16iterate_segmentsIN9__gnu_cxx17__normal_iteratorIPKNS_5PointIffEESt6vectorIS4_SaIS4_EEEEZNS_7l1_normINS_3PcfIffEEEENT_10value_typeERKSE_EUlRKNS_7SegmentIffEEE_EEvSE_SE_NSt15iterator_traitsISE_E10value_type9time_typeESQ_T0_
   fun:_ZN4mpcf7l1_normINS_3PcfIffEEEENT_10value_typeERKS3_
   fun:_ZZN12_GLOBAL__N_165PcfAlgebraAndNormsTest_ApplyFunctionalWithL1NormMultiplePcfs_TestIN4mpcf3PcfIffEEE8TestBodyEvENKUlRKS3_E_clES6_
   fun:_ZZN4mpcf16apply_functionalIN9__gnu_cxx17__normal_iteratorIPNS_3PcfIffEESt6vectorIS4_SaIS4_EEEENS2_IPfS6_IfSaIfEEEEZN12_GLOBAL__N_165PcfAlgebraAndNormsTest_ApplyFunctionalWithL1NormMultiplePcfs_TestIS4_E8TestBodyEvEUlRKS4_E_EEvT_SK_T0_T1_RNS_8ExecutorEENKUlRS4_E_clESP_
   fun:_ZZZZN2tf19make_transform_taskIN9__gnu_cxx17__normal_iteratorIPN4mpcf3PcfIffEESt6vectorIS5_SaIS5_EEEESA_NS2_IPfS7_IfSaIfEEEEZNS3_16apply_functionalISA_SE_ZN12_GLOBAL__N_165PcfAlgebraAndNormsTest_ApplyFunctionalWithL1NormMultiplePcfs_TestIS5_E8TestBodyEvEUlRKS5_E_EEvT_SM_T0_T1_RNS3_8ExecutorEEUlRS5_E_NS_17GuidedPartitionerINS_21DefaultClosureWrapperEEELPv0EEEDaSM_SN_SO_T2_T3_ENUlRNS_7RuntimeEE_clES10_ENUlvE0_clEvENUlmmE_clEmm
   fun:_ZNK2tf17GuidedPartitionerINS_21DefaultClosureWrapperEE4loopIZZZNS_19make_transform_taskIN9__gnu_cxx17__normal_iteratorIPN4mpcf3PcfIffEESt6vectorIS9_SaIS9_EEEESE_NS6_IPfSB_IfSaIfEEEEZNS7_16apply_functionalISE_SI_ZN12_GLOBAL__N_165PcfAlgebraAndNormsTest_ApplyFunctionalWithL1NormMultiplePcfs_TestIS9_E8TestBodyEvEUlRKS9_E_EEvT_SQ_T0_T1_RNS7_8ExecutorEEUlRS9_E_S2_LPv0EEEDaSQ_SR_SS_T2_T3_ENUlRNS_7RuntimeEE_clES11_ENUlvE0_clEvEUlmmE_LSX_0EEEvmmRSt6atomicImEOSQ_
   fun:_ZZZN2tf19make_transform_taskIN9__gnu_cxx17__normal_iteratorIPN4mpcf3PcfIffEESt6vectorIS5_SaIS5_EEEESA_NS2_IPfS7_IfSaIfEEEEZNS3_16apply_functionalISA_SE_ZN12_GLOBAL__N_165PcfAlgebraAndNormsTest_ApplyFunctionalWithL1NormMultiplePcfs_TestIS5_E8TestBodyEvEUlRKS5_E_EEvT_SM_T0_T1_RNS3_8ExecutorEEUlRS5_E_NS_17GuidedPartitionerINS_21DefaultClosureWrapperEEELPv0EEEDaSM_SN_SO_T2_T3_ENUlRNS_7RuntimeEE_clES10_ENUlvE0_clEv
   fun:_ZZN2tf19make_transform_taskIN9__gnu_cxx17__normal_iteratorIPN4mpcf3PcfIffEESt6vectorIS5_SaIS5_EEEESA_NS2_IPfS7_IfSaIfEEEEZNS3_16apply_functionalISA_SE_ZN12_GLOBAL__N_165PcfAlgebraAndNormsTest_ApplyFunctionalWithL1NormMultiplePcfs_TestIS5_E8TestBodyEvEUlRKS5_E_EEvT_SM_T0_T1_RNS3_8ExecutorEEUlRS5_E_NS_17GuidedPartitionerINS_21DefaultClosureWrapperEEELPv0EEEDaSM_SN_SO_T2_T3_ENUlRNS_7RuntimeEE_clES10_
   fun:_ZSt13__invoke_implIvRZN2tf19make_transform_taskIN9__gnu_cxx17__normal_iteratorIPN4mpcf3PcfIffEESt6vectorIS6_SaIS6_EEEESB_NS3_IPfS8_IfSaIfEEEEZNS4_16apply_functionalISB_SF_ZN12_GLOBAL__N_165PcfAlgebraAndNormsTest_ApplyFunctionalWithL1NormMultiplePcfs_TestIS6_E8TestBodyEvEUlRKS6_E_EEvT_SN_T0_T1_RNS4_8ExecutorEEUlRS6_E_NS0_17GuidedPartitionerINS0_21DefaultClosureWrapperEEELPv0EEEDaSN_SO_SP_T2_T3_EUlRNS0_7RuntimeEE_JS11_EESN_St14__invoke_otherOSO_DpOT1_
   fun:_ZSt10__invoke_rIvRZN2tf19make_transform_taskIN9__gnu_cxx17__normal_iteratorIPN4mpcf3PcfIffEESt6vectorIS6_SaIS6_EEEESB_NS3_IPfS8_IfSaIfEEEEZNS4_16apply_functionalISB_SF_ZN12_GLOBAL__N_165PcfAlgebraAndNormsTest_ApplyFunctionalWithL1NormMultiplePcfs_TestIS6_E8TestBodyEvEUlRKS6_E_EEvT_SN_T0_T1_RNS4_8ExecutorEEUlRS6_E_NS0_17GuidedPartitionerINS0_21DefaultClosureWrapperEEELPv0EEEDaSN_SO_SP_T2_T3_EUlRNS0_7RuntimeEE_JS11_EENSt9enable_ifIX16is_invocable_r_vISN_SO_DpT1_EESN_E4typeEOSO_DpOS15_
   fun:_ZNSt17_Function_handlerIFvRN2tf7RuntimeEEZNS0_19make_transform_taskIN9__gnu_cxx17__normal_iteratorIPN4mpcf3PcfIffEESt6vectorIS9_SaIS9_EEEESE_NS6_IPfSB_IfSaIfEEEEZNS7_16apply_functionalISE_SI_ZN12_GLOBAL__N_165PcfAlgebraAndNormsTest_ApplyFunctionalWithL1NormMultiplePcfs_TestIS9_E8TestBodyEvEUlRKS9_E_EEvT_SQ_T0_T1_RNS7_8ExecutorEEUlRS9_E_NS0_17GuidedPartitionerINS0_21DefaultClosureWrapperEEELPv0EEEDaSQ_SR_SS_T2_T3_EUlS2_E_E9_M_invokeERKSt9_Any_dataS2_
   fun:_ZNKSt8functionIFvRN2tf7RuntimeEEEclES2_
}
{
   <insert_a_suppression_name_here>
   Helgrind:Race
   fun:_ZZZZN2tf19make_transform_taskIN9__gnu_cxx17__normal_iteratorIPN4mpcf3PcfIffEESt6vectorIS5_SaIS5_EEEESA_NS2_IPfS7_IfSaIfEEEEZNS3_16apply_functionalISA_SE_ZN12_GLOBAL__N_165PcfAlgebraAndNormsTest_ApplyFunctionalWithL1NormMultiplePcfs_TestIS5_E8TestBodyEvEUlRKS5_E_EEvT_SM_T0_T1_RNS3_8ExecutorEEUlRS5_E_NS_17GuidedPartitionerINS_21DefaultClosureWrapperEEELPv0EEEDaSM_SN_SO_T2_T3_ENUlRNS_7RuntimeEE_clES10_ENUlvE0_clEvENUlmmE_clEmm
   fun:_ZNK2tf17GuidedPartitionerINS_21DefaultClosureWrapperEE4loopIZZZNS_19make_transform_taskIN9__gnu_cxx17__normal_iteratorIPN4mpcf3PcfIffEESt6vectorIS9_SaIS9_EEEESE_NS6_IPfSB_IfSaIfEEEEZNS7_16apply_functionalISE_SI_ZN12_GLOBAL__N_165PcfAlgebraAndNormsTest_ApplyFunctionalWithL1NormMultiplePcfs_TestIS9_E8TestBodyEvEUlRKS9_E_EEvT_SQ_T0_T1_RNS7_8ExecutorEEUlRS9_E_S2_LPv0EEEDaSQ_SR_SS_T2_T3_ENUlRNS_7RuntimeEE_clES11_ENUlvE0_clEvEUlmmE_LSX_0EEEvmmRSt6atomicImEOSQ_
   fun:_ZZZN2tf19make_transform_taskIN9__gnu_cxx17__normal_iteratorIPN4mpcf3PcfIffEESt6vectorIS5_SaIS5_EEEESA_NS2_IPfS7_IfSaIfEEEEZNS3_16apply_functionalISA_SE_ZN12_GLOBAL__N_165PcfAlgebraAndNormsTest_ApplyFunctionalWithL1NormMultiplePcfs_TestIS5_E8TestBodyEvEUlRKS5_E_EEvT_SM_T0_T1_RNS3_8ExecutorEEUlRS5_E_NS_17GuidedPartitionerINS_21DefaultClosureWrapperEEELPv0EEEDaSM_SN_SO_T2_T3_ENUlRNS_7RuntimeEE_clES10_ENUlvE0_clEv
   fun:_ZZN2tf19make_transform_taskIN9__gnu_cxx17__normal_iteratorIPN4mpcf3PcfIffEESt6vectorIS5_SaIS5_EEEESA_NS2_IPfS7_IfSaIfEEEEZNS3_16apply_functionalISA_SE_ZN12_GLOBAL__N_165PcfAlgebraAndNormsTest_ApplyFunctionalWithL1NormMultiplePcfs_TestIS5_E8TestBodyEvEUlRKS5_E_EEvT_SM_T0_T1_RNS3_8ExecutorEEUlRS5_E_NS_17GuidedPartitionerINS_21DefaultClosureWrapperEEELPv0EEEDaSM_SN_SO_T2_T3_ENUlRNS_7RuntimeEE_clES10_
   fun:_ZSt13__invoke_implIvRZN2tf19make_transform_taskIN9__gnu_cxx17__normal_iteratorIPN4mpcf3PcfIffEESt6vectorIS6_SaIS6_EEEESB_NS3_IPfS8_IfSaIfEEEEZNS4_16apply_functionalISB_SF_ZN12_GLOBAL__N_165PcfAlgebraAndNormsTest_ApplyFunctionalWithL1NormMultiplePcfs_TestIS6_E8TestBodyEvEUlRKS6_E_EEvT_SN_T0_T1_RNS4_8ExecutorEEUlRS6_E_NS0_17GuidedPartitionerINS0_21DefaultClosureWrapperEEELPv0EEEDaSN_SO_SP_T2_T3_EUlRNS0_7RuntimeEE_JS11_EESN_St14__invoke_otherOSO_DpOT1_
   fun:_ZSt10__invoke_rIvRZN2tf19make_transform_taskIN9__gnu_cxx17__normal_iteratorIPN4mpcf3PcfIffEESt6vectorIS6_SaIS6_EEEESB_NS3_IPfS8_IfSaIfEEEEZNS4_16apply_functionalISB_SF_ZN12_GLOBAL__N_165PcfAlgebraAndNormsTest_ApplyFunctionalWithL1NormMultiplePcfs_TestIS6_E8TestBodyEvEUlRKS6_E_EEvT_SN_T0_T1_RNS4_8ExecutorEEUlRS6_E_NS0_17GuidedPartitionerINS0_21DefaultClosureWrapperEEELPv0EEEDaSN_SO_SP_T2_T3_EUlRNS0_7RuntimeEE_JS11_EENSt9enable_ifIX16is_invocable_r_vISN_SO_DpT1_EESN_E4typeEOSO_DpOS15_
   fun:_ZNSt17_Function_handlerIFvRN2tf7RuntimeEEZNS0_19make_transform_taskIN9__gnu_cxx17__normal_iteratorIPN4mpcf3PcfIffEESt6vectorIS9_SaIS9_EEEESE_NS6_IPfSB_IfSaIfEEEEZNS7_16apply_functionalISE_SI_ZN12_GLOBAL__N_165PcfAlgebraAndNormsTest_ApplyFunctionalWithL1NormMultiplePcfs_TestIS9_E8TestBodyEvEUlRKS9_E_EEvT_SQ_T0_T1_RNS7_8ExecutorEEUlRS9_E_NS0_17GuidedPartitionerINS0_21DefaultClosureWrapperEEELPv0EEEDaSQ_SR_SS_T2_T3_EUlS2_E_E9_M_invokeERKSt9_Any_dataS2_
   fun:_ZNKSt8functionIFvRN2tf7RuntimeEEEclES2_
   fun:_ZN2tf8Executor25_invoke_runtime_task_implERNS_6WorkerEPNS_4NodeERSt8functionIFvRNS_7RuntimeEEE
   fun:_ZN2tf8Executor20_invoke_runtime_taskERNS_6WorkerEPNS_4NodeE
   fun:_ZN2tf8Executor7_invokeERNS_6WorkerEPNS_4NodeE
   fun:_ZN2tf8Executor13_exploit_taskERNS_6WorkerERPNS_4NodeE
}
{
   <insert_a_suppression_name_here>
   Helgrind:Race
   fun:_ZN4mpcf16iterate_segmentsIN9__gnu_cxx17__normal_iteratorIPKNS_5PointIffEESt6vectorIS4_SaIS4_EEEEZNS_7l1_normINS_3PcfIffEEEENT_10value_typeERKSE_EUlRKNS_7SegmentIffEEE_EEvSE_SE_NSt15iterator_traitsISE_E10value_type9time_typeESQ_T0_
   fun:_ZN4mpcf7l1_normINS_3PcfIffEEEENT_10value_typeERKS3_
   fun:_ZZN12_GLOBAL__N_165PcfAlgebraAndNormsTest_ApplyFunctionalWithL1NormMultiplePcfs_TestIN4mpcf3PcfIffEEE8TestBodyEvENKUlRKS3_E_clES6_
   fun:_ZZN4mpcf16apply_functionalIN9__gnu_cxx17__normal_iteratorIPNS_3PcfIffEESt6vectorIS4_SaIS4_EEEENS2_IPfS6_IfSaIfEEEEZN12_GLOBAL__N_165PcfAlgebraAndNormsTest_ApplyFunctionalWithL1NormMultiplePcfs_TestIS4_E8TestBodyEvEUlRKS4_E_EEvT_SK_T0_T1_RNS_8ExecutorEENKUlRS4_E_clESP_
   fun:_ZZZZN2tf19make_transform_taskIN9__gnu_cxx17__normal_iteratorIPN4mpcf3PcfIffEESt6vectorIS5_SaIS5_EEEESA_NS2_IPfS7_IfSaIfEEEEZNS3_16apply_functionalISA_SE_ZN12_GLOBAL__N_165PcfAlgebraAndNormsTest_ApplyFunctionalWithL1NormMultiplePcfs_TestIS5_E8TestBodyEvEUlRKS5_E_EEvT_SM_T0_T1_RNS3_8ExecutorEEUlRS5_E_NS_17GuidedPartitionerINS_21DefaultClosureWrapperEEELPv0EEEDaSM_SN_SO_T2_T3_ENUlRNS_7RuntimeEE_clES10_ENUlvE0_clEvENUlmmE_clEmm
   fun:_ZNK2tf17GuidedPartitionerINS_21DefaultClosureWrapperEE4loopIZZZNS_19make_transform_taskIN9__gnu_cxx17__normal_iteratorIPN4mpcf3PcfIffEESt6vectorIS9_SaIS9_EEEESE_NS6_IPfSB_IfSaIfEEEEZNS7_16apply_functionalISE_SI_ZN12_GLOBAL__N_165PcfAlgebraAndNormsTest_ApplyFunctionalWithL1NormMultiplePcfs_TestIS9_E8TestBodyEvEUlRKS9_E_EEvT_SQ_T0_T1_RNS7_8ExecutorEEUlRS9_E_S2_LPv0EEEDaSQ_SR_SS_T2_T3_ENUlRNS_7RuntimeEE_clES11_ENUlvE0_clEvEUlmmE_LSX_0EEEvmmRSt6atomicImEOSQ_
   fun:_ZZZN2tf19make_transform_taskIN9__gnu_cxx17__normal_iteratorIPN4mpcf3PcfIffEESt6vectorIS5_SaIS5_EEEESA_NS2_IPfS7_IfSaIfEEEEZNS3_16apply_functionalISA_SE_ZN12_GLOBAL__N_165PcfAlgebraAndNormsTest_ApplyFunctionalWithL1NormMultiplePcfs_TestIS5_E8TestBodyEvEUlRKS5_E_EEvT_SM_T0_T1_RNS3_8ExecutorEEUlRS5_E_NS_17GuidedPartitionerINS_21DefaultClosureWrapperEEELPv0EEEDaSM_SN_SO_T2_T3_ENUlRNS_7RuntimeEE_clES10_ENUlvE0_clEv
   fun:_ZZN2tf19make_transform_taskIN9__gnu_cxx17__normal_iteratorIPN4mpcf3PcfIffEESt6vectorIS5_SaIS5_EEEESA_NS2_IPfS7_IfSaIfEEEEZNS3_16apply_functionalISA_SE_ZN12_GLOBAL__N_165PcfAlgebraAndNormsTest_ApplyFunctionalWithL1NormMultiplePcfs_TestIS5_E8TestBodyEvEUlRKS5_E_EEvT_SM_T0_T1_RNS3_8ExecutorEEUlRS5_E_NS_17GuidedPartitionerINS_21DefaultClosureWrapperEEELPv0EEEDaSM_SN_SO_T2_T3_ENUlRNS_7RuntimeEE_clES10_
   fun:_ZSt13__invoke_implIvRZN2tf19make_transform_taskIN9__gnu_cxx17__normal_iteratorIPN4mpcf3PcfIffEESt6vectorIS6_SaIS6_EEEESB_NS3_IPfS8_IfSaIfEEEEZNS4_16apply_functionalISB_SF_ZN12_GLOBAL__N_165PcfAlgebraAndNormsTest_ApplyFunctionalWithL1NormMultiplePcfs_TestIS6_E8TestBodyEvEUlRKS6_E_EEvT_SN_T0_T1_RNS4_8ExecutorEEUlRS6_E_NS0_17GuidedPartitionerINS0_21DefaultClosureWrapperEEELPv0EEEDaSN_SO_SP_T2_T3_EUlRNS0_7RuntimeEE_JS11_EESN_St14__invoke_otherOSO_DpOT1_
   fun:_ZSt10__invoke_rIvRZN2tf19make_transform_taskIN9__gnu_cxx17__normal_iteratorIPN4mpcf3PcfIffEESt6vectorIS6_SaIS6_EEEESB_NS3_IPfS8_IfSaIfEEEEZNS4_16apply_functionalISB_SF_ZN12_GLOBAL__N_165PcfAlgebraAndNormsTest_ApplyFunctionalWithL1NormMultiplePcfs_TestIS6_E8TestBodyEvEUlRKS6_E_EEvT_SN_T0_T1_RNS4_8ExecutorEEUlRS6_E_NS0_17GuidedPartitionerINS0_21DefaultClosureWrapperEEELPv0EEEDaSN_SO_SP_T2_T3_EUlRNS0_7RuntimeEE_JS11_EENSt9enable_ifIX16is_invocable_r_vISN_SO_DpT1_EESN_E4typeEOSO_DpOS15_
   fun:_ZNSt17_Function_handlerIFvRN2tf7RuntimeEEZNS0_19make_transform_taskIN9__gnu_cxx17__normal_iteratorIPN4mpcf3PcfIffEESt6vectorIS9_SaIS9_EEEESE_NS6_IPfSB_IfSaIfEEEEZNS7_16apply_functionalISE_SI_ZN12_GLOBAL__N_165PcfAlgebraAndNormsTest_ApplyFunctionalWithL1NormMultiplePcfs_TestIS9_E8TestBodyEvEUlRKS9_E_EEvT_SQ_T0_T1_RNS7_8ExecutorEEUlRS9_E_NS0_17GuidedPartitionerINS0_21DefaultClosureWrapperEEELPv0EEEDaSQ_SR_SS_T2_T3_EUlS2_E_E9_M_invokeERKSt9_Any_dataS2_
   fun:_ZNKSt8functionIFvRN2tf7RuntimeEEEclES2_
}
{
   <insert_a_suppression_name_here>
   Helgrind:Race
   fun:_ZSt3minIfERKT_S2_S2_
   fun:_ZN4mpcf16iterate_segmentsIN9__gnu_cxx17__normal_iteratorIPKNS_5PointIffEESt6vectorIS4_SaIS4_EEEEZNS_7l1_normINS_3PcfIffEEEENT_10value_typeERKSE_EUlRKNS_7SegmentIffEEE_EEvSE_SE_NSt15iterator_traitsISE_E10value_type9time_typeESQ_T0_
   fun:_ZN4mpcf7l1_normINS_3PcfIffEEEENT_10value_typeERKS3_
   fun:_ZZN12_GLOBAL__N_165PcfAlgebraAndNormsTest_ApplyFunctionalWithL1NormMultiplePcfs_TestIN4mpcf3PcfIffEEE8TestBodyEvENKUlRKS3_E_clES6_
   fun:_ZZN4mpcf16apply_functionalIN9__gnu_cxx17__normal_iteratorIPNS_3PcfIffEESt6vectorIS4_SaIS4_EEEENS2_IPfS6_IfSaIfEEEEZN12_GLOBAL__N_165PcfAlgebraAndNormsTest_ApplyFunctionalWithL1NormMultiplePcfs_TestIS4_E8TestBodyEvEUlRKS4_E_EEvT_SK_T0_T1_RNS_8ExecutorEENKUlRS4_E_clESP_
   fun:_ZZZZN2tf19make_transform_taskIN9__gnu_cxx17__normal_iteratorIPN4mpcf3PcfIffEESt6vectorIS5_SaIS5_EEEESA_NS2_IPfS7_IfSaIfEEEEZNS3_16apply_functionalISA_SE_ZN12_GLOBAL__N_165PcfAlgebraAndNormsTest_ApplyFunctionalWithL1NormMultiplePcfs_TestIS5_E8TestBodyEvEUlRKS5_E_EEvT_SM_T0_T1_RNS3_8ExecutorEEUlRS5_E_NS_17GuidedPartitionerINS_21DefaultClosureWrapperEEELPv0EEEDaSM_SN_SO_T2_T3_ENUlRNS_7RuntimeEE_clES10_ENUlvE0_clEvENUlmmE_clEmm
   fun:_ZNK2tf17GuidedPartitionerINS_21DefaultClosureWrapperEE4loopIZZZNS_19make_transform_taskIN9__gnu_cxx17__normal_iteratorIPN4mpcf3PcfIffEESt6vectorIS9_SaIS9_EEEESE_NS6_IPfSB_IfSaIfEEEEZNS7_16apply_functionalISE_SI_ZN12_GLOBAL__N_165PcfAlgebraAndNormsTest_ApplyFunctionalWithL1NormMultiplePcfs_TestIS9_E8TestBodyEvEUlRKS9_E_EEvT_SQ_T0_T1_RNS7_8ExecutorEEUlRS9_E_S2_LPv0EEEDaSQ_SR_SS_T2_T3_ENUlRNS_7RuntimeEE_clES11_ENUlvE0_clEvEUlmmE_LSX_0EEEvmmRSt6atomicImEOSQ_
   fun:_ZZZN2tf19make_transform_taskIN9__gnu_cxx17__normal_iteratorIPN4mpcf3PcfIffEESt6vectorIS5_SaIS5_EEEESA_NS2_IPfS7_IfSaIfEEEEZNS3_16apply_functionalISA_SE_ZN12_GLOBAL__N_165PcfAlgebraAndNormsTest_ApplyFunctionalWithL1NormMultiplePcfs_TestIS5_E8TestBodyEvEUlRKS5_E_EEvT_SM_T0_T1_RNS3_8ExecutorEEUlRS5_E_NS_17GuidedPartitionerINS_21DefaultClosureWrapperEEELPv0EEEDaSM_SN_SO_T2_T3_ENUlRNS_7RuntimeEE_clES10_ENUlvE0_clEv
   fun:_ZZN2tf19make_transform_taskIN9__gnu_cxx17__normal_iteratorIPN4mpcf3PcfIffEESt6vectorIS5_SaIS5_EEEESA_NS2_IPfS7_IfSaIfEEEEZNS3_16apply_functionalISA_SE_ZN12_GLOBAL__N_165PcfAlgebraAndNormsTest_ApplyFunctionalWithL1NormMultiplePcfs_TestIS5_E8TestBodyEvEUlRKS5_E_EEvT_SM_T0_T1_RNS3_8ExecutorEEUlRS5_E_NS_17GuidedPartitionerINS_21DefaultClosureWrapperEEELPv0EEEDaSM_SN_SO_T2_T3_ENUlRNS_7RuntimeEE_clES10_
   fun:_ZSt13__invoke_implIvRZN2tf19make_transform_taskIN9__gnu_cxx17__normal_iteratorIPN4mpcf3PcfIffEESt6vectorIS6_SaIS6_EEEESB_NS3_IPfS8_IfSaIfEEEEZNS4_16apply_functionalISB_SF_ZN12_GLOBAL__N_165PcfAlgebraAndNormsTest_ApplyFunctionalWithL1NormMultiplePcfs_TestIS6_E8TestBodyEvEUlRKS6_E_EEvT_SN_T0_T1_RNS4_8ExecutorEEUlRS6_E_NS0_17GuidedPartitionerINS0_21DefaultClosureWrapperEEELPv0EEEDaSN_SO_SP_T2_T3_EUlRNS0_7RuntimeEE_JS11_EESN_St14__invoke_otherOSO_DpOT1_
   fun:_ZSt10__invoke_rIvRZN2tf19make_transform_taskIN9__gnu_cxx17__normal_iteratorIPN4mpcf3PcfIffEESt6vectorIS6_SaIS6_EEEESB_NS3_IPfS8_IfSaIfEEEEZNS4_16apply_functionalISB_SF_ZN12_GLOBAL__N_165PcfAlgebraAndNormsTest_ApplyFunctionalWithL1NormMultiplePcfs_TestIS6_E8TestBodyEvEUlRKS6_E_EEvT_SN_T0_T1_RNS4_8ExecutorEEUlRS6_E_NS0_17GuidedPartitionerINS0_21DefaultClosureWrapperEEELPv0EEEDaSN_SO_SP_T2_T3_EUlRNS0_7RuntimeEE_JS11_EENSt9enable_ifIX16is_invocable_r_vISN_SO_DpT1_EESN_E4typeEOSO_DpOS15_
   fun:_ZNSt17_Function_handlerIFvRN2tf7RuntimeEEZNS0_19make_transform_taskIN9__gnu_cxx17__normal_iteratorIPN4mpcf3PcfIffEESt6vectorIS9_SaIS9_EEEESE_NS6_IPfSB_IfSaIfEEEEZNS7_16apply_functionalISE_SI_ZN12_GLOBAL__N_165PcfAlgebraAndNormsTest_ApplyFunctionalWithL1NormMultiplePcfs_TestIS9_E8TestBodyEvEUlRKS9_E_EEvT_SQ_T0_T1_RNS7_8ExecutorEEUlRS9_E_NS0_17GuidedPartitionerINS0_21DefaultClosureWrapperEEELPv0EEEDaSQ_SR_SS_T2_T3_EUlS2_E_E9_M_invokeERKSt9_Any_dataS2_
}
{
   <insert_a_suppression_name_here>
   Helgrind:Race
   fun:load
   fun:_ZNK2tf4Node20_is_parent_cancelledEv
   fun:_ZN2tf8Executor7_invokeERNS_6WorkerEPNS_4NodeE
   fun:_ZN2tf8Executor13_exploit_taskERNS_6WorkerERPNS_4NodeE
   fun:_ZZN2tf8Executor6_spawnEmSt10shared_ptrINS_15WorkerInterfaceEEENKUlvE_clEv
   fun:_ZSt13__invoke_implIvZN2tf8Executor6_spawnEmSt10shared_ptrINS0_15WorkerInterfaceEEEUlvE_JEET_St14__invoke_otherOT0_DpOT1_
   fun:_ZSt8__invokeIZN2tf8Executor6_spawnEmSt10shared_ptrINS0_15WorkerInterfaceEEEUlvE_JEENSt15__invoke_resultIT_JDpT0_EE4typeEOS7_DpOS8_
   fun:_ZNSt6thread8_InvokerISt5tupleIJZN2tf8Executor6_spawnEmSt10shared_ptrINS2_15WorkerInterfaceEEEUlvE_EEE9_M_invokeIJLm0EEEEvSt12_Index_tupleIJXspT_EEE
   fun:_ZNSt6thread8_InvokerISt5tupleIJZN2tf8Executor6_spawnEmSt10shared_ptrINS2_15WorkerInterfaceEEEUlvE_EEEclEv
   fun:_ZNSt6thread11_State_implINS_8_InvokerISt5tupleIJZN2tf8Executor6_spawnEmSt10shared_ptrINS3_15WorkerInterfaceEEEUlvE_EEEEE6_M_runEv
   obj:/usr/lib/x86_64-linux-gnu/libstdc++.so.6.0.33
   obj:/usr/libexec/valgrind/vgpreload_helgrind-amd64-linux.so
   fun:start_thread
}
{
   <insert_a_suppression_name_here>
   Helgrind:Race
   fun:_ZN2tf8Executor16_tear_down_asyncERNS_6WorkerEPNS_4NodeERS4_
   fun:_ZN2tf8Executor7_invokeERNS_6WorkerEPNS_4NodeE
   fun:_ZN2tf8Executor13_exploit_taskERNS_6WorkerERPNS_4NodeE
   fun:_ZZN2tf8Executor6_spawnEmSt10shared_ptrINS_15WorkerInterfaceEEENKUlvE_clEv
   fun:_ZSt13__invoke_implIvZN2tf8Executor6_spawnEmSt10shared_ptrINS0_15WorkerInterfaceEEEUlvE_JEET_St14__invoke_otherOT0_DpOT1_
   fun:_ZSt8__invokeIZN2tf8Executor6_spawnEmSt10shared_ptrINS0_15WorkerInterfaceEEEUlvE_JEENSt15__invoke_resultIT_JDpT0_EE4typeEOS7_DpOS8_
   fun:_ZNSt6thread8_InvokerISt5tupleIJZN2tf8Executor6_spawnEmSt10shared_ptrINS2_15WorkerInterfaceEEEUlvE_EEE9_M_invokeIJLm0EEEEvSt12_Index_tupleIJXspT_EEE
   fun:_ZNSt6thread8_InvokerISt5tupleIJZN2tf8Executor6_spawnEmSt10shared_ptrINS2_15WorkerInterfaceEEEUlvE_EEEclEv
   fun:_ZNSt6thread11_State_implINS_8_InvokerISt5tupleIJZN2tf8Executor6_spawnEmSt10shared_ptrINS3_15WorkerInterfaceEEEUlvE_EEEEE6_M_runEv
   obj:/usr/lib/x86_64-linux-gnu/libstdc++.so.6.0.33
   obj:/usr/libexec/valgrind/vgpreload_helgrind-amd64-linux.so
   fun:start_thread
}
{
   <insert_a_suppression_name_here>
   Helgrind:Race
   fun:_ZN2tf8Executor25_invoke_runtime_task_implERNS_6WorkerEPNS_4NodeERSt8functionIFvRNS_7RuntimeEEE
   fun:_ZN2tf8Executor20_invoke_runtime_taskERNS_6WorkerEPNS_4NodeE
   fun:_ZN2tf8Executor7_invokeERNS_6WorkerEPNS_4NodeE
   fun:_ZN2tf8Executor13_exploit_taskERNS_6WorkerERPNS_4NodeE
   fun:_ZZN2tf8Executor6_spawnEmSt10shared_ptrINS_15WorkerInterfaceEEENKUlvE_clEv
   fun:_ZSt13__invoke_implIvZN2tf8Executor6_spawnEmSt10shared_ptrINS0_15WorkerInterfaceEEEUlvE_JEET_St14__invoke_otherOT0_DpOT1_
   fun:_ZSt8__invokeIZN2tf8Executor6_spawnEmSt10shared_ptrINS0_15WorkerInterfaceEEEUlvE_JEENSt15__invoke_resultIT_JDpT0_EE4typeEOS7_DpOS8_
   fun:_ZNSt6thread8_InvokerISt5tupleIJZN2tf8Executor6_spawnEmSt10shared_ptrINS2_15WorkerInterfaceEEEUlvE_EEE9_M_invokeIJLm0EEEEvSt12_Index_tupleIJXspT_EEE
   fun:_ZNSt6thread8_InvokerISt5tupleIJZN2tf8Executor6_spawnEmSt10shared_ptrINS2_15WorkerInterfaceEEEUlvE_EEEclEv
   fun:_ZNSt6thread11_State_implINS_8_InvokerISt5tupleIJZN2tf8Executor6_spawnEmSt10shared_ptrINS3_15WorkerInterfaceEEEUlvE_EEEEE6_M_runEv
   obj:/usr/lib/x86_64-linux-gnu/libstdc++.so.6.0.33
   obj:/usr/libexec/valgrind/vgpreload_helgrind-amd64-linux.so
}
{
   <insert_a_suppression_name_here>
   Helgrind:Race
   fun:_ZN2tf8Executor19_tear_down_nonasyncERNS_6WorkerEPNS_4NodeERS4_
   fun:_ZN2tf8Executor7_invokeERNS_6WorkerEPNS_4NodeE
   fun:_ZN2tf8Executor13_exploit_taskERNS_6WorkerERPNS_4NodeE
   fun:_ZZN2tf8Executor6_spawnEmSt10shared_ptrINS_15WorkerInterfaceEEENKUlvE_clEv
   fun:_ZSt13__invoke_implIvZN2tf8Executor6_spawnEmSt10shared_ptrINS0_15WorkerInterfaceEEEUlvE_JEET_St14__invoke_otherOT0_DpOT1_
   fun:_ZSt8__invokeIZN2tf8Executor6_spawnEmSt10shared_ptrINS0_15WorkerInterfaceEEEUlvE_JEENSt15__invoke_resultIT_JDpT0_EE4typeEOS7_DpOS8_
   fun:_ZNSt6thread8_InvokerISt5tupleIJZN2tf8Executor6_spawnEmSt10shared_ptrINS2_15WorkerInterfaceEEEUlvE_EEE9_M_invokeIJLm0EEEEvSt12_Index_tupleIJXspT_EEE
   fun:_ZNSt6thread8_InvokerISt5tupleIJZN2tf8Executor6_spawnEmSt10shared_ptrINS2_15WorkerInterfaceEEEUlvE_EEEclEv
   fun:_ZNSt6thread11_State_implINS_8_InvokerISt5tupleIJZN2tf8Executor6_spawnEmSt10shared_ptrINS3_15WorkerInterfaceEEEUlvE_EEEEE6_M_runEv
   obj:/usr/lib/x86_64-linux-gnu/libstdc++.so.6.0.33
   obj:/usr/libexec/valgrind/vgpreload_helgrind-amd64-linux.so
   fun:start_thread
}
{
   <insert_a_suppression_name_here>
   Helgrind:Race
   fun:_ZZN2tf8Executor5run_nIZNS0_3runEONS_8TaskflowEEUlvE_EENS_6FutureIvEES3_mOT_ENUlvE_clEv
   fun:_ZSt13__invoke_implIbRZN2tf8Executor5run_nIZNS1_3runEONS0_8TaskflowEEUlvE_EENS0_6FutureIvEES4_mOT_EUlvE_JEES8_St14__invoke_otherOT0_DpOT1_
   fun:_ZSt10__invoke_rIbRZN2tf8Executor5run_nIZNS1_3runEONS0_8TaskflowEEUlvE_EENS0_6FutureIvEES4_mOT_EUlvE_JEENSt9enable_ifIX16is_invocable_r_vIS8_T0_DpT1_EES8_E4typeEOSD_DpOSE_
   fun:_ZNSt17_Function_handlerIFbvEZN2tf8Executor5run_nIZNS2_3runEONS1_8TaskflowEEUlvE_EENS1_6FutureIvEES5_mOT_EUlvE_E9_M_invokeERKSt9_Any_data
   fun:_ZNKSt8functionIFbvEEclEv
   fun:_ZN2tf8Executor19_tear_down_topologyERNS_6WorkerEPNS_8TopologyERPNS_4NodeE
   fun:_ZN2tf8Executor19_tear_down_nonasyncERNS_6WorkerEPNS_4NodeERS4_
   fun:_ZN2tf8Executor7_invokeERNS_6WorkerEPNS_4NodeE
   fun:_ZN2tf8Executor13_exploit_taskERNS_6WorkerERPNS_4NodeE
   fun:_ZZN2tf8Executor6_spawnEmSt10shared_ptrINS_15WorkerInterfaceEEENKUlvE_clEv
   fun:_ZSt13__invoke_implIvZN2tf8Executor6_spawnEmSt10shared_ptrINS0_15WorkerInterfaceEEEUlvE_JEET_St14__invoke_otherOT0_DpOT1_
   fun:_ZSt8__invokeIZN2tf8Executor6_spawnEmSt10shared_ptrINS0_15WorkerInterfaceEEEUlvE_JEENSt15__invoke_resultIT_JDpT0_EE4typeEOS7_DpOS8_
}
{
   <insert_a_suppression_name_here>
   Helgrind:Race
   fun:_ZZN2tf8Executor5run_nIZNS0_3runEONS_8TaskflowEEUlvE_EENS_6FutureIvEES3_mOT_ENUlvE_clEv
   fun:_ZSt13__invoke_implIbRZN2tf8Executor5run_nIZNS1_3runEONS0_8TaskflowEEUlvE_EENS0_6FutureIvEES4_mOT_EUlvE_JEES8_St14__invoke_otherOT0_DpOT1_
   fun:_ZSt10__invoke_rIbRZN2tf8Executor5run_nIZNS1_3runEONS0_8TaskflowEEUlvE_EENS0_6FutureIvEES4_mOT_EUlvE_JEENSt9enable_ifIX16is_invocable_r_vIS8_T0_DpT1_EES8_E4typeEOSD_DpOSE_
   fun:_ZNSt17_Function_handlerIFbvEZN2tf8Executor5run_nIZNS2_3runEONS1_8TaskflowEEUlvE_EENS1_6FutureIvEES5_mOT_EUlvE_E9_M_invokeERKSt9_Any_data
   fun:_ZNKSt8functionIFbvEEclEv
   fun:_ZN2tf8Executor19_tear_down_topologyERNS_6WorkerEPNS_8TopologyERPNS_4NodeE
   fun:_ZN2tf8Executor19_tear_down_nonasyncERNS_6WorkerEPNS_4NodeERS4_
   fun:_ZN2tf8Executor7_invokeERNS_6WorkerEPNS_4NodeE
   fun:_ZN2tf8Executor13_exploit_taskERNS_6WorkerERPNS_4NodeE
   fun:_ZZN2tf8Executor6_spawnEmSt10shared_ptrINS_15WorkerInterfaceEEENKUlvE_clEv
   fun:_ZSt13__invoke_implIvZN2tf8Executor6_spawnEmSt10shared_ptrINS0_15WorkerInterfaceEEEUlvE_JEET_St14__invoke_otherOT0_DpOT1_
   fun:_ZSt8__invokeIZN2tf8Executor6_spawnEmSt10shared_ptrINS0_15WorkerInterfaceEEEUlvE_JEENSt15__invoke_resultIT_JDpT0_EE4typeEOS7_DpOS8_
}
{
   <insert_a_suppression_name_here>
   Helgrind:Race
   fun:_ZNSt15_Deque_iteratorISt10shared_ptrIN2tf8TopologyEERS3_PS3_EC1ERKS6_
   fun:_ZNSt5dequeISt10shared_ptrIN2tf8TopologyEESaIS3_EE5beginEv
   fun:_ZNSt5dequeISt10shared_ptrIN2tf8TopologyEESaIS3_EE5frontEv
   fun:_ZNSt5queueISt10shared_ptrIN2tf8TopologyEESt5dequeIS3_SaIS3_EEE5frontEv
   fun:_ZN2tf8Executor19_tear_down_topologyERNS_6WorkerEPNS_8TopologyERPNS_4NodeE
   fun:_ZN2tf8Executor19_tear_down_nonasyncERNS_6WorkerEPNS_4NodeERS4_
   fun:_ZN2tf8Executor7_invokeERNS_6WorkerEPNS_4NodeE
   fun:_ZN2tf8Executor13_exploit_taskERNS_6WorkerERPNS_4NodeE
   fun:_ZZN2tf8Executor6_spawnEmSt10shared_ptrINS_15WorkerInterfaceEEENKUlvE_clEv
   fun:_ZSt13__invoke_implIvZN2tf8Executor6_spawnEmSt10shared_ptrINS0_15WorkerInterfaceEEEUlvE_JEET_St14__invoke_otherOT0_DpOT1_
   fun:_ZSt8__invokeIZN2tf8Executor6_spawnEmSt10shared_ptrINS0_15WorkerInterfaceEEEUlvE_JEENSt15__invoke_resultIT_JDpT0_EE4typeEOS7_DpOS8_
   fun:_ZNSt6thread8_InvokerISt5tupleIJZN2tf8Executor6_spawnEmSt10shared_ptrINS2_15WorkerInterfaceEEEUlvE_EEE9_M_invokeIJLm0EEEEvSt12_Index_tupleIJXspT_EEE
}
{
   <insert_a_suppression_name_here>
   Helgrind:Race
   fun:_ZNSt12__shared_ptrIN2tf8TopologyELN9__gnu_cxx12_Lock_policyE2EEC1EOS4_
   fun:_ZNSt10shared_ptrIN2tf8TopologyEEC1EOS2_
   fun:_ZN2tf8Executor19_tear_down_topologyERNS_6WorkerEPNS_8TopologyERPNS_4NodeE
   fun:_ZN2tf8Executor19_tear_down_nonasyncERNS_6WorkerEPNS_4NodeERS4_
   fun:_ZN2tf8Executor7_invokeERNS_6WorkerEPNS_4NodeE
   fun:_ZN2tf8Executor13_exploit_taskERNS_6WorkerERPNS_4NodeE
   fun:_ZZN2tf8Executor6_spawnEmSt10shared_ptrINS_15WorkerInterfaceEEENKUlvE_clEv
   fun:_ZSt13__invoke_implIvZN2tf8Executor6_spawnEmSt10shared_ptrINS0_15WorkerInterfaceEEEUlvE_JEET_St14__invoke_otherOT0_DpOT1_
   fun:_ZSt8__invokeIZN2tf8Executor6_spawnEmSt10shared_ptrINS0_15WorkerInterfaceEEEUlvE_JEENSt15__invoke_resultIT_JDpT0_EE4typeEOS7_DpOS8_
   fun:_ZNSt6thread8_InvokerISt5tupleIJZN2tf8Executor6_spawnEmSt10shared_ptrINS2_15WorkerInterfaceEEEUlvE_EEE9_M_invokeIJLm0EEEEvSt12_Index_tupleIJXspT_EEE
   fun:_ZNSt6thread8_InvokerISt5tupleIJZN2tf8Executor6_spawnEmSt10shared_ptrINS2_15WorkerInterfaceEEEUlvE_EEEclEv
   fun:_ZNSt6thread11_State_implINS_8_InvokerISt5tupleIJZN2tf8Executor6_spawnEmSt10shared_ptrINS3_15WorkerInterfaceEEEUlvE_EEEEE6_M_runEv
}
{
   <insert_a_suppression_name_here>
   Helgrind:Race
   fun:_ZNSt14__shared_countILN9__gnu_cxx12_Lock_policyE2EE7_M_swapERS2_
   fun:_ZNSt12__shared_ptrIN2tf8TopologyELN9__gnu_cxx12_Lock_policyE2EEC1EOS4_
   fun:_ZNSt10shared_ptrIN2tf8TopologyEEC1EOS2_
   fun:_ZN2tf8Executor19_tear_down_topologyERNS_6WorkerEPNS_8TopologyERPNS_4NodeE
   fun:_ZN2tf8Executor19_tear_down_nonasyncERNS_6WorkerEPNS_4NodeERS4_
   fun:_ZN2tf8Executor7_invokeERNS_6WorkerEPNS_4NodeE
   fun:_ZN2tf8Executor13_exploit_taskERNS_6WorkerERPNS_4NodeE
   fun:_ZZN2tf8Executor6_spawnEmSt10shared_ptrINS_15WorkerInterfaceEEENKUlvE_clEv
   fun:_ZSt13__invoke_implIvZN2tf8Executor6_spawnEmSt10shared_ptrINS0_15WorkerInterfaceEEEUlvE_JEET_St14__invoke_otherOT0_DpOT1_
   fun:_ZSt8__invokeIZN2tf8Executor6_spawnEmSt10shared_ptrINS0_15WorkerInterfaceEEEUlvE_JEENSt15__invoke_resultIT_JDpT0_EE4typeEOS7_DpOS8_
   fun:_ZNSt6thread8_InvokerISt5tupleIJZN2tf8Executor6_spawnEmSt10shared_ptrINS2_15WorkerInterfaceEEEUlvE_EEE9_M_invokeIJLm0EEEEvSt12_Index_tupleIJXspT_EEE
   fun:_ZNSt6thread8_InvokerISt5tupleIJZN2tf8Executor6_spawnEmSt10shared_ptrINS2_15WorkerInterfaceEEEUlvE_EEEclEv
}
{
   <insert_a_suppression_name_here>
   Helgrind:Race
   fun:_ZNSt14__shared_countILN9__gnu_cxx12_Lock_policyE2EE7_M_swapERS2_
   fun:_ZNSt12__shared_ptrIN2tf8TopologyELN9__gnu_cxx12_Lock_policyE2EEC1EOS4_
   fun:_ZNSt10shared_ptrIN2tf8TopologyEEC1EOS2_
   fun:_ZN2tf8Executor19_tear_down_topologyERNS_6WorkerEPNS_8TopologyERPNS_4NodeE
   fun:_ZN2tf8Executor19_tear_down_nonasyncERNS_6WorkerEPNS_4NodeERS4_
   fun:_ZN2tf8Executor7_invokeERNS_6WorkerEPNS_4NodeE
   fun:_ZN2tf8Executor13_exploit_taskERNS_6WorkerERPNS_4NodeE
   fun:_ZZN2tf8Executor6_spawnEmSt10shared_ptrINS_15WorkerInterfaceEEENKUlvE_clEv
   fun:_ZSt13__invoke_implIvZN2tf8Executor6_spawnEmSt10shared_ptrINS0_15WorkerInterfaceEEEUlvE_JEET_St14__invoke_otherOT0_DpOT1_
   fun:_ZSt8__invokeIZN2tf8Executor6_spawnEmSt10shared_ptrINS0_15WorkerInterfaceEEEUlvE_JEENSt15__invoke_resultIT_JDpT0_EE4typeEOS7_DpOS8_
   fun:_ZNSt6thread8_InvokerISt5tupleIJZN2tf8Executor6_spawnEmSt10shared_ptrINS2_15WorkerInterfaceEEEUlvE_EEE9_M_invokeIJLm0EEEEvSt12_Index_tupleIJXspT_EEE
   fun:_ZNSt6thread8_InvokerISt5tupleIJZN2tf8Executor6_spawnEmSt10shared_ptrINS2_15WorkerInterfaceEEEUlvE_EEEclEv
}
{
   <insert_a_suppression_name_here>
   Helgrind:Race
   fun:_ZNSt12__shared_ptrIN2tf8TopologyELN9__gnu_cxx12_Lock_policyE2EEC1EOS4_
   fun:_ZNSt10shared_ptrIN2tf8TopologyEEC1EOS2_
   fun:_ZN2tf8Executor19_tear_down_topologyERNS_6WorkerEPNS_8TopologyERPNS_4NodeE
   fun:_ZN2tf8Executor19_tear_down_nonasyncERNS_6WorkerEPNS_4NodeERS4_
   fun:_ZN2tf8Executor7_invokeERNS_6WorkerEPNS_4NodeE
   fun:_ZN2tf8Executor13_exploit_taskERNS_6WorkerERPNS_4NodeE
   fun:_ZZN2tf8Executor6_spawnEmSt10shared_ptrINS_15WorkerInterfaceEEENKUlvE_clEv
   fun:_ZSt13__invoke_implIvZN2tf8Executor6_spawnEmSt10shared_ptrINS0_15WorkerInterfaceEEEUlvE_JEET_St14__invoke_otherOT0_DpOT1_
   fun:_ZSt8__invokeIZN2tf8Executor6_spawnEmSt10shared_ptrINS0_15WorkerInterfaceEEEUlvE_JEENSt15__invoke_resultIT_JDpT0_EE4typeEOS7_DpOS8_
   fun:_ZNSt6thread8_InvokerISt5tupleIJZN2tf8Executor6_spawnEmSt10shared_ptrINS2_15WorkerInterfaceEEEUlvE_EEE9_M_invokeIJLm0EEEEvSt12_Index_tupleIJXspT_EEE
   fun:_ZNSt6thread8_InvokerISt5tupleIJZN2tf8Executor6_spawnEmSt10shared_ptrINS2_15WorkerInterfaceEEEUlvE_EEEclEv
   fun:_ZNSt6thread11_State_implINS_8_InvokerISt5tupleIJZN2tf8Executor6_spawnEmSt10shared_ptrINS3_15WorkerInterfaceEEEUlvE_EEEEE6_M_runEv
}
{
   <insert_a_suppression_name_here>
   Helgrind:Race
   fun:_ZNSt5dequeISt10shared_ptrIN2tf8TopologyEESaIS3_EE9pop_frontEv
   fun:_ZNSt5queueISt10shared_ptrIN2tf8TopologyEESt5dequeIS3_SaIS3_EEE3popEv
   fun:_ZN2tf8Executor19_tear_down_topologyERNS_6WorkerEPNS_8TopologyERPNS_4NodeE
   fun:_ZN2tf8Executor19_tear_down_nonasyncERNS_6WorkerEPNS_4NodeERS4_
   fun:_ZN2tf8Executor7_invokeERNS_6WorkerEPNS_4NodeE
   fun:_ZN2tf8Executor13_exploit_taskERNS_6WorkerERPNS_4NodeE
   fun:_ZZN2tf8Executor6_spawnEmSt10shared_ptrINS_15WorkerInterfaceEEENKUlvE_clEv
   fun:_ZSt13__invoke_implIvZN2tf8Executor6_spawnEmSt10shared_ptrINS0_15WorkerInterfaceEEEUlvE_JEET_St14__invoke_otherOT0_DpOT1_
   fun:_ZSt8__invokeIZN2tf8Executor6_spawnEmSt10shared_ptrINS0_15WorkerInterfaceEEEUlvE_JEENSt15__invoke_resultIT_JDpT0_EE4typeEOS7_DpOS8_
   fun:_ZNSt6thread8_InvokerISt5tupleIJZN2tf8Executor6_spawnEmSt10shared_ptrINS2_15WorkerInterfaceEEEUlvE_EEE9_M_invokeIJLm0EEEEvSt12_Index_tupleIJXspT_EEE
   fun:_ZNSt6thread8_InvokerISt5tupleIJZN2tf8Executor6_spawnEmSt10shared_ptrINS2_15WorkerInterfaceEEEUlvE_EEEclEv
   fun:_ZNSt6thread11_State_implINS_8_InvokerISt5tupleIJZN2tf8Executor6_spawnEmSt10shared_ptrINS3_15WorkerInterfaceEEEUlvE_EEEEE6_M_runEv
}
{
   <insert_a_suppression_name_here>
   Helgrind:Race
   fun:_ZNKSt15__exception_ptr13exception_ptrcvbEv
   fun:_ZN2tf8Topology18_carry_out_promiseEv
   fun:_ZN2tf8Executor19_tear_down_topologyERNS_6WorkerEPNS_8TopologyERPNS_4NodeE
   fun:_ZN2tf8Executor19_tear_down_nonasyncERNS_6WorkerEPNS_4NodeERS4_
   fun:_ZN2tf8Executor7_invokeERNS_6WorkerEPNS_4NodeE
   fun:_ZN2tf8Executor13_exploit_taskERNS_6WorkerERPNS_4NodeE
   fun:_ZZN2tf8Executor6_spawnEmSt10shared_ptrINS_15WorkerInterfaceEEENKUlvE_clEv
   fun:_ZSt13__invoke_implIvZN2tf8Executor6_spawnEmSt10shared_ptrINS0_15WorkerInterfaceEEEUlvE_JEET_St14__invoke_otherOT0_DpOT1_
   fun:_ZSt8__invokeIZN2tf8Executor6_spawnEmSt10shared_ptrINS0_15WorkerInterfaceEEEUlvE_JEENSt15__invoke_resultIT_JDpT0_EE4typeEOS7_DpOS8_
   fun:_ZNSt6thread8_InvokerISt5tupleIJZN2tf8Executor6_spawnEmSt10shared_ptrINS2_15WorkerInterfaceEEEUlvE_EEE9_M_invokeIJLm0EEEEvSt12_Index_tupleIJXspT_EEE
   fun:_ZNSt6thread8_InvokerISt5tupleIJZN2tf8Executor6_spawnEmSt10shared_ptrINS2_15WorkerInterfaceEEEUlvE_EEEclEv
   fun:_ZNSt6thread11_State_implINS_8_InvokerISt5tupleIJZN2tf8Executor6_spawnEmSt10shared_ptrINS3_15WorkerInterfaceEEEUlvE_EEEEE6_M_runEv
}
{
   <insert_a_suppression_name_here>
   Helgrind:Race
   fun:_ZNKSt12__shared_ptrINSt13__future_base13_State_baseV2ELN9__gnu_cxx12_Lock_policyE2EEcvbEv
   fun:_ZNSt13__future_base13_State_baseV28_S_checkIS0_EEvRKSt10shared_ptrIT_E
   fun:_ZNSt7promiseIvE8_M_stateEv
   fun:_ZNSt7promiseIvE9set_valueEv
   fun:_ZN2tf8Topology18_carry_out_promiseEv
   fun:_ZN2tf8Executor19_tear_down_topologyERNS_6WorkerEPNS_8TopologyERPNS_4NodeE
   fun:_ZN2tf8Executor19_tear_down_nonasyncERNS_6WorkerEPNS_4NodeERS4_
   fun:_ZN2tf8Executor7_invokeERNS_6WorkerEPNS_4NodeE
   fun:_ZN2tf8Executor13_exploit_taskERNS_6WorkerERPNS_4NodeE
   fun:_ZZN2tf8Executor6_spawnEmSt10shared_ptrINS_15WorkerInterfaceEEENKUlvE_clEv
   fun:_ZSt13__invoke_implIvZN2tf8Executor6_spawnEmSt10shared_ptrINS0_15WorkerInterfaceEEEUlvE_JEET_St14__invoke_otherOT0_DpOT1_
   fun:_ZSt8__invokeIZN2tf8Executor6_spawnEmSt10shared_ptrINS0_15WorkerInterfaceEEEUlvE_JEENSt15__invoke_resultIT_JDpT0_EE4typeEOS7_DpOS8_
}
{
   <insert_a_suppression_name_here>
   Helgrind:Race
   fun:_ZNSt11_Tuple_implILm0EJPNSt13__future_base7_ResultIvEENS0_12_Result_base8_DeleterEEEC1EOS6_
   fun:_ZNSt5tupleIJPNSt13__future_base7_ResultIvEENS0_12_Result_base8_DeleterEEEC1EOS6_
   fun:_ZNSt15__uniq_ptr_implINSt13__future_base7_ResultIvEENS0_12_Result_base8_DeleterEEC1EOS5_
   fun:_ZNSt15__uniq_ptr_dataINSt13__future_base7_ResultIvEENS0_12_Result_base8_DeleterELb1ELb1EEC1EOS5_
   fun:_ZNSt10unique_ptrINSt13__future_base7_ResultIvEENS0_12_Result_base8_DeleterEEC1EOS5_
   fun:_ZNKSt13__future_base13_State_baseV27_SetterIvvEclEv
   fun:_ZSt13__invoke_implISt10unique_ptrINSt13__future_base7_ResultIvEENS1_12_Result_base8_DeleterEERNS1_13_State_baseV27_SetterIvvEEJEET_St14__invoke_otherOT0_DpOT1_
   fun:_ZSt10__invoke_rISt10unique_ptrINSt13__future_base12_Result_baseENS2_8_DeleterEERNS1_13_State_baseV27_SetterIvvEEJEENSt9enable_ifIX16is_invocable_r_vIT_T0_DpT1_EESA_E4typeEOSB_DpOSC_
   fun:_ZNSt17_Function_handlerIFSt10unique_ptrINSt13__future_base12_Result_baseENS2_8_DeleterEEvENS1_13_State_baseV27_SetterIvvEEE9_M_invokeERKSt9_Any_data
   fun:_ZNKSt8functionIFSt10unique_ptrINSt13__future_base12_Result_baseENS2_8_DeleterEEvEEclEv
   fun:_ZNSt13__future_base13_State_baseV29_M_do_setEPSt8functionIFSt10unique_ptrINS_12_Result_baseENS3_8_DeleterEEvEEPb
   fun:_ZSt13__invoke_implIvMNSt13__future_base13_State_baseV2EFvPSt8functionIFSt10unique_ptrINS0_12_Result_baseENS4_8_DeleterEEvEEPbEPS1_JS9_SA_EET_St21__invoke_memfun_derefOT0_OT1_DpOT2_
}
{
   <insert_a_suppression_name_here>
   Helgrind:Race
   fun:_ZNSt15__uniq_ptr_implINSt13__future_base7_ResultIvEENS0_12_Result_base8_DeleterEEC1EOS5_
   fun:_ZNSt15__uniq_ptr_dataINSt13__future_base7_ResultIvEENS0_12_Result_base8_DeleterELb1ELb1EEC1EOS5_
   fun:_ZNSt10unique_ptrINSt13__future_base7_ResultIvEENS0_12_Result_base8_DeleterEEC1EOS5_
   fun:_ZNKSt13__future_base13_State_baseV27_SetterIvvEclEv
   fun:_ZSt13__invoke_implISt10unique_ptrINSt13__future_base7_ResultIvEENS1_12_Result_base8_DeleterEERNS1_13_State_baseV27_SetterIvvEEJEET_St14__invoke_otherOT0_DpOT1_
   fun:_ZSt10__invoke_rISt10unique_ptrINSt13__future_base12_Result_baseENS2_8_DeleterEERNS1_13_State_baseV27_SetterIvvEEJEENSt9enable_ifIX16is_invocable_r_vIT_T0_DpT1_EESA_E4typeEOSB_DpOSC_
   fun:_ZNSt17_Function_handlerIFSt10unique_ptrINSt13__future_base12_Result_baseENS2_8_DeleterEEvENS1_13_State_baseV27_SetterIvvEEE9_M_invokeERKSt9_Any_data
   fun:_ZNKSt8functionIFSt10unique_ptrINSt13__future_base12_Result_baseENS2_8_DeleterEEvEEclEv
   fun:_ZNSt13__future_base13_State_baseV29_M_do_setEPSt8functionIFSt10unique_ptrINS_12_Result_baseENS3_8_DeleterEEvEEPb
   fun:_ZSt13__invoke_implIvMNSt13__future_base13_State_baseV2EFvPSt8functionIFSt10unique_ptrINS0_12_Result_baseENS4_8_DeleterEEvEEPbEPS1_JS9_SA_EET_St21__invoke_memfun_derefOT0_OT1_DpOT2_
   fun:_ZSt8__invokeIMNSt13__future_base13_State_baseV2EFvPSt8functionIFSt10unique_ptrINS0_12_Result_baseENS4_8_DeleterEEvEEPbEJPS1_S9_SA_EENSt15__invoke_resultIT_JDpT0_EE4typeEOSF_DpOSG_
   fun:_ZZSt9call_onceIMNSt13__future_base13_State_baseV2EFvPSt8functionIFSt10unique_ptrINS0_12_Result_baseENS4_8_DeleterEEvEEPbEJPS1_S9_SA_EEvRSt9once_flagOT_DpOT0_ENKUlvE_clEv
}
{
   <insert_a_suppression_name_here>
   Helgrind:Race
   fun:_ZSt4swapIPNSt13__future_base12_Result_baseEENSt9enable_ifIXsrSt6__and_IJSt6__not_ISt15__is_tuple_likeIT_EESt21is_move_constructibleIS7_ESt18is_move_assignableIS7_EEE5valueEvE4typeERS7_SH_
   fun:_ZNSt15__uniq_ptr_implINSt13__future_base12_Result_baseENS1_8_DeleterEE4swapERS3_
   fun:_ZNSt10unique_ptrINSt13__future_base12_Result_baseENS1_8_DeleterEE4swapERS3_
   fun:_ZNSt13__future_base13_State_baseV29_M_do_setEPSt8functionIFSt10unique_ptrINS_12_Result_baseENS3_8_DeleterEEvEEPb
   fun:_ZSt13__invoke_implIvMNSt13__future_base13_State_baseV2EFvPSt8functionIFSt10unique_ptrINS0_12_Result_baseENS4_8_DeleterEEvEEPbEPS1_JS9_SA_EET_St21__invoke_memfun_derefOT0_OT1_DpOT2_
   fun:_ZSt8__invokeIMNSt13__future_base13_State_baseV2EFvPSt8functionIFSt10unique_ptrINS0_12_Result_baseENS4_8_DeleterEEvEEPbEJPS1_S9_SA_EENSt15__invoke_resultIT_JDpT0_EE4typeEOSF_DpOSG_
   fun:_ZZSt9call_onceIMNSt13__future_base13_State_baseV2EFvPSt8functionIFSt10unique_ptrINS0_12_Result_baseENS4_8_DeleterEEvEEPbEJPS1_S9_SA_EEvRSt9once_flagOT_DpOT0_ENKUlvE_clEv
   fun:_ZZNSt9once_flag18_Prepare_executionC4IZSt9call_onceIMNSt13__future_base13_State_baseV2EFvPSt8functionIFSt10unique_ptrINS3_12_Result_baseENS7_8_DeleterEEvEEPbEJPS4_SC_SD_EEvRS_OT_DpOT0_EUlvE_EERSI_ENKUlvE_clEv
   fun:_ZZNSt9once_flag18_Prepare_executionC4IZSt9call_onceIMNSt13__future_base13_State_baseV2EFvPSt8functionIFSt10unique_ptrINS3_12_Result_baseENS7_8_DeleterEEvEEPbEJPS4_SC_SD_EEvRS_OT_DpOT0_EUlvE_EERSI_ENUlvE_4_FUNEv
   fun:__pthread_once_slow
   fun:_ZL14__gthread_oncePiPFvvE
   fun:_ZSt9call_onceIMNSt13__future_base13_State_baseV2EFvPSt8functionIFSt10unique_ptrINS0_12_Result_baseENS4_8_DeleterEEvEEPbEJPS1_S9_SA_EEvRSt9once_flagOT_DpOT0_
}
{
   <insert_a_suppression_name_here>
   Helgrind:Race
   fun:_ZSt4swapIPNSt13__future_base12_Result_baseEENSt9enable_ifIXsrSt6__and_IJSt6__not_ISt15__is_tuple_likeIT_EESt21is_move_constructibleIS7_ESt18is_move_assignableIS7_EEE5valueEvE4typeERS7_SH_
   fun:_ZNSt15__uniq_ptr_implINSt13__future_base12_Result_baseENS1_8_DeleterEE4swapERS3_
   fun:_ZNSt10unique_ptrINSt13__future_base12_Result_baseENS1_8_DeleterEE4swapERS3_
   fun:_ZNSt13__future_base13_State_baseV29_M_do_setEPSt8functionIFSt10unique_ptrINS_12_Result_baseENS3_8_DeleterEEvEEPb
   fun:_ZSt13__invoke_implIvMNSt13__future_base13_State_baseV2EFvPSt8functionIFSt10unique_ptrINS0_12_Result_baseENS4_8_DeleterEEvEEPbEPS1_JS9_SA_EET_St21__invoke_memfun_derefOT0_OT1_DpOT2_
   fun:_ZSt8__invokeIMNSt13__future_base13_State_baseV2EFvPSt8functionIFSt10unique_ptrINS0_12_Result_baseENS4_8_DeleterEEvEEPbEJPS1_S9_SA_EENSt15__invoke_resultIT_JDpT0_EE4typeEOSF_DpOSG_
   fun:_ZZSt9call_onceIMNSt13__future_base13_State_baseV2EFvPSt8functionIFSt10unique_ptrINS0_12_Result_baseENS4_8_DeleterEEvEEPbEJPS1_S9_SA_EEvRSt9once_flagOT_DpOT0_ENKUlvE_clEv
   fun:_ZZNSt9once_flag18_Prepare_executionC4IZSt9call_onceIMNSt13__future_base13_State_baseV2EFvPSt8functionIFSt10unique_ptrINS3_12_Result_baseENS7_8_DeleterEEvEEPbEJPS4_SC_SD_EEvRS_OT_DpOT0_EUlvE_EERSI_ENKUlvE_clEv
   fun:_ZZNSt9once_flag18_Prepare_executionC4IZSt9call_onceIMNSt13__future_base13_State_baseV2EFvPSt8functionIFSt10unique_ptrINS3_12_Result_baseENS7_8_DeleterEEvEEPbEJPS4_SC_SD_EEvRS_OT_DpOT0_EUlvE_EERSI_ENUlvE_4_FUNEv
   fun:__pthread_once_slow
   fun:_ZL14__gthread_oncePiPFvvE
   fun:_ZSt9call_onceIMNSt13__future_base13_State_baseV2EFvPSt8functionIFSt10unique_ptrINS0_12_Result_baseENS4_8_DeleterEEvEEPbEJPS1_S9_SA_EEvRSt9once_flagOT_DpOT0_
}
{
   <insert_a_suppression_name_here>
   Helgrind:Race
   fun:exchange
   fun:_M_store_notify_all
   fun:_ZNSt13__future_base13_State_baseV213_M_set_resultESt8functionIFSt10unique_ptrINS_12_Result_baseENS3_8_DeleterEEvEEb
   fun:_ZNSt7promiseIvE9set_valueEv
   fun:_ZN2tf8Topology18_carry_out_promiseEv
   fun:_ZN2tf8Executor19_tear_down_topologyERNS_6WorkerEPNS_8TopologyERPNS_4NodeE
   fun:_ZN2tf8Executor19_tear_down_nonasyncERNS_6WorkerEPNS_4NodeERS4_
   fun:_ZN2tf8Executor7_invokeERNS_6WorkerEPNS_4NodeE
   fun:_ZN2tf8Executor13_exploit_taskERNS_6WorkerERPNS_4NodeE
   fun:_ZZN2tf8Executor6_spawnEmSt10shared_ptrINS_15WorkerInterfaceEEENKUlvE_clEv
   fun:_ZSt13__invoke_implIvZN2tf8Executor6_spawnEmSt10shared_ptrINS0_15WorkerInterfaceEEEUlvE_JEET_St14__invoke_otherOT0_DpOT1_
   fun:_ZSt8__invokeIZN2tf8Executor6_spawnEmSt10shared_ptrINS0_15WorkerInterfaceEEEUlvE_JEENSt15__invoke_resultIT_JDpT0_EE4typeEOS7_DpOS8_
   fun:_ZNSt6thread8_InvokerISt5tupleIJZN2tf8Executor6_spawnEmSt10shared_ptrINS2_15WorkerInterfaceEEEUlvE_EEE9_M_invokeIJLm0EEEEvSt12_Index_tupleIJXspT_EEE
   fun:_ZNSt6thread8_InvokerISt5tupleIJZN2tf8Executor6_spawnEmSt10shared_ptrINS2_15WorkerInterfaceEEEUlvE_EEEclEv
}
{
   <insert_a_suppression_name_here>
   Helgrind:Race
   fun:_ZN2tf8Executor19_tear_down_topologyERNS_6WorkerEPNS_8TopologyERPNS_4NodeE
   fun:_ZN2tf8Executor19_tear_down_nonasyncERNS_6WorkerEPNS_4NodeERS4_
   fun:_ZN2tf8Executor7_invokeERNS_6WorkerEPNS_4NodeE
   fun:_ZN2tf8Executor13_exploit_taskERNS_6WorkerERPNS_4NodeE
   fun:_ZZN2tf8Executor6_spawnEmSt10shared_ptrINS_15WorkerInterfaceEEENKUlvE_clEv
   fun:_ZSt13__invoke_implIvZN2tf8Executor6_spawnEmSt10shared_ptrINS0_15WorkerInterfaceEEEUlvE_JEET_St14__invoke_otherOT0_DpOT1_
   fun:_ZSt8__invokeIZN2tf8Executor6_spawnEmSt10shared_ptrINS0_15WorkerInterfaceEEEUlvE_JEENSt15__invoke_resultIT_JDpT0_EE4typeEOS7_DpOS8_
   fun:_ZNSt6thread8_InvokerISt5tupleIJZN2tf8Executor6_spawnEmSt10shared_ptrINS2_15WorkerInterfaceEEEUlvE_EEE9_M_invokeIJLm0EEEEvSt12_Index_tupleIJXspT_EEE
   fun:_ZNSt6thread8_InvokerISt5tupleIJZN2tf8Executor6_spawnEmSt10shared_ptrINS2_15WorkerInterfaceEEEUlvE_EEEclEv
   fun:_ZNSt6thread11_State_implINS_8_InvokerISt5tupleIJZN2tf8Executor6_spawnEmSt10shared_ptrINS3_15WorkerInterfaceEEEUlvE_EEEEE6_M_runEv
   obj:/usr/lib/x86_64-linux-gnu/libstdc++.so.6.0.33
   obj:/usr/libexec/valgrind/vgpreload_helgrind-amd64-linux.so
}
{
   <insert_a_suppression_name_here>
   Helgrind:Race
   fun:fetch_sub
   fun:_ZN2tf8Executor19_tear_down_topologyERNS_6WorkerEPNS_8TopologyERPNS_4NodeE
   fun:_ZN2tf8Executor19_tear_down_nonasyncERNS_6WorkerEPNS_4NodeERS4_
   fun:_ZN2tf8Executor7_invokeERNS_6WorkerEPNS_4NodeE
   fun:_ZN2tf8Executor13_exploit_taskERNS_6WorkerERPNS_4NodeE
   fun:_ZZN2tf8Executor6_spawnEmSt10shared_ptrINS_15WorkerInterfaceEEENKUlvE_clEv
   fun:_ZSt13__invoke_implIvZN2tf8Executor6_spawnEmSt10shared_ptrINS0_15WorkerInterfaceEEEUlvE_JEET_St14__invoke_otherOT0_DpOT1_
   fun:_ZSt8__invokeIZN2tf8Executor6_spawnEmSt10shared_ptrINS0_15WorkerInterfaceEEEUlvE_JEENSt15__invoke_resultIT_JDpT0_EE4typeEOS7_DpOS8_
   fun:_ZNSt6thread8_InvokerISt5tupleIJZN2tf8Executor6_spawnEmSt10shared_ptrINS2_15WorkerInterfaceEEEUlvE_EEE9_M_invokeIJLm0EEEEvSt12_Index_tupleIJXspT_EEE
   fun:_ZNSt6thread8_InvokerISt5tupleIJZN2tf8Executor6_spawnEmSt10shared_ptrINS2_15WorkerInterfaceEEEUlvE_EEEclEv
   fun:_ZNSt6thread11_State_implINS_8_InvokerISt5tupleIJZN2tf8Executor6_spawnEmSt10shared_ptrINS3_15WorkerInterfaceEEEUlvE_EEEEE6_M_runEv
   obj:/usr/lib/x86_64-linux-gnu/libstdc++.so.6.0.33
   obj:/usr/libexec/valgrind/vgpreload_helgrind-amd64-linux.so
}
{
   <insert_a_suppression_name_here>
   Helgrind:Race
   fun:_ZNSt16_Sp_counted_baseILN9__gnu_cxx12_Lock_policyE2EE10_M_releaseEv
   fun:_ZNSt14__shared_countILN9__gnu_cxx12_Lock_policyE2EED1Ev
   fun:_ZNSt12__shared_ptrIN2tf8TopologyELN9__gnu_cxx12_Lock_policyE2EED1Ev
   fun:_ZNSt10shared_ptrIN2tf8TopologyEED1Ev
   fun:_ZN2tf8Executor19_tear_down_topologyERNS_6WorkerEPNS_8TopologyERPNS_4NodeE
   fun:_ZN2tf8Executor19_tear_down_nonasyncERNS_6WorkerEPNS_4NodeERS4_
   fun:_ZN2tf8Executor7_invokeERNS_6WorkerEPNS_4NodeE
   fun:_ZN2tf8Executor13_exploit_taskERNS_6WorkerERPNS_4NodeE
   fun:_ZZN2tf8Executor6_spawnEmSt10shared_ptrINS_15WorkerInterfaceEEENKUlvE_clEv
   fun:_ZSt13__invoke_implIvZN2tf8Executor6_spawnEmSt10shared_ptrINS0_15WorkerInterfaceEEEUlvE_JEET_St14__invoke_otherOT0_DpOT1_
   fun:_ZSt8__invokeIZN2tf8Executor6_spawnEmSt10shared_ptrINS0_15WorkerInterfaceEEEUlvE_JEENSt15__invoke_resultIT_JDpT0_EE4typeEOS7_DpOS8_
   fun:_ZNSt6thread8_InvokerISt5tupleIJZN2tf8Executor6_spawnEmSt10shared_ptrINS2_15WorkerInterfaceEEEUlvE_EEE9_M_invokeIJLm0EEEEvSt12_Index_tupleIJXspT_EEE
}
{
   <insert_a_suppression_name_here>
   Helgrind:Race
   fun:_ZN2tf8Executor25_invoke_runtime_task_implERNS_6WorkerEPNS_4NodeERSt8functionIFvRNS_7RuntimeEEE
   fun:_ZN2tf8Executor18_invoke_async_taskERNS_6WorkerEPNS_4NodeE
   fun:_ZN2tf8Executor7_invokeERNS_6WorkerEPNS_4NodeE
   fun:_ZN2tf8Executor13_exploit_taskERNS_6WorkerERPNS_4NodeE
   fun:_ZZN2tf8Executor6_spawnEmSt10shared_ptrINS_15WorkerInterfaceEEENKUlvE_clEv
   fun:_ZSt13__invoke_implIvZN2tf8Executor6_spawnEmSt10shared_ptrINS0_15WorkerInterfaceEEEUlvE_JEET_St14__invoke_otherOT0_DpOT1_
   fun:_ZSt8__invokeIZN2tf8Executor6_spawnEmSt10shared_ptrINS0_15WorkerInterfaceEEEUlvE_JEENSt15__invoke_resultIT_JDpT0_EE4typeEOS7_DpOS8_
   fun:_ZNSt6thread8_InvokerISt5tupleIJZN2tf8Executor6_spawnEmSt10shared_ptrINS2_15WorkerInterfaceEEEUlvE_EEE9_M_invokeIJLm0EEEEvSt12_Index_tupleIJXspT_EEE
   fun:_ZNSt6thread8_InvokerISt5tupleIJZN2tf8Executor6_spawnEmSt10shared_ptrINS2_15WorkerInterfaceEEEUlvE_EEEclEv
   fun:_ZNSt6thread11_State_implINS_8_InvokerISt5tupleIJZN2tf8Executor6_spawnEmSt10shared_ptrINS3_15WorkerInterfaceEEEUlvE_EEEEE6_M_runEv
   obj:/usr/lib/x86_64-linux-gnu/libstdc++.so.6.0.33
   obj:/usr/libexec/valgrind/vgpreload_helgrind-amd64-linux.so
}
{
   <insert_a_suppression_name_here>
   Helgrind:Race
   fun:_ZN2tf8Executor16_tear_down_asyncERNS_6WorkerEPNS_4NodeERS4_
   fun:_ZN2tf8Executor7_invokeERNS_6WorkerEPNS_4NodeE
   fun:_ZN2tf8Executor13_exploit_taskERNS_6WorkerERPNS_4NodeE
   fun:_ZZN2tf8Executor6_spawnEmSt10shared_ptrINS_15WorkerInterfaceEEENKUlvE_clEv
   fun:_ZSt13__invoke_implIvZN2tf8Executor6_spawnEmSt10shared_ptrINS0_15WorkerInterfaceEEEUlvE_JEET_St14__invoke_otherOT0_DpOT1_
   fun:_ZSt8__invokeIZN2tf8Executor6_spawnEmSt10shared_ptrINS0_15WorkerInterfaceEEEUlvE_JEENSt15__invoke_resultIT_JDpT0_EE4typeEOS7_DpOS8_
   fun:_ZNSt6thread8_InvokerISt5tupleIJZN2tf8Executor6_spawnEmSt10shared_ptrINS2_15WorkerInterfaceEEEUlvE_EEE9_M_invokeIJLm0EEEEvSt12_Index_tupleIJXspT_EEE
   fun:_ZNSt6thread8_InvokerISt5tupleIJZN2tf8Executor6_spawnEmSt10shared_ptrINS2_15WorkerInterfaceEEEUlvE_EEEclEv
   fun:_ZNSt6thread11_State_implINS_8_InvokerISt5tupleIJZN2tf8Executor6_spawnEmSt10shared_ptrINS3_15WorkerInterfaceEEEUlvE_EEEEE6_M_runEv
   obj:/usr/lib/x86_64-linux-gnu/libstdc++.so.6.0.33
   obj:/usr/libexec/valgrind/vgpreload_helgrind-amd64-linux.so
   fun:start_thread
}
{
   <insert_a_suppression_name_here>
   Helgrind:Race
   fun:_ZNSt10unique_ptrIN2tf4Node10SemaphoresESt14default_deleteIS2_EED1Ev
   fun:_ZN2tf4NodeD1Ev
   fun:recycle
   fun:_ZN2tf8Executor16_tear_down_asyncERNS_6WorkerEPNS_4NodeERS4_
   fun:_ZN2tf8Executor7_invokeERNS_6WorkerEPNS_4NodeE
   fun:_ZN2tf8Executor13_exploit_taskERNS_6WorkerERPNS_4NodeE
   fun:_ZZN2tf8Executor6_spawnEmSt10shared_ptrINS_15WorkerInterfaceEEENKUlvE_clEv
   fun:_ZSt13__invoke_implIvZN2tf8Executor6_spawnEmSt10shared_ptrINS0_15WorkerInterfaceEEEUlvE_JEET_St14__invoke_otherOT0_DpOT1_
   fun:_ZSt8__invokeIZN2tf8Executor6_spawnEmSt10shared_ptrINS0_15WorkerInterfaceEEEUlvE_JEENSt15__invoke_resultIT_JDpT0_EE4typeEOS7_DpOS8_
   fun:_ZNSt6thread8_InvokerISt5tupleIJZN2tf8Executor6_spawnEmSt10shared_ptrINS2_15WorkerInterfaceEEEUlvE_EEE9_M_invokeIJLm0EEEEvSt12_Index_tupleIJXspT_EEE
   fun:_ZNSt6thread8_InvokerISt5tupleIJZN2tf8Executor6_spawnEmSt10shared_ptrINS2_15WorkerInterfaceEEEUlvE_EEEclEv
   fun:_ZNSt6thread11_State_implINS_8_InvokerISt5tupleIJZN2tf8Executor6_spawnEmSt10shared_ptrINS3_15WorkerInterfaceEEEUlvE_EEEEE6_M_runEv
   obj:/usr/lib/x86_64-linux-gnu/libstdc++.so.6.0.33
}
{
   <insert_a_suppression_name_here>
   Helgrind:Race
   fun:_ZNSt14_Function_baseD1Ev
   fun:_ZNSt8functionIFvRN2tf7RuntimeEEED1Ev
   fun:_ZSt10destroy_atISt8functionIFvRN2tf7RuntimeEEEEvPT_
   fun:_ZSt8_DestroyISt8functionIFvRN2tf7RuntimeEEEEvPT_
   fun:_ZZNSt8__detail9__variant16_Variant_storageILb0EJSt8functionIFvvEES2_IFvRN2tf7RuntimeEEES2_IFvS7_bEEEE8_M_resetEvENUlOT_E_clIRS9_EEDaSE_
   fun:_ZSt13__invoke_implIvZNSt8__detail9__variant16_Variant_storageILb0EJSt8functionIFvvEES3_IFvRN2tf7RuntimeEEES3_IFvS8_bEEEE8_M_resetEvEUlOT_E_JRSA_EESE_St14__invoke_otherOT0_DpOT1_
   fun:_ZSt10__invoke_rIvZNSt8__detail9__variant16_Variant_storageILb0EJSt8functionIFvvEES3_IFvRN2tf7RuntimeEEES3_IFvS8_bEEEE8_M_resetEvEUlOT_E_JRSA_EENSt9enable_ifIX16is_invocable_r_vISE_T0_DpT1_EESE_E4typeEOSJ_DpOSK_
   fun:_ZNSt8__detail9__variant17__gen_vtable_implINS0_12_Multi_arrayIPFvOZNS0_16_Variant_storageILb0EJSt8functionIFvvEES4_IFvRN2tf7RuntimeEEES4_IFvS9_bEEEE8_M_resetEvEUlOT_E_RSt7variantIJS6_SB_SD_EEEJEEESt16integer_sequenceImJLm1EEEE14__visit_invokeESI_SL_
   fun:_ZSt10__do_visitIvZNSt8__detail9__variant16_Variant_storageILb0EJSt8functionIFvvEES3_IFvRN2tf7RuntimeEEES3_IFvS8_bEEEE8_M_resetEvEUlOT_E_JRSt7variantIJS5_SA_SC_EEEEDcOT0_DpOT1_
   fun:_ZNSt8__detail9__variant16_Variant_storageILb0EJSt8functionIFvvEES2_IFvRN2tf7RuntimeEEES2_IFvS7_bEEEE8_M_resetEv
   fun:_ZNSt8__detail9__variant16_Variant_storageILb0EJSt8functionIFvvEES2_IFvRN2tf7RuntimeEEES2_IFvS7_bEEEED1Ev
   fun:_ZNSt8__detail9__variant15_Copy_ctor_baseILb0EJSt8functionIFvvEES2_IFvRN2tf7RuntimeEEES2_IFvS7_bEEEED1Ev
}
{
   <insert_a_suppression_name_here>
   Helgrind:Race
   fun:_ZNSt14_Function_base13_Base_managerIZN2tf8Executor9run_untilIZNS2_5run_nIZNS2_3runEONS1_8TaskflowEEUlvE_EENS1_6FutureIvEES6_mOT_EUlvE_S7_EES9_S6_SB_OT0_EUlRNS1_7RuntimeEE_E10_M_destroyERSt9_Any_dataSt17integral_constantIbLb0EE
   fun:_ZNSt14_Function_base13_Base_managerIZN2tf8Executor9run_untilIZNS2_5run_nIZNS2_3runEONS1_8TaskflowEEUlvE_EENS1_6FutureIvEES6_mOT_EUlvE_S7_EES9_S6_SB_OT0_EUlRNS1_7RuntimeEE_E10_M_managerERSt9_Any_dataRKSJ_St18_Manager_operation
   fun:_ZNSt17_Function_handlerIFvRN2tf7RuntimeEEZNS0_8Executor9run_untilIZNS4_5run_nIZNS4_3runEONS0_8TaskflowEEUlvE_EENS0_6FutureIvEES8_mOT_EUlvE_S9_EESB_S8_SD_OT0_EUlS2_E_E10_M_managerERSt9_Any_dataRKSJ_St18_Manager_operation
   fun:_ZNSt14_Function_baseD1Ev
   fun:_ZNSt8functionIFvRN2tf7RuntimeEEED1Ev
   fun:_ZSt10destroy_atISt8functionIFvRN2tf7RuntimeEEEEvPT_
   fun:_ZSt8_DestroyISt8functionIFvRN2tf7RuntimeEEEEvPT_
   fun:_ZZNSt8__detail9__variant16_Variant_storageILb0EJSt8functionIFvvEES2_IFvRN2tf7RuntimeEEES2_IFvS7_bEEEE8_M_resetEvENUlOT_E_clIRS9_EEDaSE_
   fun:_ZSt13__invoke_implIvZNSt8__detail9__variant16_Variant_storageILb0EJSt8functionIFvvEES3_IFvRN2tf7RuntimeEEES3_IFvS8_bEEEE8_M_resetEvEUlOT_E_JRSA_EESE_St14__invoke_otherOT0_DpOT1_
   fun:_ZSt10__invoke_rIvZNSt8__detail9__variant16_Variant_storageILb0EJSt8functionIFvvEES3_IFvRN2tf7RuntimeEEES3_IFvS8_bEEEE8_M_resetEvEUlOT_E_JRSA_EENSt9enable_ifIX16is_invocable_r_vISE_T0_DpT1_EESE_E4typeEOSJ_DpOSK_
   fun:_ZNSt8__detail9__variant17__gen_vtable_implINS0_12_Multi_arrayIPFvOZNS0_16_Variant_storageILb0EJSt8functionIFvvEES4_IFvRN2tf7RuntimeEEES4_IFvS9_bEEEE8_M_resetEvEUlOT_E_RSt7variantIJS6_SB_SD_EEEJEEESt16integer_sequenceImJLm1EEEE14__visit_invokeESI_SL_
   fun:_ZSt10__do_visitIvZNSt8__detail9__variant16_Variant_storageILb0EJSt8functionIFvvEES3_IFvRN2tf7RuntimeEEES3_IFvS8_bEEEE8_M_resetEvEUlOT_E_JRSt7variantIJS5_SA_SC_EEEEDcOT0_DpOT1_
}
{
   <insert_a_suppression_name_here>
   Helgrind:Race
   fun:_ZNSt14__shared_countILN9__gnu_cxx12_Lock_policyE2EED1Ev
   fun:_ZNSt12__shared_ptrIN2tf8TopologyELN9__gnu_cxx12_Lock_policyE2EED1Ev
   fun:_ZNSt10shared_ptrIN2tf8TopologyEED1Ev
   fun:_ZZN2tf8Executor9run_untilIZNS0_5run_nIZNS0_3runEONS_8TaskflowEEUlvE_EENS_6FutureIvEES4_mOT_EUlvE_S5_EES7_S4_S9_OT0_ENUlRNS_7RuntimeEE_D1Ev
   fun:_ZNSt14_Function_base13_Base_managerIZN2tf8Executor9run_untilIZNS2_5run_nIZNS2_3runEONS1_8TaskflowEEUlvE_EENS1_6FutureIvEES6_mOT_EUlvE_S7_EES9_S6_SB_OT0_EUlRNS1_7RuntimeEE_E10_M_destroyERSt9_Any_dataSt17integral_constantIbLb0EE
   fun:_ZNSt14_Function_base13_Base_managerIZN2tf8Executor9run_untilIZNS2_5run_nIZNS2_3runEONS1_8TaskflowEEUlvE_EENS1_6FutureIvEES6_mOT_EUlvE_S7_EES9_S6_SB_OT0_EUlRNS1_7RuntimeEE_E10_M_managerERSt9_Any_dataRKSJ_St18_Manager_operation
   fun:_ZNSt17_Function_handlerIFvRN2tf7RuntimeEEZNS0_8Executor9run_untilIZNS4_5run_nIZNS4_3runEONS0_8TaskflowEEUlvE_EENS0_6FutureIvEES8_mOT_EUlvE_S9_EESB_S8_SD_OT0_EUlS2_E_E10_M_managerERSt9_Any_dataRKSJ_St18_Manager_operation
   fun:_ZNSt14_Function_baseD1Ev
   fun:_ZNSt8functionIFvRN2tf7RuntimeEEED1Ev
   fun:_ZSt10destroy_atISt8functionIFvRN2tf7RuntimeEEEEvPT_
   fun:_ZSt8_DestroyISt8functionIFvRN2tf7RuntimeEEEEvPT_
   fun:_ZZNSt8__detail9__variant16_Variant_storageILb0EJSt8functionIFvvEES2_IFvRN2tf7RuntimeEEES2_IFvS7_bEEEE8_M_resetEvENUlOT_E_clIRS9_EEDaSE_
}
{
   <insert_a_suppression_name_here>
   Helgrind:Race
   fun:_ZNSt16_Sp_counted_baseILN9__gnu_cxx12_Lock_policyE2EE19_M_release_last_useEv
   fun:_ZNSt16_Sp_counted_baseILN9__gnu_cxx12_Lock_policyE2EE24_M_release_last_use_coldEv
   fun:_ZNSt16_Sp_counted_baseILN9__gnu_cxx12_Lock_policyE2EE10_M_releaseEv
   fun:_ZNSt14__shared_countILN9__gnu_cxx12_Lock_policyE2EED1Ev
   fun:_ZNSt12__shared_ptrIN2tf8TopologyELN9__gnu_cxx12_Lock_policyE2EED1Ev
   fun:_ZNSt10shared_ptrIN2tf8TopologyEED1Ev
   fun:_ZZN2tf8Executor9run_untilIZNS0_5run_nIZNS0_3runEONS_8TaskflowEEUlvE_EENS_6FutureIvEES4_mOT_EUlvE_S5_EES7_S4_S9_OT0_ENUlRNS_7RuntimeEE_D1Ev
   fun:_ZNSt14_Function_base13_Base_managerIZN2tf8Executor9run_untilIZNS2_5run_nIZNS2_3runEONS1_8TaskflowEEUlvE_EENS1_6FutureIvEES6_mOT_EUlvE_S7_EES9_S6_SB_OT0_EUlRNS1_7RuntimeEE_E10_M_destroyERSt9_Any_dataSt17integral_constantIbLb0EE
   fun:_ZNSt14_Function_base13_Base_managerIZN2tf8Executor9run_untilIZNS2_5run_nIZNS2_3runEONS1_8TaskflowEEUlvE_EENS1_6FutureIvEES6_mOT_EUlvE_S7_EES9_S6_SB_OT0_EUlRNS1_7RuntimeEE_E10_M_managerERSt9_Any_dataRKSJ_St18_Manager_operation
   fun:_ZNSt17_Function_handlerIFvRN2tf7RuntimeEEZNS0_8Executor9run_untilIZNS4_5run_nIZNS4_3runEONS0_8TaskflowEEUlvE_EENS0_6FutureIvEES8_mOT_EUlvE_S9_EESB_S8_SD_OT0_EUlS2_E_E10_M_managerERSt9_Any_dataRKSJ_St18_Manager_operation
   fun:_ZNSt14_Function_baseD1Ev
   fun:_ZNSt8functionIFvRN2tf7RuntimeEEED1Ev
}
{
   <insert_a_suppression_name_here>
   Helgrind:Race
   fun:_ZNSt14_Function_baseD1Ev
   fun:_ZNSt8functionIFvvEED1Ev
   fun:_ZN2tf8TopologyD1Ev
   fun:_ZSt10destroy_atIN2tf8TopologyEEvPT_
   fun:_ZSt8_DestroyIN2tf8TopologyEEvPT_
   fun:destroy<tf::Topology>
   fun:_ZNSt23_Sp_counted_ptr_inplaceIN2tf8TopologyESaIvELN9__gnu_cxx12_Lock_policyE2EE10_M_disposeEv
   fun:_ZNSt16_Sp_counted_baseILN9__gnu_cxx12_Lock_policyE2EE19_M_release_last_useEv
   fun:_ZNSt16_Sp_counted_baseILN9__gnu_cxx12_Lock_policyE2EE24_M_release_last_use_coldEv
   fun:_ZNSt16_Sp_counted_baseILN9__gnu_cxx12_Lock_policyE2EE10_M_releaseEv
   fun:_ZNSt14__shared_countILN9__gnu_cxx12_Lock_policyE2EED1Ev
   fun:_ZNSt12__shared_ptrIN2tf8TopologyELN9__gnu_cxx12_Lock_policyE2EED1Ev
   fun:_ZNSt10shared_ptrIN2tf8TopologyEED1Ev
}
{
   <insert_a_suppression_name_here>
   Helgrind:Race
   fun:_ZNSt14_Function_baseD1Ev
   fun:_ZNSt8functionIFbvEED1Ev
   fun:_ZN2tf8TopologyD1Ev
   fun:_ZSt10destroy_atIN2tf8TopologyEEvPT_
   fun:_ZSt8_DestroyIN2tf8TopologyEEvPT_
   fun:destroy<tf::Topology>
   fun:_ZNSt23_Sp_counted_ptr_inplaceIN2tf8TopologyESaIvELN9__gnu_cxx12_Lock_policyE2EE10_M_disposeEv
   fun:_ZNSt16_Sp_counted_baseILN9__gnu_cxx12_Lock_policyE2EE19_M_release_last_useEv
   fun:_ZNSt16_Sp_counted_baseILN9__gnu_cxx12_Lock_policyE2EE24_M_release_last_use_coldEv
   fun:_ZNSt16_Sp_counted_baseILN9__gnu_cxx12_Lock_policyE2EE10_M_releaseEv
   fun:_ZNSt14__shared_countILN9__gnu_cxx12_Lock_policyE2EED1Ev
   fun:_ZNSt12__shared_ptrIN2tf8TopologyELN9__gnu_cxx12_Lock_policyE2EED1Ev
   fun:_ZNSt10shared_ptrIN2tf8TopologyEED1Ev
}
{
   <insert_a_suppression_name_here>
   Helgrind:Race
   fun:_ZNKSt14__shared_countILN9__gnu_cxx12_Lock_policyE2EE16_M_get_use_countEv
   fun:_ZNKSt14__shared_countILN9__gnu_cxx12_Lock_policyE2EE9_M_uniqueEv
   fun:_ZNKSt12__shared_ptrINSt13__future_base13_State_baseV2ELN9__gnu_cxx12_Lock_policyE2EE6uniqueEv
   fun:_ZNSt7promiseIvED1Ev
   fun:_ZN2tf8TopologyD1Ev
   fun:_ZSt10destroy_atIN2tf8TopologyEEvPT_
   fun:_ZSt8_DestroyIN2tf8TopologyEEvPT_
   fun:destroy<tf::Topology>
   fun:_ZNSt23_Sp_counted_ptr_inplaceIN2tf8TopologyESaIvELN9__gnu_cxx12_Lock_policyE2EE10_M_disposeEv
   fun:_ZNSt16_Sp_counted_baseILN9__gnu_cxx12_Lock_policyE2EE19_M_release_last_useEv
   fun:_ZNSt16_Sp_counted_baseILN9__gnu_cxx12_Lock_policyE2EE24_M_release_last_use_coldEv
   fun:_ZNSt16_Sp_counted_baseILN9__gnu_cxx12_Lock_policyE2EE10_M_releaseEv
   fun:_ZNSt14__shared_countILN9__gnu_cxx12_Lock_policyE2EED1Ev
}
{
   <insert_a_suppression_name_here>
   Helgrind:Race
   fun:_ZNKSt16_Sp_counted_baseILN9__gnu_cxx12_Lock_policyE2EE16_M_get_use_countEv
   fun:_ZNKSt14__shared_countILN9__gnu_cxx12_Lock_policyE2EE16_M_get_use_countEv
   fun:_ZNKSt14__shared_countILN9__gnu_cxx12_Lock_policyE2EE9_M_uniqueEv
   fun:_ZNKSt12__shared_ptrINSt13__future_base13_State_baseV2ELN9__gnu_cxx12_Lock_policyE2EE6uniqueEv
   fun:_ZNSt7promiseIvED1Ev
   fun:_ZN2tf8TopologyD1Ev
   fun:_ZSt10destroy_atIN2tf8TopologyEEvPT_
   fun:_ZSt8_DestroyIN2tf8TopologyEEvPT_
   fun:destroy<tf::Topology>
   fun:_ZNSt23_Sp_counted_ptr_inplaceIN2tf8TopologyESaIvELN9__gnu_cxx12_Lock_policyE2EE10_M_disposeEv
   fun:_ZNSt16_Sp_counted_baseILN9__gnu_cxx12_Lock_policyE2EE19_M_release_last_useEv
   fun:_ZNSt16_Sp_counted_baseILN9__gnu_cxx12_Lock_policyE2EE24_M_release_last_use_coldEv
   fun:_ZNSt16_Sp_counted_baseILN9__gnu_cxx12_Lock_policyE2EE10_M_releaseEv
}
{
   <insert_a_suppression_name_here>
   Helgrind:Race
   fun:_ZNSt10unique_ptrIN2tf8TaskflowESt14default_deleteIS1_EED1Ev
   fun:_ZN2tf3MoCISt10unique_ptrINS_8TaskflowESt14default_deleteIS2_EEED1Ev
   fun:_ZZN2tf8Executor9run_untilIZNS0_5run_nIZNS0_3runEONS_8TaskflowEEUlvE_EENS_6FutureIvEES4_mOT_EUlvE_S5_EES7_S4_S9_OT0_ENUlRNS_7RuntimeEE_D1Ev
   fun:_ZNSt14_Function_base13_Base_managerIZN2tf8Executor9run_untilIZNS2_5run_nIZNS2_3runEONS1_8TaskflowEEUlvE_EENS1_6FutureIvEES6_mOT_EUlvE_S7_EES9_S6_SB_OT0_EUlRNS1_7RuntimeEE_E10_M_destroyERSt9_Any_dataSt17integral_constantIbLb0EE
   fun:_ZNSt14_Function_base13_Base_managerIZN2tf8Executor9run_untilIZNS2_5run_nIZNS2_3runEONS1_8TaskflowEEUlvE_EENS1_6FutureIvEES6_mOT_EUlvE_S7_EES9_S6_SB_OT0_EUlRNS1_7RuntimeEE_E10_M_managerERSt9_Any_dataRKSJ_St18_Manager_operation
   fun:_ZNSt17_Function_handlerIFvRN2tf7RuntimeEEZNS0_8Executor9run_untilIZNS4_5run_nIZNS4_3runEONS0_8TaskflowEEUlvE_EENS0_6FutureIvEES8_mOT_EUlvE_S9_EESB_S8_SD_OT0_EUlS2_E_E10_M_managerERSt9_Any_dataRKSJ_St18_Manager_operation
   fun:_ZNSt14_Function_baseD1Ev
   fun:_ZNSt8functionIFvRN2tf7RuntimeEEED1Ev
   fun:_ZSt10destroy_atISt8functionIFvRN2tf7RuntimeEEEEvPT_
   fun:_ZSt8_DestroyISt8functionIFvRN2tf7RuntimeEEEEvPT_
   fun:_ZZNSt8__detail9__variant16_Variant_storageILb0EJSt8functionIFvvEES2_IFvRN2tf7RuntimeEEES2_IFvS7_bEEEE8_M_resetEvENUlOT_E_clIRS9_EEDaSE_
   fun:_ZSt13__invoke_implIvZNSt8__detail9__variant16_Variant_storageILb0EJSt8functionIFvvEES3_IFvRN2tf7RuntimeEEES3_IFvS8_bEEEE8_M_resetEvEUlOT_E_JRSA_EESE_St14__invoke_otherOT0_DpOT1_
}
{
   <insert_a_suppression_name_here>
   Helgrind:Race
   fun:_ZNSt15_Deque_iteratorISt10shared_ptrIN2tf8TopologyEERS3_PS3_EC1ERKS6_
   fun:_ZNSt5dequeISt10shared_ptrIN2tf8TopologyEESaIS3_EE3endEv
   fun:_ZNSt5dequeISt10shared_ptrIN2tf8TopologyEESaIS3_EED1Ev
   fun:_ZNSt5queueISt10shared_ptrIN2tf8TopologyEESt5dequeIS3_SaIS3_EEED1Ev
   fun:_ZN2tf8TaskflowD1Ev
   fun:_ZNKSt14default_deleteIN2tf8TaskflowEEclEPS1_
   fun:_ZNSt10unique_ptrIN2tf8TaskflowESt14default_deleteIS1_EED1Ev
   fun:_ZN2tf3MoCISt10unique_ptrINS_8TaskflowESt14default_deleteIS2_EEED1Ev
   fun:_ZZN2tf8Executor9run_untilIZNS0_5run_nIZNS0_3runEONS_8TaskflowEEUlvE_EENS_6FutureIvEES4_mOT_EUlvE_S5_EES7_S4_S9_OT0_ENUlRNS_7RuntimeEE_D1Ev
   fun:_ZNSt14_Function_base13_Base_managerIZN2tf8Executor9run_untilIZNS2_5run_nIZNS2_3runEONS1_8TaskflowEEUlvE_EENS1_6FutureIvEES6_mOT_EUlvE_S7_EES9_S6_SB_OT0_EUlRNS1_7RuntimeEE_E10_M_destroyERSt9_Any_dataSt17integral_constantIbLb0EE
   fun:_ZNSt14_Function_base13_Base_managerIZN2tf8Executor9run_untilIZNS2_5run_nIZNS2_3runEONS1_8TaskflowEEUlvE_EENS1_6FutureIvEES6_mOT_EUlvE_S7_EES9_S6_SB_OT0_EUlRNS1_7RuntimeEE_E10_M_managerERSt9_Any_dataRKSJ_St18_Manager_operation
   fun:_ZNSt17_Function_handlerIFvRN2tf7RuntimeEEZNS0_8Executor9run_untilIZNS4_5run_nIZNS4_3runEONS0_8TaskflowEEUlvE_EENS0_6FutureIvEES8_mOT_EUlvE_S9_EESB_S8_SD_OT0_EUlS2_E_E10_M_managerERSt9_Any_dataRKSJ_St18_Manager_operation
}
{
   <insert_a_suppression_name_here>
   Helgrind:Race
   fun:_ZNSt15_Deque_iteratorISt10shared_ptrIN2tf8TopologyEERS3_PS3_EC1ERKS6_
   fun:_ZNSt5dequeISt10shared_ptrIN2tf8TopologyEESaIS3_EE3endEv
   fun:_ZNSt5dequeISt10shared_ptrIN2tf8TopologyEESaIS3_EED1Ev
   fun:_ZNSt5queueISt10shared_ptrIN2tf8TopologyEESt5dequeIS3_SaIS3_EEED1Ev
   fun:_ZN2tf8TaskflowD1Ev
   fun:_ZNKSt14default_deleteIN2tf8TaskflowEEclEPS1_
   fun:_ZNSt10unique_ptrIN2tf8TaskflowESt14default_deleteIS1_EED1Ev
   fun:_ZN2tf3MoCISt10unique_ptrINS_8TaskflowESt14default_deleteIS2_EEED1Ev
   fun:_ZZN2tf8Executor9run_untilIZNS0_5run_nIZNS0_3runEONS_8TaskflowEEUlvE_EENS_6FutureIvEES4_mOT_EUlvE_S5_EES7_S4_S9_OT0_ENUlRNS_7RuntimeEE_D1Ev
   fun:_ZNSt14_Function_base13_Base_managerIZN2tf8Executor9run_untilIZNS2_5run_nIZNS2_3runEONS1_8TaskflowEEUlvE_EENS1_6FutureIvEES6_mOT_EUlvE_S7_EES9_S6_SB_OT0_EUlRNS1_7RuntimeEE_E10_M_destroyERSt9_Any_dataSt17integral_constantIbLb0EE
   fun:_ZNSt14_Function_base13_Base_managerIZN2tf8Executor9run_untilIZNS2_5run_nIZNS2_3runEONS1_8TaskflowEEUlvE_EENS1_6FutureIvEES6_mOT_EUlvE_S7_EES9_S6_SB_OT0_EUlRNS1_7RuntimeEE_E10_M_managerERSt9_Any_dataRKSJ_St18_Manager_operation
   fun:_ZNSt17_Function_handlerIFvRN2tf7RuntimeEEZNS0_8Executor9run_untilIZNS4_5run_nIZNS4_3runEONS0_8TaskflowEEUlvE_EENS0_6FutureIvEES8_mOT_EUlvE_S9_EESB_S8_SD_OT0_EUlS2_E_E10_M_managerERSt9_Any_dataRKSJ_St18_Manager_operation
}
{
   <insert_a_suppression_name_here>
   Helgrind:Race
   fun:_ZNSt15_Deque_iteratorISt10shared_ptrIN2tf8TopologyEERS3_PS3_EC1ERKS6_
   fun:_ZNSt5dequeISt10shared_ptrIN2tf8TopologyEESaIS3_EE3endEv
   fun:_ZNSt5dequeISt10shared_ptrIN2tf8TopologyEESaIS3_EED1Ev
   fun:_ZNSt5queueISt10shared_ptrIN2tf8TopologyEESt5dequeIS3_SaIS3_EEED1Ev
   fun:_ZN2tf8TaskflowD1Ev
   fun:_ZNKSt14default_deleteIN2tf8TaskflowEEclEPS1_
   fun:_ZNSt10unique_ptrIN2tf8TaskflowESt14default_deleteIS1_EED1Ev
   fun:_ZN2tf3MoCISt10unique_ptrINS_8TaskflowESt14default_deleteIS2_EEED1Ev
   fun:_ZZN2tf8Executor9run_untilIZNS0_5run_nIZNS0_3runEONS_8TaskflowEEUlvE_EENS_6FutureIvEES4_mOT_EUlvE_S5_EES7_S4_S9_OT0_ENUlRNS_7RuntimeEE_D1Ev
   fun:_ZNSt14_Function_base13_Base_managerIZN2tf8Executor9run_untilIZNS2_5run_nIZNS2_3runEONS1_8TaskflowEEUlvE_EENS1_6FutureIvEES6_mOT_EUlvE_S7_EES9_S6_SB_OT0_EUlRNS1_7RuntimeEE_E10_M_destroyERSt9_Any_dataSt17integral_constantIbLb0EE
   fun:_ZNSt14_Function_base13_Base_managerIZN2tf8Executor9run_untilIZNS2_5run_nIZNS2_3runEONS1_8TaskflowEEUlvE_EENS1_6FutureIvEES6_mOT_EUlvE_S7_EES9_S6_SB_OT0_EUlRNS1_7RuntimeEE_E10_M_managerERSt9_Any_dataRKSJ_St18_Manager_operation
   fun:_ZNSt17_Function_handlerIFvRN2tf7RuntimeEEZNS0_8Executor9run_untilIZNS4_5run_nIZNS4_3runEONS0_8TaskflowEEUlvE_EENS0_6FutureIvEES8_mOT_EUlvE_S9_EESB_S8_SD_OT0_EUlS2_E_E10_M_managerERSt9_Any_dataRKSJ_St18_Manager_operation
}
{
   <insert_a_suppression_name_here>
   Helgrind:Race
   fun:_ZNSt15_Deque_iteratorISt10shared_ptrIN2tf8TopologyEERS3_PS3_EC1ERKS6_
   fun:_ZNSt5dequeISt10shared_ptrIN2tf8TopologyEESaIS3_EE3endEv
   fun:_ZNSt5dequeISt10shared_ptrIN2tf8TopologyEESaIS3_EED1Ev
   fun:_ZNSt5queueISt10shared_ptrIN2tf8TopologyEESt5dequeIS3_SaIS3_EEED1Ev
   fun:_ZN2tf8TaskflowD1Ev
   fun:_ZNKSt14default_deleteIN2tf8TaskflowEEclEPS1_
   fun:_ZNSt10unique_ptrIN2tf8TaskflowESt14default_deleteIS1_EED1Ev
   fun:_ZN2tf3MoCISt10unique_ptrINS_8TaskflowESt14default_deleteIS2_EEED1Ev
   fun:_ZZN2tf8Executor9run_untilIZNS0_5run_nIZNS0_3runEONS_8TaskflowEEUlvE_EENS_6FutureIvEES4_mOT_EUlvE_S5_EES7_S4_S9_OT0_ENUlRNS_7RuntimeEE_D1Ev
   fun:_ZNSt14_Function_base13_Base_managerIZN2tf8Executor9run_untilIZNS2_5run_nIZNS2_3runEONS1_8TaskflowEEUlvE_EENS1_6FutureIvEES6_mOT_EUlvE_S7_EES9_S6_SB_OT0_EUlRNS1_7RuntimeEE_E10_M_destroyERSt9_Any_dataSt17integral_constantIbLb0EE
   fun:_ZNSt14_Function_base13_Base_managerIZN2tf8Executor9run_untilIZNS2_5run_nIZNS2_3runEONS1_8TaskflowEEUlvE_EENS1_6FutureIvEES6_mOT_EUlvE_S7_EES9_S6_SB_OT0_EUlRNS1_7RuntimeEE_E10_M_managerERSt9_Any_dataRKSJ_St18_Manager_operation
   fun:_ZNSt17_Function_handlerIFvRN2tf7RuntimeEEZNS0_8Executor9run_untilIZNS4_5run_nIZNS4_3runEONS0_8TaskflowEEUlvE_EENS0_6FutureIvEES8_mOT_EUlvE_S9_EESB_S8_SD_OT0_EUlS2_E_E10_M_managerERSt9_Any_dataRKSJ_St18_Manager_operation
}
{
   <insert_a_suppression_name_here>
   Helgrind:Race
   fun:_ZNSt15_Deque_iteratorISt10shared_ptrIN2tf8TopologyEERS3_PS3_EC1ERKS6_
   fun:_ZNSt5dequeISt10shared_ptrIN2tf8TopologyEESaIS3_EE5beginEv
   fun:_ZNSt5dequeISt10shared_ptrIN2tf8TopologyEESaIS3_EED1Ev
   fun:_ZNSt5queueISt10shared_ptrIN2tf8TopologyEESt5dequeIS3_SaIS3_EEED1Ev
   fun:_ZN2tf8TaskflowD1Ev
   fun:_ZNKSt14default_deleteIN2tf8TaskflowEEclEPS1_
   fun:_ZNSt10unique_ptrIN2tf8TaskflowESt14default_deleteIS1_EED1Ev
   fun:_ZN2tf3MoCISt10unique_ptrINS_8TaskflowESt14default_deleteIS2_EEED1Ev
   fun:_ZZN2tf8Executor9run_untilIZNS0_5run_nIZNS0_3runEONS_8TaskflowEEUlvE_EENS_6FutureIvEES4_mOT_EUlvE_S5_EES7_S4_S9_OT0_ENUlRNS_7RuntimeEE_D1Ev
   fun:_ZNSt14_Function_base13_Base_managerIZN2tf8Executor9run_untilIZNS2_5run_nIZNS2_3runEONS1_8TaskflowEEUlvE_EENS1_6FutureIvEES6_mOT_EUlvE_S7_EES9_S6_SB_OT0_EUlRNS1_7RuntimeEE_E10_M_destroyERSt9_Any_dataSt17integral_constantIbLb0EE
   fun:_ZNSt14_Function_base13_Base_managerIZN2tf8Executor9run_untilIZNS2_5run_nIZNS2_3runEONS1_8TaskflowEEUlvE_EENS1_6FutureIvEES6_mOT_EUlvE_S7_EES9_S6_SB_OT0_EUlRNS1_7RuntimeEE_E10_M_managerERSt9_Any_dataRKSJ_St18_Manager_operation
   fun:_ZNSt17_Function_handlerIFvRN2tf7RuntimeEEZNS0_8Executor9run_untilIZNS4_5run_nIZNS4_3runEONS0_8TaskflowEEUlvE_EENS0_6FutureIvEES8_mOT_EUlvE_S9_EESB_S8_SD_OT0_EUlS2_E_E10_M_managerERSt9_Any_dataRKSJ_St18_Manager_operation
}
{
   <insert_a_suppression_name_here>
   Helgrind:Race
   fun:_ZNSt15_Deque_iteratorISt10shared_ptrIN2tf8TopologyEERS3_PS3_EC1ERKS6_
   fun:_ZNSt5dequeISt10shared_ptrIN2tf8TopologyEESaIS3_EE5beginEv
   fun:_ZNSt5dequeISt10shared_ptrIN2tf8TopologyEESaIS3_EED1Ev
   fun:_ZNSt5queueISt10shared_ptrIN2tf8TopologyEESt5dequeIS3_SaIS3_EEED1Ev
   fun:_ZN2tf8TaskflowD1Ev
   fun:_ZNKSt14default_deleteIN2tf8TaskflowEEclEPS1_
   fun:_ZNSt10unique_ptrIN2tf8TaskflowESt14default_deleteIS1_EED1Ev
   fun:_ZN2tf3MoCISt10unique_ptrINS_8TaskflowESt14default_deleteIS2_EEED1Ev
   fun:_ZZN2tf8Executor9run_untilIZNS0_5run_nIZNS0_3runEONS_8TaskflowEEUlvE_EENS_6FutureIvEES4_mOT_EUlvE_S5_EES7_S4_S9_OT0_ENUlRNS_7RuntimeEE_D1Ev
   fun:_ZNSt14_Function_base13_Base_managerIZN2tf8Executor9run_untilIZNS2_5run_nIZNS2_3runEONS1_8TaskflowEEUlvE_EENS1_6FutureIvEES6_mOT_EUlvE_S7_EES9_S6_SB_OT0_EUlRNS1_7RuntimeEE_E10_M_destroyERSt9_Any_dataSt17integral_constantIbLb0EE
   fun:_ZNSt14_Function_base13_Base_managerIZN2tf8Executor9run_untilIZNS2_5run_nIZNS2_3runEONS1_8TaskflowEEUlvE_EENS1_6FutureIvEES6_mOT_EUlvE_S7_EES9_S6_SB_OT0_EUlRNS1_7RuntimeEE_E10_M_managerERSt9_Any_dataRKSJ_St18_Manager_operation
   fun:_ZNSt17_Function_handlerIFvRN2tf7RuntimeEEZNS0_8Executor9run_untilIZNS4_5run_nIZNS4_3runEONS0_8TaskflowEEUlvE_EENS0_6FutureIvEES8_mOT_EUlvE_S9_EESB_S8_SD_OT0_EUlS2_E_E10_M_managerERSt9_Any_dataRKSJ_St18_Manager_operation
}
{
   <insert_a_suppression_name_here>
   Helgrind:Race
   fun:_ZNSt11_Deque_baseISt10shared_ptrIN2tf8TopologyEESaIS3_EED1Ev
   fun:_ZNSt5dequeISt10shared_ptrIN2tf8TopologyEESaIS3_EED1Ev
   fun:_ZNSt5queueISt10shared_ptrIN2tf8TopologyEESt5dequeIS3_SaIS3_EEED1Ev
   fun:_ZN2tf8TaskflowD1Ev
   fun:_ZNKSt14default_deleteIN2tf8TaskflowEEclEPS1_
   fun:_ZNSt10unique_ptrIN2tf8TaskflowESt14default_deleteIS1_EED1Ev
   fun:_ZN2tf3MoCISt10unique_ptrINS_8TaskflowESt14default_deleteIS2_EEED1Ev
   fun:_ZZN2tf8Executor9run_untilIZNS0_5run_nIZNS0_3runEONS_8TaskflowEEUlvE_EENS_6FutureIvEES4_mOT_EUlvE_S5_EES7_S4_S9_OT0_ENUlRNS_7RuntimeEE_D1Ev
   fun:_ZNSt14_Function_base13_Base_managerIZN2tf8Executor9run_untilIZNS2_5run_nIZNS2_3runEONS1_8TaskflowEEUlvE_EENS1_6FutureIvEES6_mOT_EUlvE_S7_EES9_S6_SB_OT0_EUlRNS1_7RuntimeEE_E10_M_destroyERSt9_Any_dataSt17integral_constantIbLb0EE
   fun:_ZNSt14_Function_base13_Base_managerIZN2tf8Executor9run_untilIZNS2_5run_nIZNS2_3runEONS1_8TaskflowEEUlvE_EENS1_6FutureIvEES6_mOT_EUlvE_S7_EES9_S6_SB_OT0_EUlRNS1_7RuntimeEE_E10_M_managerERSt9_Any_dataRKSJ_St18_Manager_operation
   fun:_ZNSt17_Function_handlerIFvRN2tf7RuntimeEEZNS0_8Executor9run_untilIZNS4_5run_nIZNS4_3runEONS0_8TaskflowEEUlvE_EENS0_6FutureIvEES8_mOT_EUlvE_S9_EESB_S8_SD_OT0_EUlS2_E_E10_M_managerERSt9_Any_dataRKSJ_St18_Manager_operation
   fun:_ZNSt14_Function_baseD1Ev
}
{
   <insert_a_suppression_name_here>
   Helgrind:Race
   fun:_ZNSt11_Deque_baseISt10shared_ptrIN2tf8TopologyEESaIS3_EE16_M_destroy_nodesEPPS3_S7_
   fun:_ZNSt11_Deque_baseISt10shared_ptrIN2tf8TopologyEESaIS3_EED1Ev
   fun:_ZNSt5dequeISt10shared_ptrIN2tf8TopologyEESaIS3_EED1Ev
   fun:_ZNSt5queueISt10shared_ptrIN2tf8TopologyEESt5dequeIS3_SaIS3_EEED1Ev
   fun:_ZN2tf8TaskflowD1Ev
   fun:_ZNKSt14default_deleteIN2tf8TaskflowEEclEPS1_
   fun:_ZNSt10unique_ptrIN2tf8TaskflowESt14default_deleteIS1_EED1Ev
   fun:_ZN2tf3MoCISt10unique_ptrINS_8TaskflowESt14default_deleteIS2_EEED1Ev
   fun:_ZZN2tf8Executor9run_untilIZNS0_5run_nIZNS0_3runEONS_8TaskflowEEUlvE_EENS_6FutureIvEES4_mOT_EUlvE_S5_EES7_S4_S9_OT0_ENUlRNS_7RuntimeEE_D1Ev
   fun:_ZNSt14_Function_base13_Base_managerIZN2tf8Executor9run_untilIZNS2_5run_nIZNS2_3runEONS1_8TaskflowEEUlvE_EENS1_6FutureIvEES6_mOT_EUlvE_S7_EES9_S6_SB_OT0_EUlRNS1_7RuntimeEE_E10_M_destroyERSt9_Any_dataSt17integral_constantIbLb0EE
   fun:_ZNSt14_Function_base13_Base_managerIZN2tf8Executor9run_untilIZNS2_5run_nIZNS2_3runEONS1_8TaskflowEEUlvE_EENS1_6FutureIvEES6_mOT_EUlvE_S7_EES9_S6_SB_OT0_EUlRNS1_7RuntimeEE_E10_M_managerERSt9_Any_dataRKSJ_St18_Manager_operation
   fun:_ZNSt17_Function_handlerIFvRN2tf7RuntimeEEZNS0_8Executor9run_untilIZNS4_5run_nIZNS4_3runEONS0_8TaskflowEEUlvE_EENS0_6FutureIvEES8_mOT_EUlvE_S9_EESB_S8_SD_OT0_EUlS2_E_E10_M_managerERSt9_Any_dataRKSJ_St18_Manager_operation
}
{
   <insert_a_suppression_name_here>
   Helgrind:Race
   fun:_ZNSt11_Deque_baseISt10shared_ptrIN2tf8TopologyEESaIS3_EED1Ev
   fun:_ZNSt5dequeISt10shared_ptrIN2tf8TopologyEESaIS3_EED1Ev
   fun:_ZNSt5queueISt10shared_ptrIN2tf8TopologyEESt5dequeIS3_SaIS3_EEED1Ev
   fun:_ZN2tf8TaskflowD1Ev
   fun:_ZNKSt14default_deleteIN2tf8TaskflowEEclEPS1_
   fun:_ZNSt10unique_ptrIN2tf8TaskflowESt14default_deleteIS1_EED1Ev
   fun:_ZN2tf3MoCISt10unique_ptrINS_8TaskflowESt14default_deleteIS2_EEED1Ev
   fun:_ZZN2tf8Executor9run_untilIZNS0_5run_nIZNS0_3runEONS_8TaskflowEEUlvE_EENS_6FutureIvEES4_mOT_EUlvE_S5_EES7_S4_S9_OT0_ENUlRNS_7RuntimeEE_D1Ev
   fun:_ZNSt14_Function_base13_Base_managerIZN2tf8Executor9run_untilIZNS2_5run_nIZNS2_3runEONS1_8TaskflowEEUlvE_EENS1_6FutureIvEES6_mOT_EUlvE_S7_EES9_S6_SB_OT0_EUlRNS1_7RuntimeEE_E10_M_destroyERSt9_Any_dataSt17integral_constantIbLb0EE
   fun:_ZNSt14_Function_base13_Base_managerIZN2tf8Executor9run_untilIZNS2_5run_nIZNS2_3runEONS1_8TaskflowEEUlvE_EENS1_6FutureIvEES6_mOT_EUlvE_S7_EES9_S6_SB_OT0_EUlRNS1_7RuntimeEE_E10_M_managerERSt9_Any_dataRKSJ_St18_Manager_operation
   fun:_ZNSt17_Function_handlerIFvRN2tf7RuntimeEEZNS0_8Executor9run_untilIZNS4_5run_nIZNS4_3runEONS0_8TaskflowEEUlvE_EENS0_6FutureIvEES8_mOT_EUlvE_S9_EESB_S8_SD_OT0_EUlS2_E_E10_M_managerERSt9_Any_dataRKSJ_St18_Manager_operation
   fun:_ZNSt14_Function_baseD1Ev
}
{
   <insert_a_suppression_name_here>
   Helgrind:Race
   fun:_ZN2tf5Graph5clearEv
   fun:_ZN2tf5GraphD1Ev
   fun:_ZN2tf8TaskflowD1Ev
   fun:_ZNKSt14default_deleteIN2tf8TaskflowEEclEPS1_
   fun:_ZNSt10unique_ptrIN2tf8TaskflowESt14default_deleteIS1_EED1Ev
   fun:_ZN2tf3MoCISt10unique_ptrINS_8TaskflowESt14default_deleteIS2_EEED1Ev
   fun:_ZZN2tf8Executor9run_untilIZNS0_5run_nIZNS0_3runEONS_8TaskflowEEUlvE_EENS_6FutureIvEES4_mOT_EUlvE_S5_EES7_S4_S9_OT0_ENUlRNS_7RuntimeEE_D1Ev
   fun:_ZNSt14_Function_base13_Base_managerIZN2tf8Executor9run_untilIZNS2_5run_nIZNS2_3runEONS1_8TaskflowEEUlvE_EENS1_6FutureIvEES6_mOT_EUlvE_S7_EES9_S6_SB_OT0_EUlRNS1_7RuntimeEE_E10_M_destroyERSt9_Any_dataSt17integral_constantIbLb0EE
   fun:_ZNSt14_Function_base13_Base_managerIZN2tf8Executor9run_untilIZNS2_5run_nIZNS2_3runEONS1_8TaskflowEEUlvE_EENS1_6FutureIvEES6_mOT_EUlvE_S7_EES9_S6_SB_OT0_EUlRNS1_7RuntimeEE_E10_M_managerERSt9_Any_dataRKSJ_St18_Manager_operation
   fun:_ZNSt17_Function_handlerIFvRN2tf7RuntimeEEZNS0_8Executor9run_untilIZNS4_5run_nIZNS4_3runEONS0_8TaskflowEEUlvE_EENS0_6FutureIvEES8_mOT_EUlvE_S9_EESB_S8_SD_OT0_EUlS2_E_E10_M_managerERSt9_Any_dataRKSJ_St18_Manager_operation
   fun:_ZNSt14_Function_baseD1Ev
   fun:_ZNSt8functionIFvRN2tf7RuntimeEEED1Ev
}
{
   <insert_a_suppression_name_here>
   Helgrind:Race
   fun:_ZNKSt8__detail9__variant16_Variant_storageILb0EJSt9monostateN2tf4Node6StaticENS4_7RuntimeENS4_20NonpreemptiveRuntimeENS4_7SubflowENS4_9ConditionENS4_14MultiConditionENS4_6ModuleENS4_5AsyncENS4_14DependentAsyncEEE8_M_validEv
   fun:_ZNSt8__detail9__variant16_Variant_storageILb0EJSt9monostateN2tf4Node6StaticENS4_7RuntimeENS4_20NonpreemptiveRuntimeENS4_7SubflowENS4_9ConditionENS4_14MultiConditionENS4_6ModuleENS4_5AsyncENS4_14DependentAsyncEEE8_M_resetEv
   fun:_ZNSt8__detail9__variant16_Variant_storageILb0EJSt9monostateN2tf4Node6StaticENS4_7RuntimeENS4_20NonpreemptiveRuntimeENS4_7SubflowENS4_9ConditionENS4_14MultiConditionENS4_6ModuleENS4_5AsyncENS4_14DependentAsyncEEED1Ev
   fun:_ZNSt8__detail9__variant15_Copy_ctor_baseILb0EJSt9monostateN2tf4Node6StaticENS4_7RuntimeENS4_20NonpreemptiveRuntimeENS4_7SubflowENS4_9ConditionENS4_14MultiConditionENS4_6ModuleENS4_5AsyncENS4_14DependentAsyncEEED1Ev
   fun:_ZNSt8__detail9__variant15_Move_ctor_baseILb0EJSt9monostateN2tf4Node6StaticENS4_7RuntimeENS4_20NonpreemptiveRuntimeENS4_7SubflowENS4_9ConditionENS4_14MultiConditionENS4_6ModuleENS4_5AsyncENS4_14DependentAsyncEEED1Ev
   fun:_ZNSt8__detail9__variant17_Copy_assign_baseILb0EJSt9monostateN2tf4Node6StaticENS4_7RuntimeENS4_20NonpreemptiveRuntimeENS4_7SubflowENS4_9ConditionENS4_14MultiConditionENS4_6ModuleENS4_5AsyncENS4_14DependentAsyncEEED1Ev
   fun:_ZNSt8__detail9__variant17_Move_assign_baseILb0EJSt9monostateN2tf4Node6StaticENS4_7RuntimeENS4_20NonpreemptiveRuntimeENS4_7SubflowENS4_9ConditionENS4_14MultiConditionENS4_6ModuleENS4_5AsyncENS4_14DependentAsyncEEED1Ev
   fun:_ZNSt8__detail9__variant13_Variant_baseIJSt9monostateN2tf4Node6StaticENS4_7RuntimeENS4_20NonpreemptiveRuntimeENS4_7SubflowENS4_9ConditionENS4_14MultiConditionENS4_6ModuleENS4_5AsyncENS4_14DependentAsyncEEED1Ev
   fun:_ZNSt7variantIJSt9monostateN2tf4Node6StaticENS2_7RuntimeENS2_20NonpreemptiveRuntimeENS2_7SubflowENS2_9ConditionENS2_14MultiConditionENS2_6ModuleENS2_5AsyncENS2_14DependentAsyncEEED1Ev
   fun:_ZN2tf4NodeD1Ev
   fun:recycle
   fun:_ZN2tf5Graph5clearEv
   fun:_ZN2tf5GraphD1Ev
}
{
   <insert_a_suppression_name_here>
   Helgrind:Race
   fun:_ZNSt14_Function_base13_Base_managerIZN2tf19make_transform_taskIN9__gnu_cxx17__normal_iteratorIPN4mpcf3PcfIffEESt6vectorIS7_SaIS7_EEEESC_NS4_IPfS9_IfSaIfEEEEZNS5_16apply_functionalISC_SG_ZN12_GLOBAL__N_165PcfAlgebraAndNormsTest_ApplyFunctionalWithL1NormMultiplePcfs_TestIS7_E8TestBodyEvEUlRKS7_E_EEvT_SO_T0_T1_RNS5_8ExecutorEEUlRS7_E_NS1_17GuidedPartitionerINS1_21DefaultClosureWrapperEEELPv0EEEDaSO_SP_SQ_T2_T3_EUlRNS1_7RuntimeEE_E10_M_destroyERSt9_Any_dataSt17integral_constantIbLb0EE
   fun:_ZNSt14_Function_base13_Base_managerIZN2tf19make_transform_taskIN9__gnu_cxx17__normal_iteratorIPN4mpcf3PcfIffEESt6vectorIS7_SaIS7_EEEESC_NS4_IPfS9_IfSaIfEEEEZNS5_16apply_functionalISC_SG_ZN12_GLOBAL__N_165PcfAlgebraAndNormsTest_ApplyFunctionalWithL1NormMultiplePcfs_TestIS7_E8TestBodyEvEUlRKS7_E_EEvT_SO_T0_T1_RNS5_8ExecutorEEUlRS7_E_NS1_17GuidedPartitionerINS1_21DefaultClosureWrapperEEELPv0EEEDaSO_SP_SQ_T2_T3_EUlRNS1_7RuntimeEE_E10_M_managerERSt9_Any_dataRKS15_St18_Manager_operation
   fun:_ZNSt17_Function_handlerIFvRN2tf7RuntimeEEZNS0_19make_transform_taskIN9__gnu_cxx17__normal_iteratorIPN4mpcf3PcfIffEESt6vectorIS9_SaIS9_EEEESE_NS6_IPfSB_IfSaIfEEEEZNS7_16apply_functionalISE_SI_ZN12_GLOBAL__N_165PcfAlgebraAndNormsTest_ApplyFunctionalWithL1NormMultiplePcfs_TestIS9_E8TestBodyEvEUlRKS9_E_EEvT_SQ_T0_T1_RNS7_8ExecutorEEUlRS9_E_NS0_17GuidedPartitionerINS0_21DefaultClosureWrapperEEELPv0EEEDaSQ_SR_SS_T2_T3_EUlS2_E_E10_M_managerERSt9_Any_dataRKS15_St18_Manager_operation
   fun:_ZNSt14_Function_baseD1Ev
   fun:_ZNSt8functionIFvRN2tf7RuntimeEEED1Ev
   fun:_ZN2tf4Node7RuntimeD1Ev
   fun:_ZSt10destroy_atIN2tf4Node7RuntimeEEvPT_
   fun:_ZSt8_DestroyIN2tf4Node7RuntimeEEvPT_
   fun:_ZZNSt8__detail9__variant16_Variant_storageILb0EJSt9monostateN2tf4Node6StaticENS4_7RuntimeENS4_20NonpreemptiveRuntimeENS4_7SubflowENS4_9ConditionENS4_14MultiConditionENS4_6ModuleENS4_5AsyncENS4_14DependentAsyncEEE8_M_resetEvENUlOT_E_clIRS6_EEDaSG_
   fun:_ZSt13__invoke_implIvZNSt8__detail9__variant16_Variant_storageILb0EJSt9monostateN2tf4Node6StaticENS5_7RuntimeENS5_20NonpreemptiveRuntimeENS5_7SubflowENS5_9ConditionENS5_14MultiConditionENS5_6ModuleENS5_5AsyncENS5_14DependentAsyncEEE8_M_resetEvEUlOT_E_JRS7_EESG_St14__invoke_otherOT0_DpOT1_
   fun:_ZSt10__invoke_rIvZNSt8__detail9__variant16_Variant_storageILb0EJSt9monostateN2tf4Node6StaticENS5_7RuntimeENS5_20NonpreemptiveRuntimeENS5_7SubflowENS5_9ConditionENS5_14MultiConditionENS5_6ModuleENS5_5AsyncENS5_14DependentAsyncEEE8_M_resetEvEUlOT_E_JRS7_EENSt9enable_ifIX16is_invocable_r_vISG_T0_DpT1_EESG_E4typeEOSL_DpOSM_
   fun:_ZNSt8__detail9__variant17__gen_vtable_implINS0_12_Multi_arrayIPFvOZNS0_16_Variant_storageILb0EJSt9monostateN2tf4Node6StaticENS6_7RuntimeENS6_20NonpreemptiveRuntimeENS6_7SubflowENS6_9ConditionENS6_14MultiConditionENS6_6ModuleENS6_5AsyncENS6_14DependentAsyncEEE8_M_resetEvEUlOT_E_RSt7variantIJS4_S7_S8_S9_SA_SB_SC_SD_SE_SF_EEEJEEESt16integer_sequenceImJLm2EEEE14__visit_invokeESK_SN_
}
{
   <insert_a_suppression_name_here>
   Helgrind:Race
   fun:_ZN2tf25SmallVectorTemplateCommonIPNS_4NodeEvE3endEv
   fun:_ZN2tf15SmallVectorImplIPNS_4NodeEED1Ev
   fun:_ZN2tf11SmallVectorIPNS_4NodeELj4EED1Ev
   fun:_ZN2tf4NodeD1Ev
   fun:recycle
   fun:_ZN2tf5Graph5clearEv
   fun:_ZN2tf5GraphD1Ev
   fun:_ZN2tf8TaskflowD1Ev
   fun:_ZNKSt14default_deleteIN2tf8TaskflowEEclEPS1_
   fun:_ZNSt10unique_ptrIN2tf8TaskflowESt14default_deleteIS1_EED1Ev
   fun:_ZN2tf3MoCISt10unique_ptrINS_8TaskflowESt14default_deleteIS2_EEED1Ev
   fun:_ZZN2tf8Executor9run_untilIZNS0_5run_nIZNS0_3runEONS_8TaskflowEEUlvE_EENS_6FutureIvEES4_mOT_EUlvE_S5_EES7_S4_S9_OT0_ENUlRNS_7RuntimeEE_D1Ev
   fun:_ZNSt14_Function_base13_Base_managerIZN2tf8Executor9run_untilIZNS2_5run_nIZNS2_3runEONS1_8TaskflowEEUlvE_EENS1_6FutureIvEES6_mOT_EUlvE_S7_EES9_S6_SB_OT0_EUlRNS1_7RuntimeEE_E10_M_destroyERSt9_Any_dataSt17integral_constantIbLb0EE
}
{
   <insert_a_suppression_name_here>
   Helgrind:Race
   fun:_ZN2tf25SmallVectorTemplateCommonIPNS_4NodeEvE5beginEv
   fun:_ZN2tf15SmallVectorImplIPNS_4NodeEED1Ev
   fun:_ZN2tf11SmallVectorIPNS_4NodeELj4EED1Ev
   fun:_ZN2tf4NodeD1Ev
   fun:recycle
   fun:_ZN2tf5Graph5clearEv
   fun:_ZN2tf5GraphD1Ev
   fun:_ZN2tf8TaskflowD1Ev
   fun:_ZNKSt14default_deleteIN2tf8TaskflowEEclEPS1_
   fun:_ZNSt10unique_ptrIN2tf8TaskflowESt14default_deleteIS1_EED1Ev
   fun:_ZN2tf3MoCISt10unique_ptrINS_8TaskflowESt14default_deleteIS2_EEED1Ev
   fun:_ZZN2tf8Executor9run_untilIZNS0_5run_nIZNS0_3runEONS_8TaskflowEEUlvE_EENS_6FutureIvEES4_mOT_EUlvE_S5_EES7_S4_S9_OT0_ENUlRNS_7RuntimeEE_D1Ev
   fun:_ZNSt14_Function_base13_Base_managerIZN2tf8Executor9run_untilIZNS2_5run_nIZNS2_3runEONS1_8TaskflowEEUlvE_EENS1_6FutureIvEES6_mOT_EUlvE_S7_EES9_S6_SB_OT0_EUlRNS1_7RuntimeEE_E10_M_destroyERSt9_Any_dataSt17integral_constantIbLb0EE
}
{
   <insert_a_suppression_name_here>
   Helgrind:Race
   fun:_ZNKSt7__cxx1112basic_stringIcSt11char_traitsIcESaIcEE7_M_dataEv
   fun:_ZNKSt7__cxx1112basic_stringIcSt11char_traitsIcESaIcEE11_M_is_localEv
   fun:_ZNSt7__cxx1112basic_stringIcSt11char_traitsIcESaIcEE10_M_disposeEv
   fun:_ZNSt7__cxx1112basic_stringIcSt11char_traitsIcESaIcEED1Ev
   fun:_ZN2tf4NodeD1Ev
   fun:recycle
   fun:_ZN2tf5Graph5clearEv
   fun:_ZN2tf5GraphD1Ev
   fun:_ZN2tf8TaskflowD1Ev
   fun:_ZNKSt14default_deleteIN2tf8TaskflowEEclEPS1_
   fun:_ZNSt10unique_ptrIN2tf8TaskflowESt14default_deleteIS1_EED1Ev
   fun:_ZN2tf3MoCISt10unique_ptrINS_8TaskflowESt14default_deleteIS2_EEED1Ev
   fun:_ZZN2tf8Executor9run_untilIZNS0_5run_nIZNS0_3runEONS_8TaskflowEEUlvE_EENS_6FutureIvEES4_mOT_EUlvE_S5_EES7_S4_S9_OT0_ENUlRNS_7RuntimeEE_D1Ev
}
{
   <insert_a_suppression_name_here>
   Helgrind:Race
   fun:_ZNKSt7__cxx1112basic_stringIcSt11char_traitsIcESaIcEE11_M_is_localEv
   fun:_ZNSt7__cxx1112basic_stringIcSt11char_traitsIcESaIcEE10_M_disposeEv
   fun:_ZNSt7__cxx1112basic_stringIcSt11char_traitsIcESaIcEED1Ev
   fun:_ZN2tf4NodeD1Ev
   fun:recycle
   fun:_ZN2tf5Graph5clearEv
   fun:_ZN2tf5GraphD1Ev
   fun:_ZN2tf8TaskflowD1Ev
   fun:_ZNKSt14default_deleteIN2tf8TaskflowEEclEPS1_
   fun:_ZNSt10unique_ptrIN2tf8TaskflowESt14default_deleteIS1_EED1Ev
   fun:_ZN2tf3MoCISt10unique_ptrINS_8TaskflowESt14default_deleteIS2_EEED1Ev
   fun:_ZZN2tf8Executor9run_untilIZNS0_5run_nIZNS0_3runEONS_8TaskflowEEUlvE_EENS_6FutureIvEES4_mOT_EUlvE_S5_EES7_S4_S9_OT0_ENUlRNS_7RuntimeEE_D1Ev
   fun:_ZNSt14_Function_base13_Base_managerIZN2tf8Executor9run_untilIZNS2_5run_nIZNS2_3runEONS1_8TaskflowEEUlvE_EENS1_6FutureIvEES6_mOT_EUlvE_S7_EES9_S6_SB_OT0_EUlRNS1_7RuntimeEE_E10_M_destroyERSt9_Any_dataSt17integral_constantIbLb0EE
}
{
   <insert_a_suppression_name_here>
   Helgrind:Race
   fun:_ZNSt15__exception_ptr13exception_ptrD1Ev
   fun:_ZN2tf8NodeBaseD1Ev
   fun:_ZN2tf4NodeD1Ev
   fun:recycle
   fun:_ZN2tf5Graph5clearEv
   fun:_ZN2tf5GraphD1Ev
   fun:_ZN2tf8TaskflowD1Ev
   fun:_ZNKSt14default_deleteIN2tf8TaskflowEEclEPS1_
   fun:_ZNSt10unique_ptrIN2tf8TaskflowESt14default_deleteIS1_EED1Ev
   fun:_ZN2tf3MoCISt10unique_ptrINS_8TaskflowESt14default_deleteIS2_EEED1Ev
   fun:_ZZN2tf8Executor9run_untilIZNS0_5run_nIZNS0_3runEONS_8TaskflowEEUlvE_EENS_6FutureIvEES4_mOT_EUlvE_S5_EES7_S4_S9_OT0_ENUlRNS_7RuntimeEE_D1Ev
   fun:_ZNSt14_Function_base13_Base_managerIZN2tf8Executor9run_untilIZNS2_5run_nIZNS2_3runEONS1_8TaskflowEEUlvE_EENS1_6FutureIvEES6_mOT_EUlvE_S7_EES9_S6_SB_OT0_EUlRNS1_7RuntimeEE_E10_M_destroyERSt9_Any_dataSt17integral_constantIbLb0EE
   fun:_ZNSt14_Function_base13_Base_managerIZN2tf8Executor9run_untilIZNS2_5run_nIZNS2_3runEONS1_8TaskflowEEUlvE_EENS1_6FutureIvEES6_mOT_EUlvE_S7_EES9_S6_SB_OT0_EUlRNS1_7RuntimeEE_E10_M_managerERSt9_Any_dataRKSJ_St18_Manager_operation
}
{
   <insert_a_suppression_name_here>
   Helgrind:Race
   fun:_ZNSt6vectorIPN2tf4NodeESaIS2_EE15_M_erase_at_endEPS2_
   fun:_ZNSt6vectorIPN2tf4NodeESaIS2_EE5clearEv
   fun:_ZN2tf5Graph5clearEv
   fun:_ZN2tf5GraphD1Ev
   fun:_ZN2tf8TaskflowD1Ev
   fun:_ZNKSt14default_deleteIN2tf8TaskflowEEclEPS1_
   fun:_ZNSt10unique_ptrIN2tf8TaskflowESt14default_deleteIS1_EED1Ev
   fun:_ZN2tf3MoCISt10unique_ptrINS_8TaskflowESt14default_deleteIS2_EEED1Ev
   fun:_ZZN2tf8Executor9run_untilIZNS0_5run_nIZNS0_3runEONS_8TaskflowEEUlvE_EENS_6FutureIvEES4_mOT_EUlvE_S5_EES7_S4_S9_OT0_ENUlRNS_7RuntimeEE_D1Ev
   fun:_ZNSt14_Function_base13_Base_managerIZN2tf8Executor9run_untilIZNS2_5run_nIZNS2_3runEONS1_8TaskflowEEUlvE_EENS1_6FutureIvEES6_mOT_EUlvE_S7_EES9_S6_SB_OT0_EUlRNS1_7RuntimeEE_E10_M_destroyERSt9_Any_dataSt17integral_constantIbLb0EE
   fun:_ZNSt14_Function_base13_Base_managerIZN2tf8Executor9run_untilIZNS2_5run_nIZNS2_3runEONS1_8TaskflowEEUlvE_EENS1_6FutureIvEES6_mOT_EUlvE_S7_EES9_S6_SB_OT0_EUlRNS1_7RuntimeEE_E10_M_managerERSt9_Any_dataRKSJ_St18_Manager_operation
   fun:_ZNSt17_Function_handlerIFvRN2tf7RuntimeEEZNS0_8Executor9run_untilIZNS4_5run_nIZNS4_3runEONS0_8TaskflowEEUlvE_EENS0_6FutureIvEES8_mOT_EUlvE_S9_EESB_S8_SD_OT0_EUlS2_E_E10_M_managerERSt9_Any_dataRKSJ_St18_Manager_operation
}
{
   <insert_a_suppression_name_here>
   Helgrind:Race
   fun:_ZNSt12_Vector_baseIPN2tf4NodeESaIS2_EED1Ev
   fun:_ZNSt6vectorIPN2tf4NodeESaIS2_EED1Ev
   fun:_ZN2tf5GraphD1Ev
   fun:_ZN2tf8TaskflowD1Ev
   fun:_ZNKSt14default_deleteIN2tf8TaskflowEEclEPS1_
   fun:_ZNSt10unique_ptrIN2tf8TaskflowESt14default_deleteIS1_EED1Ev
   fun:_ZN2tf3MoCISt10unique_ptrINS_8TaskflowESt14default_deleteIS2_EEED1Ev
   fun:_ZZN2tf8Executor9run_untilIZNS0_5run_nIZNS0_3runEONS_8TaskflowEEUlvE_EENS_6FutureIvEES4_mOT_EUlvE_S5_EES7_S4_S9_OT0_ENUlRNS_7RuntimeEE_D1Ev
   fun:_ZNSt14_Function_base13_Base_managerIZN2tf8Executor9run_untilIZNS2_5run_nIZNS2_3runEONS1_8TaskflowEEUlvE_EENS1_6FutureIvEES6_mOT_EUlvE_S7_EES9_S6_SB_OT0_EUlRNS1_7RuntimeEE_E10_M_destroyERSt9_Any_dataSt17integral_constantIbLb0EE
   fun:_ZNSt14_Function_base13_Base_managerIZN2tf8Executor9run_untilIZNS2_5run_nIZNS2_3runEONS1_8TaskflowEEUlvE_EENS1_6FutureIvEES6_mOT_EUlvE_S7_EES9_S6_SB_OT0_EUlRNS1_7RuntimeEE_E10_M_managerERSt9_Any_dataRKSJ_St18_Manager_operation
   fun:_ZNSt17_Function_handlerIFvRN2tf7RuntimeEEZNS0_8Executor9run_untilIZNS4_5run_nIZNS4_3runEONS0_8TaskflowEEUlvE_EENS0_6FutureIvEES8_mOT_EUlvE_S9_EESB_S8_SD_OT0_EUlS2_E_E10_M_managerERSt9_Any_dataRKSJ_St18_Manager_operation
   fun:_ZNSt14_Function_baseD1Ev
}
{
   <insert_a_suppression_name_here>
   Helgrind:Race
   fun:_ZNSt10unique_ptrIN2tf8TaskflowESt14default_deleteIS1_EED1Ev
   fun:_ZN2tf3MoCISt10unique_ptrINS_8TaskflowESt14default_deleteIS2_EEED1Ev
   fun:_ZZN2tf8Executor9run_untilIZNS0_5run_nIZNS0_3runEONS_8TaskflowEEUlvE_EENS_6FutureIvEES4_mOT_EUlvE_S5_EES7_S4_S9_OT0_ENUlRNS_7RuntimeEE_D1Ev
   fun:_ZNSt14_Function_base13_Base_managerIZN2tf8Executor9run_untilIZNS2_5run_nIZNS2_3runEONS1_8TaskflowEEUlvE_EENS1_6FutureIvEES6_mOT_EUlvE_S7_EES9_S6_SB_OT0_EUlRNS1_7RuntimeEE_E10_M_destroyERSt9_Any_dataSt17integral_constantIbLb0EE
   fun:_ZNSt14_Function_base13_Base_managerIZN2tf8Executor9run_untilIZNS2_5run_nIZNS2_3runEONS1_8TaskflowEEUlvE_EENS1_6FutureIvEES6_mOT_EUlvE_S7_EES9_S6_SB_OT0_EUlRNS1_7RuntimeEE_E10_M_managerERSt9_Any_dataRKSJ_St18_Manager_operation
   fun:_ZNSt17_Function_handlerIFvRN2tf7RuntimeEEZNS0_8Executor9run_untilIZNS4_5run_nIZNS4_3runEONS0_8TaskflowEEUlvE_EENS0_6FutureIvEES8_mOT_EUlvE_S9_EESB_S8_SD_OT0_EUlS2_E_E10_M_managerERSt9_Any_dataRKSJ_St18_Manager_operation
   fun:_ZNSt14_Function_baseD1Ev
   fun:_ZNSt8functionIFvRN2tf7RuntimeEEED1Ev
   fun:_ZSt10destroy_atISt8functionIFvRN2tf7RuntimeEEEEvPT_
   fun:_ZSt8_DestroyISt8functionIFvRN2tf7RuntimeEEEEvPT_
   fun:_ZZNSt8__detail9__variant16_Variant_storageILb0EJSt8functionIFvvEES2_IFvRN2tf7RuntimeEEES2_IFvS7_bEEEE8_M_resetEvENUlOT_E_clIRS9_EEDaSE_
   fun:_ZSt13__invoke_implIvZNSt8__detail9__variant16_Variant_storageILb0EJSt8functionIFvvEES3_IFvRN2tf7RuntimeEEES3_IFvS8_bEEEE8_M_resetEvEUlOT_E_JRSA_EESE_St14__invoke_otherOT0_DpOT1_
}
{
   <insert_a_suppression_name_here>
   Helgrind:Race
   fun:_ZNSt8__detail9__variant16_Variant_storageILb0EJSt8functionIFvvEES2_IFvRN2tf7RuntimeEEES2_IFvS7_bEEEE8_M_resetEv
   fun:_ZNSt8__detail9__variant16_Variant_storageILb0EJSt8functionIFvvEES2_IFvRN2tf7RuntimeEEES2_IFvS7_bEEEED1Ev
   fun:_ZNSt8__detail9__variant15_Copy_ctor_baseILb0EJSt8functionIFvvEES2_IFvRN2tf7RuntimeEEES2_IFvS7_bEEEED1Ev
   fun:_ZNSt8__detail9__variant15_Move_ctor_baseILb0EJSt8functionIFvvEES2_IFvRN2tf7RuntimeEEES2_IFvS7_bEEEED1Ev
   fun:_ZNSt8__detail9__variant17_Copy_assign_baseILb0EJSt8functionIFvvEES2_IFvRN2tf7RuntimeEEES2_IFvS7_bEEEED1Ev
   fun:_ZNSt8__detail9__variant17_Move_assign_baseILb0EJSt8functionIFvvEES2_IFvRN2tf7RuntimeEEES2_IFvS7_bEEEED1Ev
   fun:_ZNSt8__detail9__variant13_Variant_baseIJSt8functionIFvvEES2_IFvRN2tf7RuntimeEEES2_IFvS7_bEEEED1Ev
   fun:_ZNSt7variantIJSt8functionIFvvEES0_IFvRN2tf7RuntimeEEES0_IFvS5_bEEEED1Ev
   fun:_ZN2tf4Node5AsyncD1Ev
   fun:_ZSt10destroy_atIN2tf4Node5AsyncEEvPT_
   fun:_ZSt8_DestroyIN2tf4Node5AsyncEEvPT_
   fun:_ZZNSt8__detail9__variant16_Variant_storageILb0EJSt9monostateN2tf4Node6StaticENS4_7RuntimeENS4_20NonpreemptiveRuntimeENS4_7SubflowENS4_9ConditionENS4_14MultiConditionENS4_6ModuleENS4_5AsyncENS4_14DependentAsyncEEE8_M_resetEvENUlOT_E_clIRSC_EEDaSG_
}
{
   <insert_a_suppression_name_here>
   Helgrind:Race
   fun:_ZN7testing8internal11CmpHelperEQIffEENS_15AssertionResultEPKcS4_RKT_RKT0_
   fun:_ZN7testing8internal8EqHelper7CompareIffLPv0EEENS_15AssertionResultEPKcS6_RKT_RKT0_
   fun:_ZN12_GLOBAL__N_165PcfAlgebraAndNormsTest_ApplyFunctionalWithL1NormMultiplePcfs_TestIN4mpcf3PcfIffEEE8TestBodyEv
   fun:_ZN7testing8internal38HandleSehExceptionsInMethodIfSupportedINS_4TestEvEET0_PT_MS4_FS3_vEPKc
   fun:_ZN7testing8internal35HandleExceptionsInMethodIfSupportedINS_4TestEvEET0_PT_MS4_FS3_vEPKc
   fun:_ZN7testing4Test3RunEv
   fun:_ZN7testing8TestInfo3RunEv
   fun:_ZN7testing9TestSuite3RunEv
   fun:_ZN7testing8internal12UnitTestImpl11RunAllTestsEv
   fun:_ZN7testing8internal38HandleSehExceptionsInMethodIfSupportedINS0_12UnitTestImplEbEET0_PT_MS4_FS3_vEPKc
   fun:_ZN7testing8internal35HandleExceptionsInMethodIfSupportedINS0_12UnitTestImplEbEET0_PT_MS4_FS3_vEPKc
   fun:_ZN7testing8UnitTest3RunEv
}
{
   <insert_a_suppression_name_here>
   Helgrind:Race
   fun:_ZNSt14_Function_base13_Base_managerIZN4mpcf15parallel_reduceIN9__gnu_cxx17__normal_iteratorIPKNS1_3PcfIddEESt6vectorIS6_SaIS6_EEEEEENSt15iterator_traitsIT_E10value_typeESE_SE_St8functionIFNSG_10value_typeERKNSG_14rectangle_typeEEEmRNS1_8ExecutorEEUlvE_E14_M_get_pointerERKSt9_Any_data
   fun:_ZNSt17_Function_handlerIFvvEZN4mpcf15parallel_reduceIN9__gnu_cxx17__normal_iteratorIPKNS1_3PcfIddEESt6vectorIS6_SaIS6_EEEEEENSt15iterator_traitsIT_E10value_typeESE_SE_St8functionIFNSG_10value_typeERKNSG_14rectangle_typeEEEmRNS1_8ExecutorEEUlvE_E9_M_invokeERKSt9_Any_data
   fun:_ZNKSt8functionIFvvEEclEv
   fun:_ZN2tf8Executor19_invoke_static_taskERNS_6WorkerEPNS_4NodeE
   fun:_ZN2tf8Executor7_invokeERNS_6WorkerEPNS_4NodeE
   fun:_ZN2tf8Executor13_exploit_taskERNS_6WorkerERPNS_4NodeE
   fun:_ZZN2tf8Executor6_spawnEmSt10shared_ptrINS_15WorkerInterfaceEEENKUlvE_clEv
   fun:_ZSt13__invoke_implIvZN2tf8Executor6_spawnEmSt10shared_ptrINS0_15WorkerInterfaceEEEUlvE_JEET_St14__invoke_otherOT0_DpOT1_
   fun:_ZSt8__invokeIZN2tf8Executor6_spawnEmSt10shared_ptrINS0_15WorkerInterfaceEEEUlvE_JEENSt15__invoke_resultIT_JDpT0_EE4typeEOS7_DpOS8_
   fun:_ZNSt6thread8_InvokerISt5tupleIJZN2tf8Executor6_spawnEmSt10shared_ptrINS2_15WorkerInterfaceEEEUlvE_EEE9_M_invokeIJLm0EEEEvSt12_Index_tupleIJXspT_EEE
   fun:_ZNSt6thread8_InvokerISt5tupleIJZN2tf8Executor6_spawnEmSt10shared_ptrINS2_15WorkerInterfaceEEEUlvE_EEEclEv
   fun:_ZNSt6thread11_State_implINS_8_InvokerISt5tupleIJZN2tf8Executor6_spawnEmSt10shared_ptrINS3_15WorkerInterfaceEEEUlvE_EEEEE6_M_runEv
}
{
   <insert_a_suppression_name_here>
   Helgrind:Race
   fun:_ZZN4mpcf15parallel_reduceIN9__gnu_cxx17__normal_iteratorIPKNS_3PcfIddEESt6vectorIS4_SaIS4_EEEEEENSt15iterator_traitsIT_E10value_typeESC_SC_St8functionIFNSE_10value_typeERKNSE_14rectangle_typeEEEmRNS_8ExecutorEENKUlvE_clEv
   fun:_ZSt13__invoke_implIvRZN4mpcf15parallel_reduceIN9__gnu_cxx17__normal_iteratorIPKNS0_3PcfIddEESt6vectorIS5_SaIS5_EEEEEENSt15iterator_traitsIT_E10value_typeESD_SD_St8functionIFNSF_10value_typeERKNSF_14rectangle_typeEEEmRNS0_8ExecutorEEUlvE_JEESD_St14__invoke_otherOT0_DpOT1_
   fun:_ZSt10__invoke_rIvRZN4mpcf15parallel_reduceIN9__gnu_cxx17__normal_iteratorIPKNS0_3PcfIddEESt6vectorIS5_SaIS5_EEEEEENSt15iterator_traitsIT_E10value_typeESD_SD_St8functionIFNSF_10value_typeERKNSF_14rectangle_typeEEEmRNS0_8ExecutorEEUlvE_JEENSt9enable_ifIX16is_invocable_r_vISD_T0_DpT1_EESD_E4typeEOSS_DpOST_
   fun:_ZNSt17_Function_handlerIFvvEZN4mpcf15parallel_reduceIN9__gnu_cxx17__normal_iteratorIPKNS1_3PcfIddEESt6vectorIS6_SaIS6_EEEEEENSt15iterator_traitsIT_E10value_typeESE_SE_St8functionIFNSG_10value_typeERKNSG_14rectangle_typeEEEmRNS1_8ExecutorEEUlvE_E9_M_invokeERKSt9_Any_data
   fun:_ZNKSt8functionIFvvEEclEv
   fun:_ZN2tf8Executor19_invoke_static_taskERNS_6WorkerEPNS_4NodeE
   fun:_ZN2tf8Executor7_invokeERNS_6WorkerEPNS_4NodeE
   fun:_ZN2tf8Executor13_exploit_taskERNS_6WorkerERPNS_4NodeE
   fun:_ZZN2tf8Executor6_spawnEmSt10shared_ptrINS_15WorkerInterfaceEEENKUlvE_clEv
   fun:_ZSt13__invoke_implIvZN2tf8Executor6_spawnEmSt10shared_ptrINS0_15WorkerInterfaceEEEUlvE_JEET_St14__invoke_otherOT0_DpOT1_
   fun:_ZSt8__invokeIZN2tf8Executor6_spawnEmSt10shared_ptrINS0_15WorkerInterfaceEEEUlvE_JEENSt15__invoke_resultIT_JDpT0_EE4typeEOS7_DpOS8_
   fun:_ZNSt6thread8_InvokerISt5tupleIJZN2tf8Executor6_spawnEmSt10shared_ptrINS2_15WorkerInterfaceEEEUlvE_EEE9_M_invokeIJLm0EEEEvSt12_Index_tupleIJXspT_EEE
}
{
   <insert_a_suppression_name_here>
   Helgrind:Race
   fun:_ZZN4mpcf15parallel_reduceIN9__gnu_cxx17__normal_iteratorIPKNS_3PcfIddEESt6vectorIS4_SaIS4_EEEEEENSt15iterator_traitsIT_E10value_typeESC_SC_St8functionIFNSE_10value_typeERKNSE_14rectangle_typeEEEmRNS_8ExecutorEENKUlvE_clEv
   fun:_ZSt13__invoke_implIvRZN4mpcf15parallel_reduceIN9__gnu_cxx17__normal_iteratorIPKNS0_3PcfIddEESt6vectorIS5_SaIS5_EEEEEENSt15iterator_traitsIT_E10value_typeESD_SD_St8functionIFNSF_10value_typeERKNSF_14rectangle_typeEEEmRNS0_8ExecutorEEUlvE_JEESD_St14__invoke_otherOT0_DpOT1_
   fun:_ZSt10__invoke_rIvRZN4mpcf15parallel_reduceIN9__gnu_cxx17__normal_iteratorIPKNS0_3PcfIddEESt6vectorIS5_SaIS5_EEEEEENSt15iterator_traitsIT_E10value_typeESD_SD_St8functionIFNSF_10value_typeERKNSF_14rectangle_typeEEEmRNS0_8ExecutorEEUlvE_JEENSt9enable_ifIX16is_invocable_r_vISD_T0_DpT1_EESD_E4typeEOSS_DpOST_
   fun:_ZNSt17_Function_handlerIFvvEZN4mpcf15parallel_reduceIN9__gnu_cxx17__normal_iteratorIPKNS1_3PcfIddEESt6vectorIS6_SaIS6_EEEEEENSt15iterator_traitsIT_E10value_typeESE_SE_St8functionIFNSG_10value_typeERKNSG_14rectangle_typeEEEmRNS1_8ExecutorEEUlvE_E9_M_invokeERKSt9_Any_data
   fun:_ZNKSt8functionIFvvEEclEv
   fun:_ZN2tf8Executor19_invoke_static_taskERNS_6WorkerEPNS_4NodeE
   fun:_ZN2tf8Executor7_invokeERNS_6WorkerEPNS_4NodeE
   fun:_ZN2tf8Executor13_exploit_taskERNS_6WorkerERPNS_4NodeE
   fun:_ZZN2tf8Executor6_spawnEmSt10shared_ptrINS_15WorkerInterfaceEEENKUlvE_clEv
   fun:_ZSt13__invoke_implIvZN2tf8Executor6_spawnEmSt10shared_ptrINS0_15WorkerInterfaceEEEUlvE_JEET_St14__invoke_otherOT0_DpOT1_
   fun:_ZSt8__invokeIZN2tf8Executor6_spawnEmSt10shared_ptrINS0_15WorkerInterfaceEEEUlvE_JEENSt15__invoke_resultIT_JDpT0_EE4typeEOS7_DpOS8_
   fun:_ZNSt6thread8_InvokerISt5tupleIJZN2tf8Executor6_spawnEmSt10shared_ptrINS2_15WorkerInterfaceEEEUlvE_EEE9_M_invokeIJLm0EEEEvSt12_Index_tupleIJXspT_EEE
}
{
   <insert_a_suppression_name_here>
   Helgrind:Race
   fun:_ZNK9__gnu_cxx17__normal_iteratorIPKN4mpcf3PcfIddEESt6vectorIS3_SaIS3_EEEplEl
   fun:_ZZN4mpcf15parallel_reduceIN9__gnu_cxx17__normal_iteratorIPKNS_3PcfIddEESt6vectorIS4_SaIS4_EEEEEENSt15iterator_traitsIT_E10value_typeESC_SC_St8functionIFNSE_10value_typeERKNSE_14rectangle_typeEEEmRNS_8ExecutorEENKUlvE_clEv
   fun:_ZSt13__invoke_implIvRZN4mpcf15parallel_reduceIN9__gnu_cxx17__normal_iteratorIPKNS0_3PcfIddEESt6vectorIS5_SaIS5_EEEEEENSt15iterator_traitsIT_E10value_typeESD_SD_St8functionIFNSF_10value_typeERKNSF_14rectangle_typeEEEmRNS0_8ExecutorEEUlvE_JEESD_St14__invoke_otherOT0_DpOT1_
   fun:_ZSt10__invoke_rIvRZN4mpcf15parallel_reduceIN9__gnu_cxx17__normal_iteratorIPKNS0_3PcfIddEESt6vectorIS5_SaIS5_EEEEEENSt15iterator_traitsIT_E10value_typeESD_SD_St8functionIFNSF_10value_typeERKNSF_14rectangle_typeEEEmRNS0_8ExecutorEEUlvE_JEENSt9enable_ifIX16is_invocable_r_vISD_T0_DpT1_EESD_E4typeEOSS_DpOST_
   fun:_ZNSt17_Function_handlerIFvvEZN4mpcf15parallel_reduceIN9__gnu_cxx17__normal_iteratorIPKNS1_3PcfIddEESt6vectorIS6_SaIS6_EEEEEENSt15iterator_traitsIT_E10value_typeESE_SE_St8functionIFNSG_10value_typeERKNSG_14rectangle_typeEEEmRNS1_8ExecutorEEUlvE_E9_M_invokeERKSt9_Any_data
   fun:_ZNKSt8functionIFvvEEclEv
   fun:_ZN2tf8Executor19_invoke_static_taskERNS_6WorkerEPNS_4NodeE
   fun:_ZN2tf8Executor7_invokeERNS_6WorkerEPNS_4NodeE
   fun:_ZN2tf8Executor13_exploit_taskERNS_6WorkerERPNS_4NodeE
   fun:_ZZN2tf8Executor6_spawnEmSt10shared_ptrINS_15WorkerInterfaceEEENKUlvE_clEv
   fun:_ZSt13__invoke_implIvZN2tf8Executor6_spawnEmSt10shared_ptrINS0_15WorkerInterfaceEEEUlvE_JEET_St14__invoke_otherOT0_DpOT1_
   fun:_ZSt8__invokeIZN2tf8Executor6_spawnEmSt10shared_ptrINS0_15WorkerInterfaceEEEUlvE_JEENSt15__invoke_resultIT_JDpT0_EE4typeEOS7_DpOS8_
}
{
   <insert_a_suppression_name_here>
   Helgrind:Race
   fun:_ZZN4mpcf15parallel_reduceIN9__gnu_cxx17__normal_iteratorIPKNS_3PcfIddEESt6vectorIS4_SaIS4_EEEEEENSt15iterator_traitsIT_E10value_typeESC_SC_St8functionIFNSE_10value_typeERKNSE_14rectangle_typeEEEmRNS_8ExecutorEENKUlvE_clEv
   fun:_ZSt13__invoke_implIvRZN4mpcf15parallel_reduceIN9__gnu_cxx17__normal_iteratorIPKNS0_3PcfIddEESt6vectorIS5_SaIS5_EEEEEENSt15iterator_traitsIT_E10value_typeESD_SD_St8functionIFNSF_10value_typeERKNSF_14rectangle_typeEEEmRNS0_8ExecutorEEUlvE_JEESD_St14__invoke_otherOT0_DpOT1_
   fun:_ZSt10__invoke_rIvRZN4mpcf15parallel_reduceIN9__gnu_cxx17__normal_iteratorIPKNS0_3PcfIddEESt6vectorIS5_SaIS5_EEEEEENSt15iterator_traitsIT_E10value_typeESD_SD_St8functionIFNSF_10value_typeERKNSF_14rectangle_typeEEEmRNS0_8ExecutorEEUlvE_JEENSt9enable_ifIX16is_invocable_r_vISD_T0_DpT1_EESD_E4typeEOSS_DpOST_
   fun:_ZNSt17_Function_handlerIFvvEZN4mpcf15parallel_reduceIN9__gnu_cxx17__normal_iteratorIPKNS1_3PcfIddEESt6vectorIS6_SaIS6_EEEEEENSt15iterator_traitsIT_E10value_typeESE_SE_St8functionIFNSG_10value_typeERKNSG_14rectangle_typeEEEmRNS1_8ExecutorEEUlvE_E9_M_invokeERKSt9_Any_data
   fun:_ZNKSt8functionIFvvEEclEv
   fun:_ZN2tf8Executor19_invoke_static_taskERNS_6WorkerEPNS_4NodeE
   fun:_ZN2tf8Executor7_invokeERNS_6WorkerEPNS_4NodeE
   fun:_ZN2tf8Executor13_exploit_taskERNS_6WorkerERPNS_4NodeE
   fun:_ZZN2tf8Executor6_spawnEmSt10shared_ptrINS_15WorkerInterfaceEEENKUlvE_clEv
   fun:_ZSt13__invoke_implIvZN2tf8Executor6_spawnEmSt10shared_ptrINS0_15WorkerInterfaceEEEUlvE_JEET_St14__invoke_otherOT0_DpOT1_
   fun:_ZSt8__invokeIZN2tf8Executor6_spawnEmSt10shared_ptrINS0_15WorkerInterfaceEEEUlvE_JEENSt15__invoke_resultIT_JDpT0_EE4typeEOS7_DpOS8_
   fun:_ZNSt6thread8_InvokerISt5tupleIJZN2tf8Executor6_spawnEmSt10shared_ptrINS2_15WorkerInterfaceEEEUlvE_EEE9_M_invokeIJLm0EEEEvSt12_Index_tupleIJXspT_EEE
}
{
   <insert_a_suppression_name_here>
   Helgrind:Race
   fun:_ZZN4mpcf15parallel_reduceIN9__gnu_cxx17__normal_iteratorIPKNS_3PcfIddEESt6vectorIS4_SaIS4_EEEEEENSt15iterator_traitsIT_E10value_typeESC_SC_St8functionIFNSE_10value_typeERKNSE_14rectangle_typeEEEmRNS_8ExecutorEENKUlvE_clEv
   fun:_ZSt13__invoke_implIvRZN4mpcf15parallel_reduceIN9__gnu_cxx17__normal_iteratorIPKNS0_3PcfIddEESt6vectorIS5_SaIS5_EEEEEENSt15iterator_traitsIT_E10value_typeESD_SD_St8functionIFNSF_10value_typeERKNSF_14rectangle_typeEEEmRNS0_8ExecutorEEUlvE_JEESD_St14__invoke_otherOT0_DpOT1_
   fun:_ZSt10__invoke_rIvRZN4mpcf15parallel_reduceIN9__gnu_cxx17__normal_iteratorIPKNS0_3PcfIddEESt6vectorIS5_SaIS5_EEEEEENSt15iterator_traitsIT_E10value_typeESD_SD_St8functionIFNSF_10value_typeERKNSF_14rectangle_typeEEEmRNS0_8ExecutorEEUlvE_JEENSt9enable_ifIX16is_invocable_r_vISD_T0_DpT1_EESD_E4typeEOSS_DpOST_
   fun:_ZNSt17_Function_handlerIFvvEZN4mpcf15parallel_reduceIN9__gnu_cxx17__normal_iteratorIPKNS1_3PcfIddEESt6vectorIS6_SaIS6_EEEEEENSt15iterator_traitsIT_E10value_typeESE_SE_St8functionIFNSG_10value_typeERKNSG_14rectangle_typeEEEmRNS1_8ExecutorEEUlvE_E9_M_invokeERKSt9_Any_data
   fun:_ZNKSt8functionIFvvEEclEv
   fun:_ZN2tf8Executor19_invoke_static_taskERNS_6WorkerEPNS_4NodeE
   fun:_ZN2tf8Executor7_invokeERNS_6WorkerEPNS_4NodeE
   fun:_ZN2tf8Executor13_exploit_taskERNS_6WorkerERPNS_4NodeE
   fun:_ZZN2tf8Executor6_spawnEmSt10shared_ptrINS_15WorkerInterfaceEEENKUlvE_clEv
   fun:_ZSt13__invoke_implIvZN2tf8Executor6_spawnEmSt10shared_ptrINS0_15WorkerInterfaceEEEUlvE_JEET_St14__invoke_otherOT0_DpOT1_
   fun:_ZSt8__invokeIZN2tf8Executor6_spawnEmSt10shared_ptrINS0_15WorkerInterfaceEEEUlvE_JEENSt15__invoke_resultIT_JDpT0_EE4typeEOS7_DpOS8_
   fun:_ZNSt6thread8_InvokerISt5tupleIJZN2tf8Executor6_spawnEmSt10shared_ptrINS2_15WorkerInterfaceEEEUlvE_EEE9_M_invokeIJLm0EEEEvSt12_Index_tupleIJXspT_EEE
}
{
   <insert_a_suppression_name_here>
   Helgrind:Race
   fun:_ZNSt6vectorIN4mpcf11AccumulatorINS0_3PcfIddEEEESaIS4_EEixEm
   fun:_ZZN4mpcf15parallel_reduceIN9__gnu_cxx17__normal_iteratorIPKNS_3PcfIddEESt6vectorIS4_SaIS4_EEEEEENSt15iterator_traitsIT_E10value_typeESC_SC_St8functionIFNSE_10value_typeERKNSE_14rectangle_typeEEEmRNS_8ExecutorEENKUlvE_clEv
   fun:_ZSt13__invoke_implIvRZN4mpcf15parallel_reduceIN9__gnu_cxx17__normal_iteratorIPKNS0_3PcfIddEESt6vectorIS5_SaIS5_EEEEEENSt15iterator_traitsIT_E10value_typeESD_SD_St8functionIFNSF_10value_typeERKNSF_14rectangle_typeEEEmRNS0_8ExecutorEEUlvE_JEESD_St14__invoke_otherOT0_DpOT1_
   fun:_ZSt10__invoke_rIvRZN4mpcf15parallel_reduceIN9__gnu_cxx17__normal_iteratorIPKNS0_3PcfIddEESt6vectorIS5_SaIS5_EEEEEENSt15iterator_traitsIT_E10value_typeESD_SD_St8functionIFNSF_10value_typeERKNSF_14rectangle_typeEEEmRNS0_8ExecutorEEUlvE_JEENSt9enable_ifIX16is_invocable_r_vISD_T0_DpT1_EESD_E4typeEOSS_DpOST_
   fun:_ZNSt17_Function_handlerIFvvEZN4mpcf15parallel_reduceIN9__gnu_cxx17__normal_iteratorIPKNS1_3PcfIddEESt6vectorIS6_SaIS6_EEEEEENSt15iterator_traitsIT_E10value_typeESE_SE_St8functionIFNSG_10value_typeERKNSG_14rectangle_typeEEEmRNS1_8ExecutorEEUlvE_E9_M_invokeERKSt9_Any_data
   fun:_ZNKSt8functionIFvvEEclEv
   fun:_ZN2tf8Executor19_invoke_static_taskERNS_6WorkerEPNS_4NodeE
   fun:_ZN2tf8Executor7_invokeERNS_6WorkerEPNS_4NodeE
   fun:_ZN2tf8Executor13_exploit_taskERNS_6WorkerERPNS_4NodeE
   fun:_ZZN2tf8Executor6_spawnEmSt10shared_ptrINS_15WorkerInterfaceEEENKUlvE_clEv
   fun:_ZSt13__invoke_implIvZN2tf8Executor6_spawnEmSt10shared_ptrINS0_15WorkerInterfaceEEEUlvE_JEET_St14__invoke_otherOT0_DpOT1_
   fun:_ZSt8__invokeIZN2tf8Executor6_spawnEmSt10shared_ptrINS0_15WorkerInterfaceEEEUlvE_JEENSt15__invoke_resultIT_JDpT0_EE4typeEOS7_DpOS8_
}
{
   <insert_a_suppression_name_here>
   Helgrind:Race
   fun:_ZNKSt6vectorIN4mpcf5PointIddEESaIS2_EE4sizeEv
   fun:_ZNSt6vectorIN4mpcf5PointIddEESaIS2_EEaSERKS4_
   fun:_ZN4mpcf11AccumulatorINS_3PcfIddEEEpLERKS2_
   fun:_ZZN4mpcf15parallel_reduceIN9__gnu_cxx17__normal_iteratorIPKNS_3PcfIddEESt6vectorIS4_SaIS4_EEEEEENSt15iterator_traitsIT_E10value_typeESC_SC_St8functionIFNSE_10value_typeERKNSE_14rectangle_typeEEEmRNS_8ExecutorEENKUlvE_clEv
   fun:_ZSt13__invoke_implIvRZN4mpcf15parallel_reduceIN9__gnu_cxx17__normal_iteratorIPKNS0_3PcfIddEESt6vectorIS5_SaIS5_EEEEEENSt15iterator_traitsIT_E10value_typeESD_SD_St8functionIFNSF_10value_typeERKNSF_14rectangle_typeEEEmRNS0_8ExecutorEEUlvE_JEESD_St14__invoke_otherOT0_DpOT1_
   fun:_ZSt10__invoke_rIvRZN4mpcf15parallel_reduceIN9__gnu_cxx17__normal_iteratorIPKNS0_3PcfIddEESt6vectorIS5_SaIS5_EEEEEENSt15iterator_traitsIT_E10value_typeESD_SD_St8functionIFNSF_10value_typeERKNSF_14rectangle_typeEEEmRNS0_8ExecutorEEUlvE_JEENSt9enable_ifIX16is_invocable_r_vISD_T0_DpT1_EESD_E4typeEOSS_DpOST_
   fun:_ZNSt17_Function_handlerIFvvEZN4mpcf15parallel_reduceIN9__gnu_cxx17__normal_iteratorIPKNS1_3PcfIddEESt6vectorIS6_SaIS6_EEEEEENSt15iterator_traitsIT_E10value_typeESE_SE_St8functionIFNSG_10value_typeERKNSG_14rectangle_typeEEEmRNS1_8ExecutorEEUlvE_E9_M_invokeERKSt9_Any_data
   fun:_ZNKSt8functionIFvvEEclEv
   fun:_ZN2tf8Executor19_invoke_static_taskERNS_6WorkerEPNS_4NodeE
   fun:_ZN2tf8Executor7_invokeERNS_6WorkerEPNS_4NodeE
   fun:_ZN2tf8Executor13_exploit_taskERNS_6WorkerERPNS_4NodeE
   fun:_ZZN2tf8Executor6_spawnEmSt10shared_ptrINS_15WorkerInterfaceEEENKUlvE_clEv
}
{
   <insert_a_suppression_name_here>
   Helgrind:Race
   fun:_ZNKSt6vectorIN4mpcf5PointIddEESaIS2_EE4sizeEv
   fun:_ZNSt6vectorIN4mpcf5PointIddEESaIS2_EEaSERKS4_
   fun:_ZN4mpcf11AccumulatorINS_3PcfIddEEEpLERKS2_
   fun:_ZZN4mpcf15parallel_reduceIN9__gnu_cxx17__normal_iteratorIPKNS_3PcfIddEESt6vectorIS4_SaIS4_EEEEEENSt15iterator_traitsIT_E10value_typeESC_SC_St8functionIFNSE_10value_typeERKNSE_14rectangle_typeEEEmRNS_8ExecutorEENKUlvE_clEv
   fun:_ZSt13__invoke_implIvRZN4mpcf15parallel_reduceIN9__gnu_cxx17__normal_iteratorIPKNS0_3PcfIddEESt6vectorIS5_SaIS5_EEEEEENSt15iterator_traitsIT_E10value_typeESD_SD_St8functionIFNSF_10value_typeERKNSF_14rectangle_typeEEEmRNS0_8ExecutorEEUlvE_JEESD_St14__invoke_otherOT0_DpOT1_
   fun:_ZSt10__invoke_rIvRZN4mpcf15parallel_reduceIN9__gnu_cxx17__normal_iteratorIPKNS0_3PcfIddEESt6vectorIS5_SaIS5_EEEEEENSt15iterator_traitsIT_E10value_typeESD_SD_St8functionIFNSF_10value_typeERKNSF_14rectangle_typeEEEmRNS0_8ExecutorEEUlvE_JEENSt9enable_ifIX16is_invocable_r_vISD_T0_DpT1_EESD_E4typeEOSS_DpOST_
   fun:_ZNSt17_Function_handlerIFvvEZN4mpcf15parallel_reduceIN9__gnu_cxx17__normal_iteratorIPKNS1_3PcfIddEESt6vectorIS6_SaIS6_EEEEEENSt15iterator_traitsIT_E10value_typeESE_SE_St8functionIFNSG_10value_typeERKNSG_14rectangle_typeEEEmRNS1_8ExecutorEEUlvE_E9_M_invokeERKSt9_Any_data
   fun:_ZNKSt8functionIFvvEEclEv
   fun:_ZN2tf8Executor19_invoke_static_taskERNS_6WorkerEPNS_4NodeE
   fun:_ZN2tf8Executor7_invokeERNS_6WorkerEPNS_4NodeE
   fun:_ZN2tf8Executor13_exploit_taskERNS_6WorkerERPNS_4NodeE
   fun:_ZZN2tf8Executor6_spawnEmSt10shared_ptrINS_15WorkerInterfaceEEENKUlvE_clEv
}
{
   <insert_a_suppression_name_here>
   Helgrind:Race
   fun:_ZSt10_ConstructIN4mpcf5PointIddEEJRKS2_EEvPT_DpOT0_
   fun:_ZSt16__do_uninit_copyIN9__gnu_cxx17__normal_iteratorIPKN4mpcf5PointIddEESt6vectorIS4_SaIS4_EEEEPS4_ET0_T_SD_SC_
   fun:_ZNSt20__uninitialized_copyILb0EE13__uninit_copyIN9__gnu_cxx17__normal_iteratorIPKN4mpcf5PointIddEESt6vectorIS6_SaIS6_EEEEPS6_EET0_T_SF_SE_
   fun:_ZSt18uninitialized_copyIN9__gnu_cxx17__normal_iteratorIPKN4mpcf5PointIddEESt6vectorIS4_SaIS4_EEEEPS4_ET0_T_SD_SC_
   fun:_ZSt22__uninitialized_copy_aIN9__gnu_cxx17__normal_iteratorIPKN4mpcf5PointIddEESt6vectorIS4_SaIS4_EEEEPS4_S4_ET0_T_SD_SC_RSaIT1_E
   fun:_ZNSt6vectorIN4mpcf5PointIddEESaIS2_EE20_M_allocate_and_copyIN9__gnu_cxx17__normal_iteratorIPKS2_S4_EEEEPS2_mT_SC_
   fun:_ZNSt6vectorIN4mpcf5PointIddEESaIS2_EEaSERKS4_
   fun:_ZN4mpcf11AccumulatorINS_3PcfIddEEEpLERKS2_
   fun:_ZZN4mpcf15parallel_reduceIN9__gnu_cxx17__normal_iteratorIPKNS_3PcfIddEESt6vectorIS4_SaIS4_EEEEEENSt15iterator_traitsIT_E10value_typeESC_SC_St8functionIFNSE_10value_typeERKNSE_14rectangle_typeEEEmRNS_8ExecutorEENKUlvE_clEv
   fun:_ZSt13__invoke_implIvRZN4mpcf15parallel_reduceIN9__gnu_cxx17__normal_iteratorIPKNS0_3PcfIddEESt6vectorIS5_SaIS5_EEEEEENSt15iterator_traitsIT_E10value_typeESD_SD_St8functionIFNSF_10value_typeERKNSF_14rectangle_typeEEEmRNS0_8ExecutorEEUlvE_JEESD_St14__invoke_otherOT0_DpOT1_
   fun:_ZSt10__invoke_rIvRZN4mpcf15parallel_reduceIN9__gnu_cxx17__normal_iteratorIPKNS0_3PcfIddEESt6vectorIS5_SaIS5_EEEEEENSt15iterator_traitsIT_E10value_typeESD_SD_St8functionIFNSF_10value_typeERKNSF_14rectangle_typeEEEmRNS0_8ExecutorEEUlvE_JEENSt9enable_ifIX16is_invocable_r_vISD_T0_DpT1_EESD_E4typeEOSS_DpOST_
   fun:_ZNSt17_Function_handlerIFvvEZN4mpcf15parallel_reduceIN9__gnu_cxx17__normal_iteratorIPKNS1_3PcfIddEESt6vectorIS6_SaIS6_EEEEEENSt15iterator_traitsIT_E10value_typeESE_SE_St8functionIFNSG_10value_typeERKNSG_14rectangle_typeEEEmRNS1_8ExecutorEEUlvE_E9_M_invokeERKSt9_Any_data
}
{
   <insert_a_suppression_name_here>
   Helgrind:Race
   fun:_ZSt10_ConstructIN4mpcf5PointIddEEJRKS2_EEvPT_DpOT0_
   fun:_ZSt16__do_uninit_copyIN9__gnu_cxx17__normal_iteratorIPKN4mpcf5PointIddEESt6vectorIS4_SaIS4_EEEEPS4_ET0_T_SD_SC_
   fun:_ZNSt20__uninitialized_copyILb0EE13__uninit_copyIN9__gnu_cxx17__normal_iteratorIPKN4mpcf5PointIddEESt6vectorIS6_SaIS6_EEEEPS6_EET0_T_SF_SE_
   fun:_ZSt18uninitialized_copyIN9__gnu_cxx17__normal_iteratorIPKN4mpcf5PointIddEESt6vectorIS4_SaIS4_EEEEPS4_ET0_T_SD_SC_
   fun:_ZSt22__uninitialized_copy_aIN9__gnu_cxx17__normal_iteratorIPKN4mpcf5PointIddEESt6vectorIS4_SaIS4_EEEEPS4_S4_ET0_T_SD_SC_RSaIT1_E
   fun:_ZNSt6vectorIN4mpcf5PointIddEESaIS2_EE20_M_allocate_and_copyIN9__gnu_cxx17__normal_iteratorIPKS2_S4_EEEEPS2_mT_SC_
   fun:_ZNSt6vectorIN4mpcf5PointIddEESaIS2_EEaSERKS4_
   fun:_ZN4mpcf11AccumulatorINS_3PcfIddEEEpLERKS2_
   fun:_ZZN4mpcf15parallel_reduceIN9__gnu_cxx17__normal_iteratorIPKNS_3PcfIddEESt6vectorIS4_SaIS4_EEEEEENSt15iterator_traitsIT_E10value_typeESC_SC_St8functionIFNSE_10value_typeERKNSE_14rectangle_typeEEEmRNS_8ExecutorEENKUlvE_clEv
   fun:_ZSt13__invoke_implIvRZN4mpcf15parallel_reduceIN9__gnu_cxx17__normal_iteratorIPKNS0_3PcfIddEESt6vectorIS5_SaIS5_EEEEEENSt15iterator_traitsIT_E10value_typeESD_SD_St8functionIFNSF_10value_typeERKNSF_14rectangle_typeEEEmRNS0_8ExecutorEEUlvE_JEESD_St14__invoke_otherOT0_DpOT1_
   fun:_ZSt10__invoke_rIvRZN4mpcf15parallel_reduceIN9__gnu_cxx17__normal_iteratorIPKNS0_3PcfIddEESt6vectorIS5_SaIS5_EEEEEENSt15iterator_traitsIT_E10value_typeESD_SD_St8functionIFNSF_10value_typeERKNSF_14rectangle_typeEEEmRNS0_8ExecutorEEUlvE_JEENSt9enable_ifIX16is_invocable_r_vISD_T0_DpT1_EESD_E4typeEOSS_DpOST_
   fun:_ZNSt17_Function_handlerIFvvEZN4mpcf15parallel_reduceIN9__gnu_cxx17__normal_iteratorIPKNS1_3PcfIddEESt6vectorIS6_SaIS6_EEEEEENSt15iterator_traitsIT_E10value_typeESE_SE_St8functionIFNSG_10value_typeERKNSG_14rectangle_typeEEEmRNS1_8ExecutorEEUlvE_E9_M_invokeERKSt9_Any_data
}
{
   <insert_a_suppression_name_here>
   Helgrind:Race
   fun:_ZNKSt6vectorIN4mpcf5PointIddEESaIS2_EE4sizeEv
   fun:_ZN4mpcf11AccumulatorINS_3PcfIddEEE13combine_with_ERKSt6vectorINS_5PointIddEESaIS6_EE
   fun:_ZN4mpcf11AccumulatorINS_3PcfIddEEEpLERKS2_
   fun:_ZZN4mpcf15parallel_reduceIN9__gnu_cxx17__normal_iteratorIPKNS_3PcfIddEESt6vectorIS4_SaIS4_EEEEEENSt15iterator_traitsIT_E10value_typeESC_SC_St8functionIFNSE_10value_typeERKNSE_14rectangle_typeEEEmRNS_8ExecutorEENKUlvE_clEv
   fun:_ZSt13__invoke_implIvRZN4mpcf15parallel_reduceIN9__gnu_cxx17__normal_iteratorIPKNS0_3PcfIddEESt6vectorIS5_SaIS5_EEEEEENSt15iterator_traitsIT_E10value_typeESD_SD_St8functionIFNSF_10value_typeERKNSF_14rectangle_typeEEEmRNS0_8ExecutorEEUlvE_JEESD_St14__invoke_otherOT0_DpOT1_
   fun:_ZSt10__invoke_rIvRZN4mpcf15parallel_reduceIN9__gnu_cxx17__normal_iteratorIPKNS0_3PcfIddEESt6vectorIS5_SaIS5_EEEEEENSt15iterator_traitsIT_E10value_typeESD_SD_St8functionIFNSF_10value_typeERKNSF_14rectangle_typeEEEmRNS0_8ExecutorEEUlvE_JEENSt9enable_ifIX16is_invocable_r_vISD_T0_DpT1_EESD_E4typeEOSS_DpOST_
   fun:_ZNSt17_Function_handlerIFvvEZN4mpcf15parallel_reduceIN9__gnu_cxx17__normal_iteratorIPKNS1_3PcfIddEESt6vectorIS6_SaIS6_EEEEEENSt15iterator_traitsIT_E10value_typeESE_SE_St8functionIFNSG_10value_typeERKNSG_14rectangle_typeEEEmRNS1_8ExecutorEEUlvE_E9_M_invokeERKSt9_Any_data
   fun:_ZNKSt8functionIFvvEEclEv
   fun:_ZN2tf8Executor19_invoke_static_taskERNS_6WorkerEPNS_4NodeE
   fun:_ZN2tf8Executor7_invokeERNS_6WorkerEPNS_4NodeE
   fun:_ZN2tf8Executor13_exploit_taskERNS_6WorkerERPNS_4NodeE
   fun:_ZZN2tf8Executor6_spawnEmSt10shared_ptrINS_15WorkerInterfaceEEENKUlvE_clEv
}
{
   <insert_a_suppression_name_here>
   Helgrind:Race
   fun:_ZNKSt6vectorIN4mpcf5PointIddEESaIS2_EE4sizeEv
   fun:_ZN4mpcf11AccumulatorINS_3PcfIddEEE13combine_with_ERKSt6vectorINS_5PointIddEESaIS6_EE
   fun:_ZN4mpcf11AccumulatorINS_3PcfIddEEEpLERKS2_
   fun:_ZZN4mpcf15parallel_reduceIN9__gnu_cxx17__normal_iteratorIPKNS_3PcfIddEESt6vectorIS4_SaIS4_EEEEEENSt15iterator_traitsIT_E10value_typeESC_SC_St8functionIFNSE_10value_typeERKNSE_14rectangle_typeEEEmRNS_8ExecutorEENKUlvE_clEv
   fun:_ZSt13__invoke_implIvRZN4mpcf15parallel_reduceIN9__gnu_cxx17__normal_iteratorIPKNS0_3PcfIddEESt6vectorIS5_SaIS5_EEEEEENSt15iterator_traitsIT_E10value_typeESD_SD_St8functionIFNSF_10value_typeERKNSF_14rectangle_typeEEEmRNS0_8ExecutorEEUlvE_JEESD_St14__invoke_otherOT0_DpOT1_
   fun:_ZSt10__invoke_rIvRZN4mpcf15parallel_reduceIN9__gnu_cxx17__normal_iteratorIPKNS0_3PcfIddEESt6vectorIS5_SaIS5_EEEEEENSt15iterator_traitsIT_E10value_typeESD_SD_St8functionIFNSF_10value_typeERKNSF_14rectangle_typeEEEmRNS0_8ExecutorEEUlvE_JEENSt9enable_ifIX16is_invocable_r_vISD_T0_DpT1_EESD_E4typeEOSS_DpOST_
   fun:_ZNSt17_Function_handlerIFvvEZN4mpcf15parallel_reduceIN9__gnu_cxx17__normal_iteratorIPKNS1_3PcfIddEESt6vectorIS6_SaIS6_EEEEEENSt15iterator_traitsIT_E10value_typeESE_SE_St8functionIFNSG_10value_typeERKNSG_14rectangle_typeEEEmRNS1_8ExecutorEEUlvE_E9_M_invokeERKSt9_Any_data
   fun:_ZNKSt8functionIFvvEEclEv
   fun:_ZN2tf8Executor19_invoke_static_taskERNS_6WorkerEPNS_4NodeE
   fun:_ZN2tf8Executor7_invokeERNS_6WorkerEPNS_4NodeE
   fun:_ZN2tf8Executor13_exploit_taskERNS_6WorkerERPNS_4NodeE
   fun:_ZZN2tf8Executor6_spawnEmSt10shared_ptrINS_15WorkerInterfaceEEENKUlvE_clEv
}
{
   <insert_a_suppression_name_here>
   Helgrind:Race
   fun:_ZZN4mpcf26max_time_iterator_prior_toIN9__gnu_cxx17__normal_iteratorIPKNS_5PointIddEESt6vectorIS4_SaIS4_EEEEEET_SB_SB_NSt15iterator_traitsISB_E10value_type9time_typeEENKUldRS5_E_clEdSG_
   fun:_ZN9__gnu_cxx5__ops14_Val_comp_iterIZN4mpcf26max_time_iterator_prior_toINS_17__normal_iteratorIPKNS2_5PointIddEESt6vectorIS6_SaIS6_EEEEEET_SD_SD_NSt15iterator_traitsISD_E10value_type9time_typeEEUldRS7_E_EclIKdSC_EEbRSD_T0_
   fun:_ZSt13__upper_boundIN9__gnu_cxx17__normal_iteratorIPKN4mpcf5PointIddEESt6vectorIS4_SaIS4_EEEEdNS0_5__ops14_Val_comp_iterIZNS2_26max_time_iterator_prior_toISA_EET_SE_SE_NSt15iterator_traitsISE_E10value_type9time_typeEEUldRS5_E_EEESE_SE_SE_RKT0_T1_
   fun:_ZSt11upper_boundIN9__gnu_cxx17__normal_iteratorIPKN4mpcf5PointIddEESt6vectorIS4_SaIS4_EEEEdZNS2_26max_time_iterator_prior_toISA_EET_SC_SC_NSt15iterator_traitsISC_E10value_type9time_typeEEUldRS5_E_ESC_SC_SC_RKT0_T1_
   fun:_ZN4mpcf26max_time_iterator_prior_toIN9__gnu_cxx17__normal_iteratorIPKNS_5PointIddEESt6vectorIS4_SaIS4_EEEEEET_SB_SB_NSt15iterator_traitsISB_E10value_type9time_typeE
   fun:_ZN4mpcf18iterate_rectanglesINS_5PointIddEEZNS_11AccumulatorINS_3PcfIddEEE13combine_with_ERKSt6vectorIS2_SaIS2_EEEUlRKNS_9RectangleIddEEE_EEvRKS7_IT_SaISH_EESL_T0_NSH_9time_typeESN_
   fun:_ZN4mpcf11AccumulatorINS_3PcfIddEEE13combine_with_ERKSt6vectorINS_5PointIddEESaIS6_EE
   fun:_ZN4mpcf11AccumulatorINS_3PcfIddEEEpLERKS2_
   fun:_ZZN4mpcf15parallel_reduceIN9__gnu_cxx17__normal_iteratorIPKNS_3PcfIddEESt6vectorIS4_SaIS4_EEEEEENSt15iterator_traitsIT_E10value_typeESC_SC_St8functionIFNSE_10value_typeERKNSE_14rectangle_typeEEEmRNS_8ExecutorEENKUlvE_clEv
   fun:_ZSt13__invoke_implIvRZN4mpcf15parallel_reduceIN9__gnu_cxx17__normal_iteratorIPKNS0_3PcfIddEESt6vectorIS5_SaIS5_EEEEEENSt15iterator_traitsIT_E10value_typeESD_SD_St8functionIFNSF_10value_typeERKNSF_14rectangle_typeEEEmRNS0_8ExecutorEEUlvE_JEESD_St14__invoke_otherOT0_DpOT1_
   fun:_ZSt10__invoke_rIvRZN4mpcf15parallel_reduceIN9__gnu_cxx17__normal_iteratorIPKNS0_3PcfIddEESt6vectorIS5_SaIS5_EEEEEENSt15iterator_traitsIT_E10value_typeESD_SD_St8functionIFNSF_10value_typeERKNSF_14rectangle_typeEEEmRNS0_8ExecutorEEUlvE_JEENSt9enable_ifIX16is_invocable_r_vISD_T0_DpT1_EESD_E4typeEOSS_DpOST_
   fun:_ZNSt17_Function_handlerIFvvEZN4mpcf15parallel_reduceIN9__gnu_cxx17__normal_iteratorIPKNS1_3PcfIddEESt6vectorIS6_SaIS6_EEEEEENSt15iterator_traitsIT_E10value_typeESE_SE_St8functionIFNSG_10value_typeERKNSG_14rectangle_typeEEEmRNS1_8ExecutorEEUlvE_E9_M_invokeERKSt9_Any_data
}
{
   <insert_a_suppression_name_here>
   Helgrind:Race
   fun:_ZN4mpcf18iterate_rectanglesINS_5PointIddEEZNS_11AccumulatorINS_3PcfIddEEE13combine_with_ERKSt6vectorIS2_SaIS2_EEEUlRKNS_9RectangleIddEEE_EEvRKS7_IT_SaISH_EESL_T0_NSH_9time_typeESN_
   fun:_ZN4mpcf11AccumulatorINS_3PcfIddEEE13combine_with_ERKSt6vectorINS_5PointIddEESaIS6_EE
   fun:_ZN4mpcf11AccumulatorINS_3PcfIddEEEpLERKS2_
   fun:_ZZN4mpcf15parallel_reduceIN9__gnu_cxx17__normal_iteratorIPKNS_3PcfIddEESt6vectorIS4_SaIS4_EEEEEENSt15iterator_traitsIT_E10value_typeESC_SC_St8functionIFNSE_10value_typeERKNSE_14rectangle_typeEEEmRNS_8ExecutorEENKUlvE_clEv
   fun:_ZSt13__invoke_implIvRZN4mpcf15parallel_reduceIN9__gnu_cxx17__normal_iteratorIPKNS0_3PcfIddEESt6vectorIS5_SaIS5_EEEEEENSt15iterator_traitsIT_E10value_typeESD_SD_St8functionIFNSF_10value_typeERKNSF_14rectangle_typeEEEmRNS0_8ExecutorEEUlvE_JEESD_St14__invoke_otherOT0_DpOT1_
   fun:_ZSt10__invoke_rIvRZN4mpcf15parallel_reduceIN9__gnu_cxx17__normal_iteratorIPKNS0_3PcfIddEESt6vectorIS5_SaIS5_EEEEEENSt15iterator_traitsIT_E10value_typeESD_SD_St8functionIFNSF_10value_typeERKNSF_14rectangle_typeEEEmRNS0_8ExecutorEEUlvE_JEENSt9enable_ifIX16is_invocable_r_vISD_T0_DpT1_EESD_E4typeEOSS_DpOST_
   fun:_ZNSt17_Function_handlerIFvvEZN4mpcf15parallel_reduceIN9__gnu_cxx17__normal_iteratorIPKNS1_3PcfIddEESt6vectorIS6_SaIS6_EEEEEENSt15iterator_traitsIT_E10value_typeESE_SE_St8functionIFNSG_10value_typeERKNSG_14rectangle_typeEEEmRNS1_8ExecutorEEUlvE_E9_M_invokeERKSt9_Any_data
   fun:_ZNKSt8functionIFvvEEclEv
   fun:_ZN2tf8Executor19_invoke_static_taskERNS_6WorkerEPNS_4NodeE
   fun:_ZN2tf8Executor7_invokeERNS_6WorkerEPNS_4NodeE
   fun:_ZN2tf8Executor13_exploit_taskERNS_6WorkerERPNS_4NodeE
   fun:_ZZN2tf8Executor6_spawnEmSt10shared_ptrINS_15WorkerInterfaceEEENKUlvE_clEv
}
{
   <insert_a_suppression_name_here>
   Helgrind:Race
   fun:_ZNSt6vectorIN4mpcf5PointIddEESaIS2_EED1Ev
   fun:_ZN4mpcf11AccumulatorINS_3PcfIddEEED1Ev
   fun:_ZSt10destroy_atIN4mpcf11AccumulatorINS0_3PcfIddEEEEEvPT_
   fun:_ZSt8_DestroyIN4mpcf11AccumulatorINS0_3PcfIddEEEEEvPT_
   fun:_ZNSt12_Destroy_auxILb0EE9__destroyIPN4mpcf11AccumulatorINS2_3PcfIddEEEEEEvT_S8_
   fun:_ZSt8_DestroyIPN4mpcf11AccumulatorINS0_3PcfIddEEEEEvT_S6_
   fun:_Destroy<mpcf::Accumulator<mpcf::Pcf<double, double> >*, mpcf::Accumulator<mpcf::Pcf<double, double> > >
   fun:_ZNSt6vectorIN4mpcf11AccumulatorINS0_3PcfIddEEEESaIS4_EED1Ev
   fun:_ZN4mpcf15parallel_reduceIN9__gnu_cxx17__normal_iteratorIPKNS_3PcfIddEESt6vectorIS4_SaIS4_EEEEEENSt15iterator_traitsIT_E10value_typeESC_SC_St8functionIFNSE_10value_typeERKNSE_14rectangle_typeEEEmRNS_8ExecutorE
   fun:_ZN4mpcf7averageIddEENS_3PcfIT_T0_EERKSt6vectorIS4_SaIS4_EEm
   fun:_ZN12_GLOBAL__N_150PcfAlgebraAndNormsTest_AverageForSmallExample_TestIN4mpcf3PcfIddEEE8TestBodyEv
   fun:_ZN7testing8internal38HandleSehExceptionsInMethodIfSupportedINS_4TestEvEET0_PT_MS4_FS3_vEPKc
   fun:_ZN7testing8internal35HandleExceptionsInMethodIfSupportedINS_4TestEvEET0_PT_MS4_FS3_vEPKc
}
{
   <insert_a_suppression_name_here>
   Helgrind:Race
   fun:_ZNSt6vectorIN4mpcf5PointIddEESaIS2_EED1Ev
   fun:_ZN4mpcf11AccumulatorINS_3PcfIddEEED1Ev
   fun:_ZSt10destroy_atIN4mpcf11AccumulatorINS0_3PcfIddEEEEEvPT_
   fun:_ZSt8_DestroyIN4mpcf11AccumulatorINS0_3PcfIddEEEEEvPT_
   fun:_ZNSt12_Destroy_auxILb0EE9__destroyIPN4mpcf11AccumulatorINS2_3PcfIddEEEEEEvT_S8_
   fun:_ZSt8_DestroyIPN4mpcf11AccumulatorINS0_3PcfIddEEEEEvT_S6_
   fun:_Destroy<mpcf::Accumulator<mpcf::Pcf<double, double> >*, mpcf::Accumulator<mpcf::Pcf<double, double> > >
   fun:_ZNSt6vectorIN4mpcf11AccumulatorINS0_3PcfIddEEEESaIS4_EED1Ev
   fun:_ZN4mpcf15parallel_reduceIN9__gnu_cxx17__normal_iteratorIPKNS_3PcfIddEESt6vectorIS4_SaIS4_EEEEEENSt15iterator_traitsIT_E10value_typeESC_SC_St8functionIFNSE_10value_typeERKNSE_14rectangle_typeEEEmRNS_8ExecutorE
   fun:_ZN4mpcf7averageIddEENS_3PcfIT_T0_EERKSt6vectorIS4_SaIS4_EEm
   fun:_ZN12_GLOBAL__N_150PcfAlgebraAndNormsTest_AverageForSmallExample_TestIN4mpcf3PcfIddEEE8TestBodyEv
   fun:_ZN7testing8internal38HandleSehExceptionsInMethodIfSupportedINS_4TestEvEET0_PT_MS4_FS3_vEPKc
   fun:_ZN7testing8internal35HandleExceptionsInMethodIfSupportedINS_4TestEvEET0_PT_MS4_FS3_vEPKc
}
{
   <insert_a_suppression_name_here>
   Helgrind:Race
   fun:_ZNSt14_Function_baseD1Ev
   obj:*
   fun:_ZN4mpcf7averageIddEENS_3PcfIT_T0_EERKSt6vectorIS4_SaIS4_EEm
   fun:_ZN12_GLOBAL__N_150PcfAlgebraAndNormsTest_AverageForSmallExample_TestIN4mpcf3PcfIddEEE8TestBodyEv
   fun:_ZN7testing8internal38HandleSehExceptionsInMethodIfSupportedINS_4TestEvEET0_PT_MS4_FS3_vEPKc
   fun:_ZN7testing8internal35HandleExceptionsInMethodIfSupportedINS_4TestEvEET0_PT_MS4_FS3_vEPKc
   fun:_ZN7testing4Test3RunEv
   fun:_ZN7testing8TestInfo3RunEv
   fun:_ZN7testing9TestSuite3RunEv
   fun:_ZN7testing8internal12UnitTestImpl11RunAllTestsEv
   fun:_ZN7testing8internal38HandleSehExceptionsInMethodIfSupportedINS0_12UnitTestImplEbEET0_PT_MS4_FS3_vEPKc
   fun:_ZN7testing8internal35HandleExceptionsInMethodIfSupportedINS0_12UnitTestImplEbEET0_PT_MS4_FS3_vEPKc
}
{
   <insert_a_suppression_name_here>
   Helgrind:Race
   fun:_ZNSt17_Function_handlerIFdRKN4mpcf9RectangleIddEEEZNS0_7averageIddEENS0_3PcfIT_T0_EERKSt6vectorISA_SaISA_EEmEUlS4_E_E10_M_managerERSt9_Any_dataRKSI_St18_Manager_operation
   obj:*
   fun:_ZNSt8functionIFdRKN4mpcf9RectangleIddEEEED1Ev
   fun:_ZN4mpcf7averageIddEENS_3PcfIT_T0_EERKSt6vectorIS4_SaIS4_EEm
   fun:_ZN12_GLOBAL__N_150PcfAlgebraAndNormsTest_AverageForSmallExample_TestIN4mpcf3PcfIddEEE8TestBodyEv
   fun:_ZN7testing8internal38HandleSehExceptionsInMethodIfSupportedINS_4TestEvEET0_PT_MS4_FS3_vEPKc
   fun:_ZN7testing8internal35HandleExceptionsInMethodIfSupportedINS_4TestEvEET0_PT_MS4_FS3_vEPKc
   fun:_ZN7testing4Test3RunEv
   fun:_ZN7testing8TestInfo3RunEv
   fun:_ZN7testing9TestSuite3RunEv
   fun:_ZN7testing8internal12UnitTestImpl11RunAllTestsEv
   fun:_ZN7testing8internal38HandleSehExceptionsInMethodIfSupportedINS0_12UnitTestImplEbEET0_PT_MS4_FS3_vEPKc
}
{
   <insert_a_suppression_name_here>
   Helgrind:Race
   fun:_ZNSt17_Function_handlerIFdRKN4mpcf9RectangleIddEEEZNS0_7averageIddEENS0_3PcfIT_T0_EERKSt6vectorISA_SaISA_EEmEUlS4_E_E10_M_managerERSt9_Any_dataRKSI_St18_Manager_operation
   fun:_ZNSt14_Function_baseD1Ev
   fun:_ZNSt8functionIFdRKN4mpcf9RectangleIddEEEED1Ev
   fun:_ZN4mpcf7averageIddEENS_3PcfIT_T0_EERKSt6vectorIS4_SaIS4_EEm
   fun:_ZN12_GLOBAL__N_150PcfAlgebraAndNormsTest_AverageForSmallExample_TestIN4mpcf3PcfIddEEE8TestBodyEv
   fun:_ZN7testing8internal38HandleSehExceptionsInMethodIfSupportedINS_4TestEvEET0_PT_MS4_FS3_vEPKc
   fun:_ZN7testing8internal35HandleExceptionsInMethodIfSupportedINS_4TestEvEET0_PT_MS4_FS3_vEPKc
   fun:_ZN7testing4Test3RunEv
   fun:_ZN7testing8TestInfo3RunEv
   fun:_ZN7testing9TestSuite3RunEv
   fun:_ZN7testing8internal12UnitTestImpl11RunAllTestsEv
   fun:_ZN7testing8internal38HandleSehExceptionsInMethodIfSupportedINS0_12UnitTestImplEbEET0_PT_MS4_FS3_vEPKc
}
{
   <insert_a_suppression_name_here>
   Helgrind:Race
   fun:_ZNSt17_Function_handlerIFdRKN4mpcf9RectangleIddEEEZNS0_7averageIddEENS0_3PcfIT_T0_EERKSt6vectorISA_SaISA_EEmEUlS4_E_E10_M_managerERSt9_Any_dataRKSI_St18_Manager_operation
   fun:_ZNSt14_Function_baseD1Ev
   fun:_ZNSt8functionIFdRKN4mpcf9RectangleIddEEEED1Ev
   fun:_ZN4mpcf7averageIddEENS_3PcfIT_T0_EERKSt6vectorIS4_SaIS4_EEm
   fun:_ZN12_GLOBAL__N_150PcfAlgebraAndNormsTest_AverageForSmallExample_TestIN4mpcf3PcfIddEEE8TestBodyEv
   fun:_ZN7testing8internal38HandleSehExceptionsInMethodIfSupportedINS_4TestEvEET0_PT_MS4_FS3_vEPKc
   fun:_ZN7testing8internal35HandleExceptionsInMethodIfSupportedINS_4TestEvEET0_PT_MS4_FS3_vEPKc
   fun:_ZN7testing4Test3RunEv
   fun:_ZN7testing8TestInfo3RunEv
   fun:_ZN7testing9TestSuite3RunEv
   fun:_ZN7testing8internal12UnitTestImpl11RunAllTestsEv
   fun:_ZN7testing8internal38HandleSehExceptionsInMethodIfSupportedINS0_12UnitTestImplEbEET0_PT_MS4_FS3_vEPKc
}
{
   <insert_a_suppression_name_here>
   Helgrind:Race
   fun:_ZN4mpcf3PcfIddEC1ERKS1_
   obj:*
   fun:_ZN4mpcf7averageIddEENS_3PcfIT_T0_EERKSt6vectorIS4_SaIS4_EEm
   fun:_ZN12_GLOBAL__N_150PcfAlgebraAndNormsTest_AverageForSmallExample_TestIN4mpcf3PcfIddEEE8TestBodyEv
   fun:_ZN7testing8internal38HandleSehExceptionsInMethodIfSupportedINS_4TestEvEET0_PT_MS4_FS3_vEPKc
   fun:_ZN7testing8internal35HandleExceptionsInMethodIfSupportedINS_4TestEvEET0_PT_MS4_FS3_vEPKc
   fun:_ZN7testing4Test3RunEv
   fun:_ZN7testing8TestInfo3RunEv
   fun:_ZN7testing9TestSuite3RunEv
   fun:_ZN7testing8internal12UnitTestImpl11RunAllTestsEv
   fun:_ZN7testing8internal38HandleSehExceptionsInMethodIfSupportedINS0_12UnitTestImplEbEET0_PT_MS4_FS3_vEPKc
   fun:_ZN7testing8internal35HandleExceptionsInMethodIfSupportedINS0_12UnitTestImplEbEET0_PT_MS4_FS3_vEPKc
}
{
   <insert_a_suppression_name_here>
   Helgrind:Race
   fun:_ZNSt6vectorIN4mpcf5PointIddEESaIS2_EEC1ERKS4_
   obj:*
   fun:_ZN4mpcfdvIdddEENS_3PcfIT_T0_EERKS4_T1_
   fun:_ZN4mpcf7averageIddEENS_3PcfIT_T0_EERKSt6vectorIS4_SaIS4_EEm
   fun:_ZN12_GLOBAL__N_150PcfAlgebraAndNormsTest_AverageForSmallExample_TestIN4mpcf3PcfIddEEE8TestBodyEv
   fun:_ZN7testing8internal38HandleSehExceptionsInMethodIfSupportedINS_4TestEvEET0_PT_MS4_FS3_vEPKc
   fun:_ZN7testing8internal35HandleExceptionsInMethodIfSupportedINS_4TestEvEET0_PT_MS4_FS3_vEPKc
   fun:_ZN7testing4Test3RunEv
   fun:_ZN7testing8TestInfo3RunEv
   fun:_ZN7testing9TestSuite3RunEv
   fun:_ZN7testing8internal12UnitTestImpl11RunAllTestsEv
   fun:_ZN7testing8internal38HandleSehExceptionsInMethodIfSupportedINS0_12UnitTestImplEbEET0_PT_MS4_FS3_vEPKc
}
{
   <insert_a_suppression_name_here>
   Helgrind:Race
   fun:_ZNSt13__future_base13_State_baseV2D1Ev
   fun:_ZSt10destroy_atINSt13__future_base13_State_baseV2EEvPT_
   fun:_ZSt8_DestroyINSt13__future_base13_State_baseV2EEvPT_
   fun:destroy<std::__future_base::_State_baseV2>
   fun:_ZNSt23_Sp_counted_ptr_inplaceINSt13__future_base13_State_baseV2ESaIvELN9__gnu_cxx12_Lock_policyE2EE10_M_disposeEv
   fun:_ZNSt16_Sp_counted_baseILN9__gnu_cxx12_Lock_policyE2EE10_M_releaseEv
   fun:_ZNSt14__shared_countILN9__gnu_cxx12_Lock_policyE2EED1Ev
   fun:_ZNSt12__shared_ptrINSt13__future_base13_State_baseV2ELN9__gnu_cxx12_Lock_policyE2EED1Ev
   fun:_ZNSt10shared_ptrINSt13__future_base13_State_baseV2EED1Ev
   fun:_ZNSt7promiseIvED1Ev
   fun:_ZN2tf8TopologyD1Ev
   fun:_ZSt10destroy_atIN2tf8TopologyEEvPT_
   fun:_ZSt8_DestroyIN2tf8TopologyEEvPT_
}
{
   <insert_a_suppression_name_here>
   Helgrind:Race
   fun:_ZNSt14_Function_base13_Base_managerIZN2tf19make_transform_taskIN9__gnu_cxx17__normal_iteratorIPN4mpcf3PcfIddEESt6vectorIS7_SaIS7_EEEESC_NS4_IPdS9_IdSaIdEEEEZNS5_16apply_functionalISC_SG_ZN12_GLOBAL__N_165PcfAlgebraAndNormsTest_ApplyFunctionalWithL1NormMultiplePcfs_TestIS7_E8TestBodyEvEUlRKS7_E_EEvT_SO_T0_T1_RNS5_8ExecutorEEUlRS7_E_NS1_17GuidedPartitionerINS1_21DefaultClosureWrapperEEELPv0EEEDaSO_SP_SQ_T2_T3_EUlRNS1_7RuntimeEE_E14_M_get_pointerERKSt9_Any_data
   fun:_ZNSt17_Function_handlerIFvRN2tf7RuntimeEEZNS0_19make_transform_taskIN9__gnu_cxx17__normal_iteratorIPN4mpcf3PcfIddEESt6vectorIS9_SaIS9_EEEESE_NS6_IPdSB_IdSaIdEEEEZNS7_16apply_functionalISE_SI_ZN12_GLOBAL__N_165PcfAlgebraAndNormsTest_ApplyFunctionalWithL1NormMultiplePcfs_TestIS9_E8TestBodyEvEUlRKS9_E_EEvT_SQ_T0_T1_RNS7_8ExecutorEEUlRS9_E_NS0_17GuidedPartitionerINS0_21DefaultClosureWrapperEEELPv0EEEDaSQ_SR_SS_T2_T3_EUlS2_E_E9_M_invokeERKSt9_Any_dataS2_
   fun:_ZNKSt8functionIFvRN2tf7RuntimeEEEclES2_
   fun:_ZN2tf8Executor25_invoke_runtime_task_implERNS_6WorkerEPNS_4NodeERSt8functionIFvRNS_7RuntimeEEE
   fun:_ZN2tf8Executor20_invoke_runtime_taskERNS_6WorkerEPNS_4NodeE
   fun:_ZN2tf8Executor7_invokeERNS_6WorkerEPNS_4NodeE
   fun:_ZN2tf8Executor13_exploit_taskERNS_6WorkerERPNS_4NodeE
   fun:_ZZN2tf8Executor6_spawnEmSt10shared_ptrINS_15WorkerInterfaceEEENKUlvE_clEv
   fun:_ZSt13__invoke_implIvZN2tf8Executor6_spawnEmSt10shared_ptrINS0_15WorkerInterfaceEEEUlvE_JEET_St14__invoke_otherOT0_DpOT1_
   fun:_ZSt8__invokeIZN2tf8Executor6_spawnEmSt10shared_ptrINS0_15WorkerInterfaceEEEUlvE_JEENSt15__invoke_resultIT_JDpT0_EE4typeEOS7_DpOS8_
   fun:_ZNSt6thread8_InvokerISt5tupleIJZN2tf8Executor6_spawnEmSt10shared_ptrINS2_15WorkerInterfaceEEEUlvE_EEE9_M_invokeIJLm0EEEEvSt12_Index_tupleIJXspT_EEE
   fun:_ZNSt6thread8_InvokerISt5tupleIJZN2tf8Executor6_spawnEmSt10shared_ptrINS2_15WorkerInterfaceEEEUlvE_EEEclEv
}
{
   <insert_a_suppression_name_here>
   Helgrind:Race
   fun:_ZZN2tf19make_transform_taskIN9__gnu_cxx17__normal_iteratorIPN4mpcf3PcfIddEESt6vectorIS5_SaIS5_EEEESA_NS2_IPdS7_IdSaIdEEEEZNS3_16apply_functionalISA_SE_ZN12_GLOBAL__N_165PcfAlgebraAndNormsTest_ApplyFunctionalWithL1NormMultiplePcfs_TestIS5_E8TestBodyEvEUlRKS5_E_EEvT_SM_T0_T1_RNS3_8ExecutorEEUlRS5_E_NS_17GuidedPartitionerINS_21DefaultClosureWrapperEEELPv0EEEDaSM_SN_SO_T2_T3_ENUlRNS_7RuntimeEE_clES10_
   fun:_ZSt13__invoke_implIvRZN2tf19make_transform_taskIN9__gnu_cxx17__normal_iteratorIPN4mpcf3PcfIddEESt6vectorIS6_SaIS6_EEEESB_NS3_IPdS8_IdSaIdEEEEZNS4_16apply_functionalISB_SF_ZN12_GLOBAL__N_165PcfAlgebraAndNormsTest_ApplyFunctionalWithL1NormMultiplePcfs_TestIS6_E8TestBodyEvEUlRKS6_E_EEvT_SN_T0_T1_RNS4_8ExecutorEEUlRS6_E_NS0_17GuidedPartitionerINS0_21DefaultClosureWrapperEEELPv0EEEDaSN_SO_SP_T2_T3_EUlRNS0_7RuntimeEE_JS11_EESN_St14__invoke_otherOSO_DpOT1_
   fun:_ZSt10__invoke_rIvRZN2tf19make_transform_taskIN9__gnu_cxx17__normal_iteratorIPN4mpcf3PcfIddEESt6vectorIS6_SaIS6_EEEESB_NS3_IPdS8_IdSaIdEEEEZNS4_16apply_functionalISB_SF_ZN12_GLOBAL__N_165PcfAlgebraAndNormsTest_ApplyFunctionalWithL1NormMultiplePcfs_TestIS6_E8TestBodyEvEUlRKS6_E_EEvT_SN_T0_T1_RNS4_8ExecutorEEUlRS6_E_NS0_17GuidedPartitionerINS0_21DefaultClosureWrapperEEELPv0EEEDaSN_SO_SP_T2_T3_EUlRNS0_7RuntimeEE_JS11_EENSt9enable_ifIX16is_invocable_r_vISN_SO_DpT1_EESN_E4typeEOSO_DpOS15_
   fun:_ZNSt17_Function_handlerIFvRN2tf7RuntimeEEZNS0_19make_transform_taskIN9__gnu_cxx17__normal_iteratorIPN4mpcf3PcfIddEESt6vectorIS9_SaIS9_EEEESE_NS6_IPdSB_IdSaIdEEEEZNS7_16apply_functionalISE_SI_ZN12_GLOBAL__N_165PcfAlgebraAndNormsTest_ApplyFunctionalWithL1NormMultiplePcfs_TestIS9_E8TestBodyEvEUlRKS9_E_EEvT_SQ_T0_T1_RNS7_8ExecutorEEUlRS9_E_NS0_17GuidedPartitionerINS0_21DefaultClosureWrapperEEELPv0EEEDaSQ_SR_SS_T2_T3_EUlS2_E_E9_M_invokeERKSt9_Any_dataS2_
   fun:_ZNKSt8functionIFvRN2tf7RuntimeEEEclES2_
   fun:_ZN2tf8Executor25_invoke_runtime_task_implERNS_6WorkerEPNS_4NodeERSt8functionIFvRNS_7RuntimeEEE
   fun:_ZN2tf8Executor20_invoke_runtime_taskERNS_6WorkerEPNS_4NodeE
   fun:_ZN2tf8Executor7_invokeERNS_6WorkerEPNS_4NodeE
   fun:_ZN2tf8Executor13_exploit_taskERNS_6WorkerERPNS_4NodeE
   fun:_ZZN2tf8Executor6_spawnEmSt10shared_ptrINS_15WorkerInterfaceEEENKUlvE_clEv
   fun:_ZSt13__invoke_implIvZN2tf8Executor6_spawnEmSt10shared_ptrINS0_15WorkerInterfaceEEEUlvE_JEET_St14__invoke_otherOT0_DpOT1_
   fun:_ZSt8__invokeIZN2tf8Executor6_spawnEmSt10shared_ptrINS0_15WorkerInterfaceEEEUlvE_JEENSt15__invoke_resultIT_JDpT0_EE4typeEOS7_DpOS8_
}
{
   <insert_a_suppression_name_here>
   Helgrind:Race
   fun:_ZZN2tf19make_transform_taskIN9__gnu_cxx17__normal_iteratorIPN4mpcf3PcfIddEESt6vectorIS5_SaIS5_EEEESA_NS2_IPdS7_IdSaIdEEEEZNS3_16apply_functionalISA_SE_ZN12_GLOBAL__N_165PcfAlgebraAndNormsTest_ApplyFunctionalWithL1NormMultiplePcfs_TestIS5_E8TestBodyEvEUlRKS5_E_EEvT_SM_T0_T1_RNS3_8ExecutorEEUlRS5_E_NS_17GuidedPartitionerINS_21DefaultClosureWrapperEEELPv0EEEDaSM_SN_SO_T2_T3_ENUlRNS_7RuntimeEE_clES10_
   fun:_ZSt13__invoke_implIvRZN2tf19make_transform_taskIN9__gnu_cxx17__normal_iteratorIPN4mpcf3PcfIddEESt6vectorIS6_SaIS6_EEEESB_NS3_IPdS8_IdSaIdEEEEZNS4_16apply_functionalISB_SF_ZN12_GLOBAL__N_165PcfAlgebraAndNormsTest_ApplyFunctionalWithL1NormMultiplePcfs_TestIS6_E8TestBodyEvEUlRKS6_E_EEvT_SN_T0_T1_RNS4_8ExecutorEEUlRS6_E_NS0_17GuidedPartitionerINS0_21DefaultClosureWrapperEEELPv0EEEDaSN_SO_SP_T2_T3_EUlRNS0_7RuntimeEE_JS11_EESN_St14__invoke_otherOSO_DpOT1_
   fun:_ZSt10__invoke_rIvRZN2tf19make_transform_taskIN9__gnu_cxx17__normal_iteratorIPN4mpcf3PcfIddEESt6vectorIS6_SaIS6_EEEESB_NS3_IPdS8_IdSaIdEEEEZNS4_16apply_functionalISB_SF_ZN12_GLOBAL__N_165PcfAlgebraAndNormsTest_ApplyFunctionalWithL1NormMultiplePcfs_TestIS6_E8TestBodyEvEUlRKS6_E_EEvT_SN_T0_T1_RNS4_8ExecutorEEUlRS6_E_NS0_17GuidedPartitionerINS0_21DefaultClosureWrapperEEELPv0EEEDaSN_SO_SP_T2_T3_EUlRNS0_7RuntimeEE_JS11_EENSt9enable_ifIX16is_invocable_r_vISN_SO_DpT1_EESN_E4typeEOSO_DpOS15_
   fun:_ZNSt17_Function_handlerIFvRN2tf7RuntimeEEZNS0_19make_transform_taskIN9__gnu_cxx17__normal_iteratorIPN4mpcf3PcfIddEESt6vectorIS9_SaIS9_EEEESE_NS6_IPdSB_IdSaIdEEEEZNS7_16apply_functionalISE_SI_ZN12_GLOBAL__N_165PcfAlgebraAndNormsTest_ApplyFunctionalWithL1NormMultiplePcfs_TestIS9_E8TestBodyEvEUlRKS9_E_EEvT_SQ_T0_T1_RNS7_8ExecutorEEUlRS9_E_NS0_17GuidedPartitionerINS0_21DefaultClosureWrapperEEELPv0EEEDaSQ_SR_SS_T2_T3_EUlS2_E_E9_M_invokeERKSt9_Any_dataS2_
   fun:_ZNKSt8functionIFvRN2tf7RuntimeEEEclES2_
   fun:_ZN2tf8Executor25_invoke_runtime_task_implERNS_6WorkerEPNS_4NodeERSt8functionIFvRNS_7RuntimeEEE
   fun:_ZN2tf8Executor20_invoke_runtime_taskERNS_6WorkerEPNS_4NodeE
   fun:_ZN2tf8Executor7_invokeERNS_6WorkerEPNS_4NodeE
   fun:_ZN2tf8Executor13_exploit_taskERNS_6WorkerERPNS_4NodeE
   fun:_ZZN2tf8Executor6_spawnEmSt10shared_ptrINS_15WorkerInterfaceEEENKUlvE_clEv
   fun:_ZSt13__invoke_implIvZN2tf8Executor6_spawnEmSt10shared_ptrINS0_15WorkerInterfaceEEEUlvE_JEET_St14__invoke_otherOT0_DpOT1_
   fun:_ZSt8__invokeIZN2tf8Executor6_spawnEmSt10shared_ptrINS0_15WorkerInterfaceEEEUlvE_JEENSt15__invoke_resultIT_JDpT0_EE4typeEOS7_DpOS8_
}
{
   <insert_a_suppression_name_here>
   Helgrind:Race
   fun:_ZZN2tf19make_transform_taskIN9__gnu_cxx17__normal_iteratorIPN4mpcf3PcfIddEESt6vectorIS5_SaIS5_EEEESA_NS2_IPdS7_IdSaIdEEEEZNS3_16apply_functionalISA_SE_ZN12_GLOBAL__N_165PcfAlgebraAndNormsTest_ApplyFunctionalWithL1NormMultiplePcfs_TestIS5_E8TestBodyEvEUlRKS5_E_EEvT_SM_T0_T1_RNS3_8ExecutorEEUlRS5_E_NS_17GuidedPartitionerINS_21DefaultClosureWrapperEEELPv0EEEDaSM_SN_SO_T2_T3_ENUlRNS_7RuntimeEE_clES10_
   fun:_ZSt13__invoke_implIvRZN2tf19make_transform_taskIN9__gnu_cxx17__normal_iteratorIPN4mpcf3PcfIddEESt6vectorIS6_SaIS6_EEEESB_NS3_IPdS8_IdSaIdEEEEZNS4_16apply_functionalISB_SF_ZN12_GLOBAL__N_165PcfAlgebraAndNormsTest_ApplyFunctionalWithL1NormMultiplePcfs_TestIS6_E8TestBodyEvEUlRKS6_E_EEvT_SN_T0_T1_RNS4_8ExecutorEEUlRS6_E_NS0_17GuidedPartitionerINS0_21DefaultClosureWrapperEEELPv0EEEDaSN_SO_SP_T2_T3_EUlRNS0_7RuntimeEE_JS11_EESN_St14__invoke_otherOSO_DpOT1_
   fun:_ZSt10__invoke_rIvRZN2tf19make_transform_taskIN9__gnu_cxx17__normal_iteratorIPN4mpcf3PcfIddEESt6vectorIS6_SaIS6_EEEESB_NS3_IPdS8_IdSaIdEEEEZNS4_16apply_functionalISB_SF_ZN12_GLOBAL__N_165PcfAlgebraAndNormsTest_ApplyFunctionalWithL1NormMultiplePcfs_TestIS6_E8TestBodyEvEUlRKS6_E_EEvT_SN_T0_T1_RNS4_8ExecutorEEUlRS6_E_NS0_17GuidedPartitionerINS0_21DefaultClosureWrapperEEELPv0EEEDaSN_SO_SP_T2_T3_EUlRNS0_7RuntimeEE_JS11_EENSt9enable_ifIX16is_invocable_r_vISN_SO_DpT1_EESN_E4typeEOSO_DpOS15_
   fun:_ZNSt17_Function_handlerIFvRN2tf7RuntimeEEZNS0_19make_transform_taskIN9__gnu_cxx17__normal_iteratorIPN4mpcf3PcfIddEESt6vectorIS9_SaIS9_EEEESE_NS6_IPdSB_IdSaIdEEEEZNS7_16apply_functionalISE_SI_ZN12_GLOBAL__N_165PcfAlgebraAndNormsTest_ApplyFunctionalWithL1NormMultiplePcfs_TestIS9_E8TestBodyEvEUlRKS9_E_EEvT_SQ_T0_T1_RNS7_8ExecutorEEUlRS9_E_NS0_17GuidedPartitionerINS0_21DefaultClosureWrapperEEELPv0EEEDaSQ_SR_SS_T2_T3_EUlS2_E_E9_M_invokeERKSt9_Any_dataS2_
   fun:_ZNKSt8functionIFvRN2tf7RuntimeEEEclES2_
   fun:_ZN2tf8Executor25_invoke_runtime_task_implERNS_6WorkerEPNS_4NodeERSt8functionIFvRNS_7RuntimeEEE
   fun:_ZN2tf8Executor20_invoke_runtime_taskERNS_6WorkerEPNS_4NodeE
   fun:_ZN2tf8Executor7_invokeERNS_6WorkerEPNS_4NodeE
   fun:_ZN2tf8Executor13_exploit_taskERNS_6WorkerERPNS_4NodeE
   fun:_ZZN2tf8Executor6_spawnEmSt10shared_ptrINS_15WorkerInterfaceEEENKUlvE_clEv
   fun:_ZSt13__invoke_implIvZN2tf8Executor6_spawnEmSt10shared_ptrINS0_15WorkerInterfaceEEEUlvE_JEET_St14__invoke_otherOT0_DpOT1_
   fun:_ZSt8__invokeIZN2tf8Executor6_spawnEmSt10shared_ptrINS0_15WorkerInterfaceEEEUlvE_JEENSt15__invoke_resultIT_JDpT0_EE4typeEOS7_DpOS8_
}
{
   <insert_a_suppression_name_here>
   Helgrind:Race
   fun:_ZNK2tf15PartitionerBaseINS_21DefaultClosureWrapperEE10chunk_sizeEv
   fun:_ZZN2tf19make_transform_taskIN9__gnu_cxx17__normal_iteratorIPN4mpcf3PcfIddEESt6vectorIS5_SaIS5_EEEESA_NS2_IPdS7_IdSaIdEEEEZNS3_16apply_functionalISA_SE_ZN12_GLOBAL__N_165PcfAlgebraAndNormsTest_ApplyFunctionalWithL1NormMultiplePcfs_TestIS5_E8TestBodyEvEUlRKS5_E_EEvT_SM_T0_T1_RNS3_8ExecutorEEUlRS5_E_NS_17GuidedPartitionerINS_21DefaultClosureWrapperEEELPv0EEEDaSM_SN_SO_T2_T3_ENUlRNS_7RuntimeEE_clES10_
   fun:_ZSt13__invoke_implIvRZN2tf19make_transform_taskIN9__gnu_cxx17__normal_iteratorIPN4mpcf3PcfIddEESt6vectorIS6_SaIS6_EEEESB_NS3_IPdS8_IdSaIdEEEEZNS4_16apply_functionalISB_SF_ZN12_GLOBAL__N_165PcfAlgebraAndNormsTest_ApplyFunctionalWithL1NormMultiplePcfs_TestIS6_E8TestBodyEvEUlRKS6_E_EEvT_SN_T0_T1_RNS4_8ExecutorEEUlRS6_E_NS0_17GuidedPartitionerINS0_21DefaultClosureWrapperEEELPv0EEEDaSN_SO_SP_T2_T3_EUlRNS0_7RuntimeEE_JS11_EESN_St14__invoke_otherOSO_DpOT1_
   fun:_ZSt10__invoke_rIvRZN2tf19make_transform_taskIN9__gnu_cxx17__normal_iteratorIPN4mpcf3PcfIddEESt6vectorIS6_SaIS6_EEEESB_NS3_IPdS8_IdSaIdEEEEZNS4_16apply_functionalISB_SF_ZN12_GLOBAL__N_165PcfAlgebraAndNormsTest_ApplyFunctionalWithL1NormMultiplePcfs_TestIS6_E8TestBodyEvEUlRKS6_E_EEvT_SN_T0_T1_RNS4_8ExecutorEEUlRS6_E_NS0_17GuidedPartitionerINS0_21DefaultClosureWrapperEEELPv0EEEDaSN_SO_SP_T2_T3_EUlRNS0_7RuntimeEE_JS11_EENSt9enable_ifIX16is_invocable_r_vISN_SO_DpT1_EESN_E4typeEOSO_DpOS15_
   fun:_ZNSt17_Function_handlerIFvRN2tf7RuntimeEEZNS0_19make_transform_taskIN9__gnu_cxx17__normal_iteratorIPN4mpcf3PcfIddEESt6vectorIS9_SaIS9_EEEESE_NS6_IPdSB_IdSaIdEEEEZNS7_16apply_functionalISE_SI_ZN12_GLOBAL__N_165PcfAlgebraAndNormsTest_ApplyFunctionalWithL1NormMultiplePcfs_TestIS9_E8TestBodyEvEUlRKS9_E_EEvT_SQ_T0_T1_RNS7_8ExecutorEEUlRS9_E_NS0_17GuidedPartitionerINS0_21DefaultClosureWrapperEEELPv0EEEDaSQ_SR_SS_T2_T3_EUlS2_E_E9_M_invokeERKSt9_Any_dataS2_
   fun:_ZNKSt8functionIFvRN2tf7RuntimeEEEclES2_
   fun:_ZN2tf8Executor25_invoke_runtime_task_implERNS_6WorkerEPNS_4NodeERSt8functionIFvRNS_7RuntimeEEE
   fun:_ZN2tf8Executor20_invoke_runtime_taskERNS_6WorkerEPNS_4NodeE
   fun:_ZN2tf8Executor7_invokeERNS_6WorkerEPNS_4NodeE
   fun:_ZN2tf8Executor13_exploit_taskERNS_6WorkerERPNS_4NodeE
   fun:_ZZN2tf8Executor6_spawnEmSt10shared_ptrINS_15WorkerInterfaceEEENKUlvE_clEv
   fun:_ZSt13__invoke_implIvZN2tf8Executor6_spawnEmSt10shared_ptrINS0_15WorkerInterfaceEEEUlvE_JEET_St14__invoke_otherOT0_DpOT1_
}
{
   <insert_a_suppression_name_here>
   Helgrind:Race
   fun:_ZZN2tf19make_transform_taskIN9__gnu_cxx17__normal_iteratorIPN4mpcf3PcfIddEESt6vectorIS5_SaIS5_EEEESA_NS2_IPdS7_IdSaIdEEEEZNS3_16apply_functionalISA_SE_ZN12_GLOBAL__N_165PcfAlgebraAndNormsTest_ApplyFunctionalWithL1NormMultiplePcfs_TestIS5_E8TestBodyEvEUlRKS5_E_EEvT_SM_T0_T1_RNS3_8ExecutorEEUlRS5_E_NS_17GuidedPartitionerINS_21DefaultClosureWrapperEEELPv0EEEDaSM_SN_SO_T2_T3_ENUlRNS_7RuntimeEE_clES10_
   fun:_ZSt13__invoke_implIvRZN2tf19make_transform_taskIN9__gnu_cxx17__normal_iteratorIPN4mpcf3PcfIddEESt6vectorIS6_SaIS6_EEEESB_NS3_IPdS8_IdSaIdEEEEZNS4_16apply_functionalISB_SF_ZN12_GLOBAL__N_165PcfAlgebraAndNormsTest_ApplyFunctionalWithL1NormMultiplePcfs_TestIS6_E8TestBodyEvEUlRKS6_E_EEvT_SN_T0_T1_RNS4_8ExecutorEEUlRS6_E_NS0_17GuidedPartitionerINS0_21DefaultClosureWrapperEEELPv0EEEDaSN_SO_SP_T2_T3_EUlRNS0_7RuntimeEE_JS11_EESN_St14__invoke_otherOSO_DpOT1_
   fun:_ZSt10__invoke_rIvRZN2tf19make_transform_taskIN9__gnu_cxx17__normal_iteratorIPN4mpcf3PcfIddEESt6vectorIS6_SaIS6_EEEESB_NS3_IPdS8_IdSaIdEEEEZNS4_16apply_functionalISB_SF_ZN12_GLOBAL__N_165PcfAlgebraAndNormsTest_ApplyFunctionalWithL1NormMultiplePcfs_TestIS6_E8TestBodyEvEUlRKS6_E_EEvT_SN_T0_T1_RNS4_8ExecutorEEUlRS6_E_NS0_17GuidedPartitionerINS0_21DefaultClosureWrapperEEELPv0EEEDaSN_SO_SP_T2_T3_EUlRNS0_7RuntimeEE_JS11_EENSt9enable_ifIX16is_invocable_r_vISN_SO_DpT1_EESN_E4typeEOSO_DpOS15_
   fun:_ZNSt17_Function_handlerIFvRN2tf7RuntimeEEZNS0_19make_transform_taskIN9__gnu_cxx17__normal_iteratorIPN4mpcf3PcfIddEESt6vectorIS9_SaIS9_EEEESE_NS6_IPdSB_IdSaIdEEEEZNS7_16apply_functionalISE_SI_ZN12_GLOBAL__N_165PcfAlgebraAndNormsTest_ApplyFunctionalWithL1NormMultiplePcfs_TestIS9_E8TestBodyEvEUlRKS9_E_EEvT_SQ_T0_T1_RNS7_8ExecutorEEUlRS9_E_NS0_17GuidedPartitionerINS0_21DefaultClosureWrapperEEELPv0EEEDaSQ_SR_SS_T2_T3_EUlS2_E_E9_M_invokeERKSt9_Any_dataS2_
   fun:_ZNKSt8functionIFvRN2tf7RuntimeEEEclES2_
   fun:_ZN2tf8Executor25_invoke_runtime_task_implERNS_6WorkerEPNS_4NodeERSt8functionIFvRNS_7RuntimeEEE
   fun:_ZN2tf8Executor20_invoke_runtime_taskERNS_6WorkerEPNS_4NodeE
   fun:_ZN2tf8Executor7_invokeERNS_6WorkerEPNS_4NodeE
   fun:_ZN2tf8Executor13_exploit_taskERNS_6WorkerERPNS_4NodeE
   fun:_ZZN2tf8Executor6_spawnEmSt10shared_ptrINS_15WorkerInterfaceEEENKUlvE_clEv
   fun:_ZSt13__invoke_implIvZN2tf8Executor6_spawnEmSt10shared_ptrINS0_15WorkerInterfaceEEEUlvE_JEET_St14__invoke_otherOT0_DpOT1_
   fun:_ZSt8__invokeIZN2tf8Executor6_spawnEmSt10shared_ptrINS0_15WorkerInterfaceEEEUlvE_JEENSt15__invoke_resultIT_JDpT0_EE4typeEOS7_DpOS8_
}
{
   <insert_a_suppression_name_here>
   Helgrind:Race
   fun:_ZZN2tf19make_transform_taskIN9__gnu_cxx17__normal_iteratorIPN4mpcf3PcfIddEESt6vectorIS5_SaIS5_EEEESA_NS2_IPdS7_IdSaIdEEEEZNS3_16apply_functionalISA_SE_ZN12_GLOBAL__N_165PcfAlgebraAndNormsTest_ApplyFunctionalWithL1NormMultiplePcfs_TestIS5_E8TestBodyEvEUlRKS5_E_EEvT_SM_T0_T1_RNS3_8ExecutorEEUlRS5_E_NS_17GuidedPartitionerINS_21DefaultClosureWrapperEEELPv0EEEDaSM_SN_SO_T2_T3_ENUlRNS_7RuntimeEE_clES10_
   fun:_ZSt13__invoke_implIvRZN2tf19make_transform_taskIN9__gnu_cxx17__normal_iteratorIPN4mpcf3PcfIddEESt6vectorIS6_SaIS6_EEEESB_NS3_IPdS8_IdSaIdEEEEZNS4_16apply_functionalISB_SF_ZN12_GLOBAL__N_165PcfAlgebraAndNormsTest_ApplyFunctionalWithL1NormMultiplePcfs_TestIS6_E8TestBodyEvEUlRKS6_E_EEvT_SN_T0_T1_RNS4_8ExecutorEEUlRS6_E_NS0_17GuidedPartitionerINS0_21DefaultClosureWrapperEEELPv0EEEDaSN_SO_SP_T2_T3_EUlRNS0_7RuntimeEE_JS11_EESN_St14__invoke_otherOSO_DpOT1_
   fun:_ZSt10__invoke_rIvRZN2tf19make_transform_taskIN9__gnu_cxx17__normal_iteratorIPN4mpcf3PcfIddEESt6vectorIS6_SaIS6_EEEESB_NS3_IPdS8_IdSaIdEEEEZNS4_16apply_functionalISB_SF_ZN12_GLOBAL__N_165PcfAlgebraAndNormsTest_ApplyFunctionalWithL1NormMultiplePcfs_TestIS6_E8TestBodyEvEUlRKS6_E_EEvT_SN_T0_T1_RNS4_8ExecutorEEUlRS6_E_NS0_17GuidedPartitionerINS0_21DefaultClosureWrapperEEELPv0EEEDaSN_SO_SP_T2_T3_EUlRNS0_7RuntimeEE_JS11_EENSt9enable_ifIX16is_invocable_r_vISN_SO_DpT1_EESN_E4typeEOSO_DpOS15_
   fun:_ZNSt17_Function_handlerIFvRN2tf7RuntimeEEZNS0_19make_transform_taskIN9__gnu_cxx17__normal_iteratorIPN4mpcf3PcfIddEESt6vectorIS9_SaIS9_EEEESE_NS6_IPdSB_IdSaIdEEEEZNS7_16apply_functionalISE_SI_ZN12_GLOBAL__N_165PcfAlgebraAndNormsTest_ApplyFunctionalWithL1NormMultiplePcfs_TestIS9_E8TestBodyEvEUlRKS9_E_EEvT_SQ_T0_T1_RNS7_8ExecutorEEUlRS9_E_NS0_17GuidedPartitionerINS0_21DefaultClosureWrapperEEELPv0EEEDaSQ_SR_SS_T2_T3_EUlS2_E_E9_M_invokeERKSt9_Any_dataS2_
   fun:_ZNKSt8functionIFvRN2tf7RuntimeEEEclES2_
   fun:_ZN2tf8Executor25_invoke_runtime_task_implERNS_6WorkerEPNS_4NodeERSt8functionIFvRNS_7RuntimeEEE
   fun:_ZN2tf8Executor20_invoke_runtime_taskERNS_6WorkerEPNS_4NodeE
   fun:_ZN2tf8Executor7_invokeERNS_6WorkerEPNS_4NodeE
   fun:_ZN2tf8Executor13_exploit_taskERNS_6WorkerERPNS_4NodeE
   fun:_ZZN2tf8Executor6_spawnEmSt10shared_ptrINS_15WorkerInterfaceEEENKUlvE_clEv
   fun:_ZSt13__invoke_implIvZN2tf8Executor6_spawnEmSt10shared_ptrINS0_15WorkerInterfaceEEEUlvE_JEET_St14__invoke_otherOT0_DpOT1_
   fun:_ZSt8__invokeIZN2tf8Executor6_spawnEmSt10shared_ptrINS0_15WorkerInterfaceEEEUlvE_JEENSt15__invoke_resultIT_JDpT0_EE4typeEOS7_DpOS8_
}
{
   <insert_a_suppression_name_here>
   Helgrind:Race
   fun:_ZN9__gnu_cxx17__normal_iteratorIPKN4mpcf5PointIddEESt6vectorIS3_SaIS3_EEEC1ERKS5_
   fun:_ZNKSt6vectorIN4mpcf5PointIddEESaIS2_EE4cendEv
   fun:_ZN4mpcf7l1_normINS_3PcfIddEEEENT_10value_typeERKS3_
   fun:_ZZN12_GLOBAL__N_165PcfAlgebraAndNormsTest_ApplyFunctionalWithL1NormMultiplePcfs_TestIN4mpcf3PcfIddEEE8TestBodyEvENKUlRKS3_E_clES6_
   fun:_ZZN4mpcf16apply_functionalIN9__gnu_cxx17__normal_iteratorIPNS_3PcfIddEESt6vectorIS4_SaIS4_EEEENS2_IPdS6_IdSaIdEEEEZN12_GLOBAL__N_165PcfAlgebraAndNormsTest_ApplyFunctionalWithL1NormMultiplePcfs_TestIS4_E8TestBodyEvEUlRKS4_E_EEvT_SK_T0_T1_RNS_8ExecutorEENKUlRS4_E_clESP_
   fun:_ZZZZN2tf19make_transform_taskIN9__gnu_cxx17__normal_iteratorIPN4mpcf3PcfIddEESt6vectorIS5_SaIS5_EEEESA_NS2_IPdS7_IdSaIdEEEEZNS3_16apply_functionalISA_SE_ZN12_GLOBAL__N_165PcfAlgebraAndNormsTest_ApplyFunctionalWithL1NormMultiplePcfs_TestIS5_E8TestBodyEvEUlRKS5_E_EEvT_SM_T0_T1_RNS3_8ExecutorEEUlRS5_E_NS_17GuidedPartitionerINS_21DefaultClosureWrapperEEELPv0EEEDaSM_SN_SO_T2_T3_ENUlRNS_7RuntimeEE_clES10_ENUlvE0_clEvENUlmmE_clEmm
   fun:_ZNK2tf17GuidedPartitionerINS_21DefaultClosureWrapperEE4loopIZZZNS_19make_transform_taskIN9__gnu_cxx17__normal_iteratorIPN4mpcf3PcfIddEESt6vectorIS9_SaIS9_EEEESE_NS6_IPdSB_IdSaIdEEEEZNS7_16apply_functionalISE_SI_ZN12_GLOBAL__N_165PcfAlgebraAndNormsTest_ApplyFunctionalWithL1NormMultiplePcfs_TestIS9_E8TestBodyEvEUlRKS9_E_EEvT_SQ_T0_T1_RNS7_8ExecutorEEUlRS9_E_S2_LPv0EEEDaSQ_SR_SS_T2_T3_ENUlRNS_7RuntimeEE_clES11_ENUlvE0_clEvEUlmmE_LSX_0EEEvmmRSt6atomicImEOSQ_
   fun:_ZZZN2tf19make_transform_taskIN9__gnu_cxx17__normal_iteratorIPN4mpcf3PcfIddEESt6vectorIS5_SaIS5_EEEESA_NS2_IPdS7_IdSaIdEEEEZNS3_16apply_functionalISA_SE_ZN12_GLOBAL__N_165PcfAlgebraAndNormsTest_ApplyFunctionalWithL1NormMultiplePcfs_TestIS5_E8TestBodyEvEUlRKS5_E_EEvT_SM_T0_T1_RNS3_8ExecutorEEUlRS5_E_NS_17GuidedPartitionerINS_21DefaultClosureWrapperEEELPv0EEEDaSM_SN_SO_T2_T3_ENUlRNS_7RuntimeEE_clES10_ENUlvE0_clEv
   fun:_ZZN2tf19make_transform_taskIN9__gnu_cxx17__normal_iteratorIPN4mpcf3PcfIddEESt6vectorIS5_SaIS5_EEEESA_NS2_IPdS7_IdSaIdEEEEZNS3_16apply_functionalISA_SE_ZN12_GLOBAL__N_165PcfAlgebraAndNormsTest_ApplyFunctionalWithL1NormMultiplePcfs_TestIS5_E8TestBodyEvEUlRKS5_E_EEvT_SM_T0_T1_RNS3_8ExecutorEEUlRS5_E_NS_17GuidedPartitionerINS_21DefaultClosureWrapperEEELPv0EEEDaSM_SN_SO_T2_T3_ENUlRNS_7RuntimeEE_clES10_
   fun:_ZSt13__invoke_implIvRZN2tf19make_transform_taskIN9__gnu_cxx17__normal_iteratorIPN4mpcf3PcfIddEESt6vectorIS6_SaIS6_EEEESB_NS3_IPdS8_IdSaIdEEEEZNS4_16apply_functionalISB_SF_ZN12_GLOBAL__N_165PcfAlgebraAndNormsTest_ApplyFunctionalWithL1NormMultiplePcfs_TestIS6_E8TestBodyEvEUlRKS6_E_EEvT_SN_T0_T1_RNS4_8ExecutorEEUlRS6_E_NS0_17GuidedPartitionerINS0_21DefaultClosureWrapperEEELPv0EEEDaSN_SO_SP_T2_T3_EUlRNS0_7RuntimeEE_JS11_EESN_St14__invoke_otherOSO_DpOT1_
   fun:_ZSt10__invoke_rIvRZN2tf19make_transform_taskIN9__gnu_cxx17__normal_iteratorIPN4mpcf3PcfIddEESt6vectorIS6_SaIS6_EEEESB_NS3_IPdS8_IdSaIdEEEEZNS4_16apply_functionalISB_SF_ZN12_GLOBAL__N_165PcfAlgebraAndNormsTest_ApplyFunctionalWithL1NormMultiplePcfs_TestIS6_E8TestBodyEvEUlRKS6_E_EEvT_SN_T0_T1_RNS4_8ExecutorEEUlRS6_E_NS0_17GuidedPartitionerINS0_21DefaultClosureWrapperEEELPv0EEEDaSN_SO_SP_T2_T3_EUlRNS0_7RuntimeEE_JS11_EENSt9enable_ifIX16is_invocable_r_vISN_SO_DpT1_EESN_E4typeEOSO_DpOS15_
   fun:_ZNSt17_Function_handlerIFvRN2tf7RuntimeEEZNS0_19make_transform_taskIN9__gnu_cxx17__normal_iteratorIPN4mpcf3PcfIddEESt6vectorIS9_SaIS9_EEEESE_NS6_IPdSB_IdSaIdEEEEZNS7_16apply_functionalISE_SI_ZN12_GLOBAL__N_165PcfAlgebraAndNormsTest_ApplyFunctionalWithL1NormMultiplePcfs_TestIS9_E8TestBodyEvEUlRKS9_E_EEvT_SQ_T0_T1_RNS7_8ExecutorEEUlRS9_E_NS0_17GuidedPartitionerINS0_21DefaultClosureWrapperEEELPv0EEEDaSQ_SR_SS_T2_T3_EUlS2_E_E9_M_invokeERKSt9_Any_dataS2_
}
{
   <insert_a_suppression_name_here>
   Helgrind:Race
   fun:_ZN9__gnu_cxx17__normal_iteratorIPKN4mpcf5PointIddEESt6vectorIS3_SaIS3_EEEC1ERKS5_
   fun:_ZNKSt6vectorIN4mpcf5PointIddEESaIS2_EE6cbeginEv
   fun:_ZN4mpcf7l1_normINS_3PcfIddEEEENT_10value_typeERKS3_
   fun:_ZZN12_GLOBAL__N_165PcfAlgebraAndNormsTest_ApplyFunctionalWithL1NormMultiplePcfs_TestIN4mpcf3PcfIddEEE8TestBodyEvENKUlRKS3_E_clES6_
   fun:_ZZN4mpcf16apply_functionalIN9__gnu_cxx17__normal_iteratorIPNS_3PcfIddEESt6vectorIS4_SaIS4_EEEENS2_IPdS6_IdSaIdEEEEZN12_GLOBAL__N_165PcfAlgebraAndNormsTest_ApplyFunctionalWithL1NormMultiplePcfs_TestIS4_E8TestBodyEvEUlRKS4_E_EEvT_SK_T0_T1_RNS_8ExecutorEENKUlRS4_E_clESP_
   fun:_ZZZZN2tf19make_transform_taskIN9__gnu_cxx17__normal_iteratorIPN4mpcf3PcfIddEESt6vectorIS5_SaIS5_EEEESA_NS2_IPdS7_IdSaIdEEEEZNS3_16apply_functionalISA_SE_ZN12_GLOBAL__N_165PcfAlgebraAndNormsTest_ApplyFunctionalWithL1NormMultiplePcfs_TestIS5_E8TestBodyEvEUlRKS5_E_EEvT_SM_T0_T1_RNS3_8ExecutorEEUlRS5_E_NS_17GuidedPartitionerINS_21DefaultClosureWrapperEEELPv0EEEDaSM_SN_SO_T2_T3_ENUlRNS_7RuntimeEE_clES10_ENUlvE0_clEvENUlmmE_clEmm
   fun:_ZNK2tf17GuidedPartitionerINS_21DefaultClosureWrapperEE4loopIZZZNS_19make_transform_taskIN9__gnu_cxx17__normal_iteratorIPN4mpcf3PcfIddEESt6vectorIS9_SaIS9_EEEESE_NS6_IPdSB_IdSaIdEEEEZNS7_16apply_functionalISE_SI_ZN12_GLOBAL__N_165PcfAlgebraAndNormsTest_ApplyFunctionalWithL1NormMultiplePcfs_TestIS9_E8TestBodyEvEUlRKS9_E_EEvT_SQ_T0_T1_RNS7_8ExecutorEEUlRS9_E_S2_LPv0EEEDaSQ_SR_SS_T2_T3_ENUlRNS_7RuntimeEE_clES11_ENUlvE0_clEvEUlmmE_LSX_0EEEvmmRSt6atomicImEOSQ_
   fun:_ZZZN2tf19make_transform_taskIN9__gnu_cxx17__normal_iteratorIPN4mpcf3PcfIddEESt6vectorIS5_SaIS5_EEEESA_NS2_IPdS7_IdSaIdEEEEZNS3_16apply_functionalISA_SE_ZN12_GLOBAL__N_165PcfAlgebraAndNormsTest_ApplyFunctionalWithL1NormMultiplePcfs_TestIS5_E8TestBodyEvEUlRKS5_E_EEvT_SM_T0_T1_RNS3_8ExecutorEEUlRS5_E_NS_17GuidedPartitionerINS_21DefaultClosureWrapperEEELPv0EEEDaSM_SN_SO_T2_T3_ENUlRNS_7RuntimeEE_clES10_ENUlvE0_clEv
   fun:_ZZN2tf19make_transform_taskIN9__gnu_cxx17__normal_iteratorIPN4mpcf3PcfIddEESt6vectorIS5_SaIS5_EEEESA_NS2_IPdS7_IdSaIdEEEEZNS3_16apply_functionalISA_SE_ZN12_GLOBAL__N_165PcfAlgebraAndNormsTest_ApplyFunctionalWithL1NormMultiplePcfs_TestIS5_E8TestBodyEvEUlRKS5_E_EEvT_SM_T0_T1_RNS3_8ExecutorEEUlRS5_E_NS_17GuidedPartitionerINS_21DefaultClosureWrapperEEELPv0EEEDaSM_SN_SO_T2_T3_ENUlRNS_7RuntimeEE_clES10_
   fun:_ZSt13__invoke_implIvRZN2tf19make_transform_taskIN9__gnu_cxx17__normal_iteratorIPN4mpcf3PcfIddEESt6vectorIS6_SaIS6_EEEESB_NS3_IPdS8_IdSaIdEEEEZNS4_16apply_functionalISB_SF_ZN12_GLOBAL__N_165PcfAlgebraAndNormsTest_ApplyFunctionalWithL1NormMultiplePcfs_TestIS6_E8TestBodyEvEUlRKS6_E_EEvT_SN_T0_T1_RNS4_8ExecutorEEUlRS6_E_NS0_17GuidedPartitionerINS0_21DefaultClosureWrapperEEELPv0EEEDaSN_SO_SP_T2_T3_EUlRNS0_7RuntimeEE_JS11_EESN_St14__invoke_otherOSO_DpOT1_
   fun:_ZSt10__invoke_rIvRZN2tf19make_transform_taskIN9__gnu_cxx17__normal_iteratorIPN4mpcf3PcfIddEESt6vectorIS6_SaIS6_EEEESB_NS3_IPdS8_IdSaIdEEEEZNS4_16apply_functionalISB_SF_ZN12_GLOBAL__N_165PcfAlgebraAndNormsTest_ApplyFunctionalWithL1NormMultiplePcfs_TestIS6_E8TestBodyEvEUlRKS6_E_EEvT_SN_T0_T1_RNS4_8ExecutorEEUlRS6_E_NS0_17GuidedPartitionerINS0_21DefaultClosureWrapperEEELPv0EEEDaSN_SO_SP_T2_T3_EUlRNS0_7RuntimeEE_JS11_EENSt9enable_ifIX16is_invocable_r_vISN_SO_DpT1_EESN_E4typeEOSO_DpOS15_
   fun:_ZNSt17_Function_handlerIFvRN2tf7RuntimeEEZNS0_19make_transform_taskIN9__gnu_cxx17__normal_iteratorIPN4mpcf3PcfIddEESt6vectorIS9_SaIS9_EEEESE_NS6_IPdSB_IdSaIdEEEEZNS7_16apply_functionalISE_SI_ZN12_GLOBAL__N_165PcfAlgebraAndNormsTest_ApplyFunctionalWithL1NormMultiplePcfs_TestIS9_E8TestBodyEvEUlRKS9_E_EEvT_SQ_T0_T1_RNS7_8ExecutorEEUlRS9_E_NS0_17GuidedPartitionerINS0_21DefaultClosureWrapperEEELPv0EEEDaSQ_SR_SS_T2_T3_EUlS2_E_E9_M_invokeERKSt9_Any_dataS2_
}
{
   <insert_a_suppression_name_here>
   Helgrind:Race
   fun:_ZN4mpcf16iterate_segmentsIN9__gnu_cxx17__normal_iteratorIPKNS_5PointIddEESt6vectorIS4_SaIS4_EEEEZNS_7l1_normINS_3PcfIddEEEENT_10value_typeERKSE_EUlRKNS_7SegmentIddEEE_EEvSE_SE_NSt15iterator_traitsISE_E10value_type9time_typeESQ_T0_
   fun:_ZN4mpcf7l1_normINS_3PcfIddEEEENT_10value_typeERKS3_
   fun:_ZZN12_GLOBAL__N_165PcfAlgebraAndNormsTest_ApplyFunctionalWithL1NormMultiplePcfs_TestIN4mpcf3PcfIddEEE8TestBodyEvENKUlRKS3_E_clES6_
   fun:_ZZN4mpcf16apply_functionalIN9__gnu_cxx17__normal_iteratorIPNS_3PcfIddEESt6vectorIS4_SaIS4_EEEENS2_IPdS6_IdSaIdEEEEZN12_GLOBAL__N_165PcfAlgebraAndNormsTest_ApplyFunctionalWithL1NormMultiplePcfs_TestIS4_E8TestBodyEvEUlRKS4_E_EEvT_SK_T0_T1_RNS_8ExecutorEENKUlRS4_E_clESP_
   fun:_ZZZZN2tf19make_transform_taskIN9__gnu_cxx17__normal_iteratorIPN4mpcf3PcfIddEESt6vectorIS5_SaIS5_EEEESA_NS2_IPdS7_IdSaIdEEEEZNS3_16apply_functionalISA_SE_ZN12_GLOBAL__N_165PcfAlgebraAndNormsTest_ApplyFunctionalWithL1NormMultiplePcfs_TestIS5_E8TestBodyEvEUlRKS5_E_EEvT_SM_T0_T1_RNS3_8ExecutorEEUlRS5_E_NS_17GuidedPartitionerINS_21DefaultClosureWrapperEEELPv0EEEDaSM_SN_SO_T2_T3_ENUlRNS_7RuntimeEE_clES10_ENUlvE0_clEvENUlmmE_clEmm
   fun:_ZNK2tf17GuidedPartitionerINS_21DefaultClosureWrapperEE4loopIZZZNS_19make_transform_taskIN9__gnu_cxx17__normal_iteratorIPN4mpcf3PcfIddEESt6vectorIS9_SaIS9_EEEESE_NS6_IPdSB_IdSaIdEEEEZNS7_16apply_functionalISE_SI_ZN12_GLOBAL__N_165PcfAlgebraAndNormsTest_ApplyFunctionalWithL1NormMultiplePcfs_TestIS9_E8TestBodyEvEUlRKS9_E_EEvT_SQ_T0_T1_RNS7_8ExecutorEEUlRS9_E_S2_LPv0EEEDaSQ_SR_SS_T2_T3_ENUlRNS_7RuntimeEE_clES11_ENUlvE0_clEvEUlmmE_LSX_0EEEvmmRSt6atomicImEOSQ_
   fun:_ZZZN2tf19make_transform_taskIN9__gnu_cxx17__normal_iteratorIPN4mpcf3PcfIddEESt6vectorIS5_SaIS5_EEEESA_NS2_IPdS7_IdSaIdEEEEZNS3_16apply_functionalISA_SE_ZN12_GLOBAL__N_165PcfAlgebraAndNormsTest_ApplyFunctionalWithL1NormMultiplePcfs_TestIS5_E8TestBodyEvEUlRKS5_E_EEvT_SM_T0_T1_RNS3_8ExecutorEEUlRS5_E_NS_17GuidedPartitionerINS_21DefaultClosureWrapperEEELPv0EEEDaSM_SN_SO_T2_T3_ENUlRNS_7RuntimeEE_clES10_ENUlvE0_clEv
   fun:_ZZN2tf19make_transform_taskIN9__gnu_cxx17__normal_iteratorIPN4mpcf3PcfIddEESt6vectorIS5_SaIS5_EEEESA_NS2_IPdS7_IdSaIdEEEEZNS3_16apply_functionalISA_SE_ZN12_GLOBAL__N_165PcfAlgebraAndNormsTest_ApplyFunctionalWithL1NormMultiplePcfs_TestIS5_E8TestBodyEvEUlRKS5_E_EEvT_SM_T0_T1_RNS3_8ExecutorEEUlRS5_E_NS_17GuidedPartitionerINS_21DefaultClosureWrapperEEELPv0EEEDaSM_SN_SO_T2_T3_ENUlRNS_7RuntimeEE_clES10_
   fun:_ZSt13__invoke_implIvRZN2tf19make_transform_taskIN9__gnu_cxx17__normal_iteratorIPN4mpcf3PcfIddEESt6vectorIS6_SaIS6_EEEESB_NS3_IPdS8_IdSaIdEEEEZNS4_16apply_functionalISB_SF_ZN12_GLOBAL__N_165PcfAlgebraAndNormsTest_ApplyFunctionalWithL1NormMultiplePcfs_TestIS6_E8TestBodyEvEUlRKS6_E_EEvT_SN_T0_T1_RNS4_8ExecutorEEUlRS6_E_NS0_17GuidedPartitionerINS0_21DefaultClosureWrapperEEELPv0EEEDaSN_SO_SP_T2_T3_EUlRNS0_7RuntimeEE_JS11_EESN_St14__invoke_otherOSO_DpOT1_
   fun:_ZSt10__invoke_rIvRZN2tf19make_transform_taskIN9__gnu_cxx17__normal_iteratorIPN4mpcf3PcfIddEESt6vectorIS6_SaIS6_EEEESB_NS3_IPdS8_IdSaIdEEEEZNS4_16apply_functionalISB_SF_ZN12_GLOBAL__N_165PcfAlgebraAndNormsTest_ApplyFunctionalWithL1NormMultiplePcfs_TestIS6_E8TestBodyEvEUlRKS6_E_EEvT_SN_T0_T1_RNS4_8ExecutorEEUlRS6_E_NS0_17GuidedPartitionerINS0_21DefaultClosureWrapperEEELPv0EEEDaSN_SO_SP_T2_T3_EUlRNS0_7RuntimeEE_JS11_EENSt9enable_ifIX16is_invocable_r_vISN_SO_DpT1_EESN_E4typeEOSO_DpOS15_
   fun:_ZNSt17_Function_handlerIFvRN2tf7RuntimeEEZNS0_19make_transform_taskIN9__gnu_cxx17__normal_iteratorIPN4mpcf3PcfIddEESt6vectorIS9_SaIS9_EEEESE_NS6_IPdSB_IdSaIdEEEEZNS7_16apply_functionalISE_SI_ZN12_GLOBAL__N_165PcfAlgebraAndNormsTest_ApplyFunctionalWithL1NormMultiplePcfs_TestIS9_E8TestBodyEvEUlRKS9_E_EEvT_SQ_T0_T1_RNS7_8ExecutorEEUlRS9_E_NS0_17GuidedPartitionerINS0_21DefaultClosureWrapperEEELPv0EEEDaSQ_SR_SS_T2_T3_EUlS2_E_E9_M_invokeERKSt9_Any_dataS2_
   fun:_ZNKSt8functionIFvRN2tf7RuntimeEEEclES2_
}
{
   <insert_a_suppression_name_here>
   Helgrind:Race
   fun:_ZZZZN2tf19make_transform_taskIN9__gnu_cxx17__normal_iteratorIPN4mpcf3PcfIddEESt6vectorIS5_SaIS5_EEEESA_NS2_IPdS7_IdSaIdEEEEZNS3_16apply_functionalISA_SE_ZN12_GLOBAL__N_165PcfAlgebraAndNormsTest_ApplyFunctionalWithL1NormMultiplePcfs_TestIS5_E8TestBodyEvEUlRKS5_E_EEvT_SM_T0_T1_RNS3_8ExecutorEEUlRS5_E_NS_17GuidedPartitionerINS_21DefaultClosureWrapperEEELPv0EEEDaSM_SN_SO_T2_T3_ENUlRNS_7RuntimeEE_clES10_ENUlvE0_clEvENUlmmE_clEmm
   fun:_ZNK2tf17GuidedPartitionerINS_21DefaultClosureWrapperEE4loopIZZZNS_19make_transform_taskIN9__gnu_cxx17__normal_iteratorIPN4mpcf3PcfIddEESt6vectorIS9_SaIS9_EEEESE_NS6_IPdSB_IdSaIdEEEEZNS7_16apply_functionalISE_SI_ZN12_GLOBAL__N_165PcfAlgebraAndNormsTest_ApplyFunctionalWithL1NormMultiplePcfs_TestIS9_E8TestBodyEvEUlRKS9_E_EEvT_SQ_T0_T1_RNS7_8ExecutorEEUlRS9_E_S2_LPv0EEEDaSQ_SR_SS_T2_T3_ENUlRNS_7RuntimeEE_clES11_ENUlvE0_clEvEUlmmE_LSX_0EEEvmmRSt6atomicImEOSQ_
   fun:_ZZZN2tf19make_transform_taskIN9__gnu_cxx17__normal_iteratorIPN4mpcf3PcfIddEESt6vectorIS5_SaIS5_EEEESA_NS2_IPdS7_IdSaIdEEEEZNS3_16apply_functionalISA_SE_ZN12_GLOBAL__N_165PcfAlgebraAndNormsTest_ApplyFunctionalWithL1NormMultiplePcfs_TestIS5_E8TestBodyEvEUlRKS5_E_EEvT_SM_T0_T1_RNS3_8ExecutorEEUlRS5_E_NS_17GuidedPartitionerINS_21DefaultClosureWrapperEEELPv0EEEDaSM_SN_SO_T2_T3_ENUlRNS_7RuntimeEE_clES10_ENUlvE0_clEv
   fun:_ZZN2tf19make_transform_taskIN9__gnu_cxx17__normal_iteratorIPN4mpcf3PcfIddEESt6vectorIS5_SaIS5_EEEESA_NS2_IPdS7_IdSaIdEEEEZNS3_16apply_functionalISA_SE_ZN12_GLOBAL__N_165PcfAlgebraAndNormsTest_ApplyFunctionalWithL1NormMultiplePcfs_TestIS5_E8TestBodyEvEUlRKS5_E_EEvT_SM_T0_T1_RNS3_8ExecutorEEUlRS5_E_NS_17GuidedPartitionerINS_21DefaultClosureWrapperEEELPv0EEEDaSM_SN_SO_T2_T3_ENUlRNS_7RuntimeEE_clES10_
   fun:_ZSt13__invoke_implIvRZN2tf19make_transform_taskIN9__gnu_cxx17__normal_iteratorIPN4mpcf3PcfIddEESt6vectorIS6_SaIS6_EEEESB_NS3_IPdS8_IdSaIdEEEEZNS4_16apply_functionalISB_SF_ZN12_GLOBAL__N_165PcfAlgebraAndNormsTest_ApplyFunctionalWithL1NormMultiplePcfs_TestIS6_E8TestBodyEvEUlRKS6_E_EEvT_SN_T0_T1_RNS4_8ExecutorEEUlRS6_E_NS0_17GuidedPartitionerINS0_21DefaultClosureWrapperEEELPv0EEEDaSN_SO_SP_T2_T3_EUlRNS0_7RuntimeEE_JS11_EESN_St14__invoke_otherOSO_DpOT1_
   fun:_ZSt10__invoke_rIvRZN2tf19make_transform_taskIN9__gnu_cxx17__normal_iteratorIPN4mpcf3PcfIddEESt6vectorIS6_SaIS6_EEEESB_NS3_IPdS8_IdSaIdEEEEZNS4_16apply_functionalISB_SF_ZN12_GLOBAL__N_165PcfAlgebraAndNormsTest_ApplyFunctionalWithL1NormMultiplePcfs_TestIS6_E8TestBodyEvEUlRKS6_E_EEvT_SN_T0_T1_RNS4_8ExecutorEEUlRS6_E_NS0_17GuidedPartitionerINS0_21DefaultClosureWrapperEEELPv0EEEDaSN_SO_SP_T2_T3_EUlRNS0_7RuntimeEE_JS11_EENSt9enable_ifIX16is_invocable_r_vISN_SO_DpT1_EESN_E4typeEOSO_DpOS15_
   fun:_ZNSt17_Function_handlerIFvRN2tf7RuntimeEEZNS0_19make_transform_taskIN9__gnu_cxx17__normal_iteratorIPN4mpcf3PcfIddEESt6vectorIS9_SaIS9_EEEESE_NS6_IPdSB_IdSaIdEEEEZNS7_16apply_functionalISE_SI_ZN12_GLOBAL__N_165PcfAlgebraAndNormsTest_ApplyFunctionalWithL1NormMultiplePcfs_TestIS9_E8TestBodyEvEUlRKS9_E_EEvT_SQ_T0_T1_RNS7_8ExecutorEEUlRS9_E_NS0_17GuidedPartitionerINS0_21DefaultClosureWrapperEEELPv0EEEDaSQ_SR_SS_T2_T3_EUlS2_E_E9_M_invokeERKSt9_Any_dataS2_
   fun:_ZNKSt8functionIFvRN2tf7RuntimeEEEclES2_
   fun:_ZN2tf8Executor25_invoke_runtime_task_implERNS_6WorkerEPNS_4NodeERSt8functionIFvRNS_7RuntimeEEE
   fun:_ZN2tf8Executor20_invoke_runtime_taskERNS_6WorkerEPNS_4NodeE
   fun:_ZN2tf8Executor7_invokeERNS_6WorkerEPNS_4NodeE
   fun:_ZN2tf8Executor13_exploit_taskERNS_6WorkerERPNS_4NodeE
}
{
   <insert_a_suppression_name_here>
   Helgrind:Race
   fun:_ZN4mpcf16iterate_segmentsIN9__gnu_cxx17__normal_iteratorIPKNS_5PointIddEESt6vectorIS4_SaIS4_EEEEZNS_7l1_normINS_3PcfIddEEEENT_10value_typeERKSE_EUlRKNS_7SegmentIddEEE_EEvSE_SE_NSt15iterator_traitsISE_E10value_type9time_typeESQ_T0_
   fun:_ZN4mpcf7l1_normINS_3PcfIddEEEENT_10value_typeERKS3_
   fun:_ZZN12_GLOBAL__N_165PcfAlgebraAndNormsTest_ApplyFunctionalWithL1NormMultiplePcfs_TestIN4mpcf3PcfIddEEE8TestBodyEvENKUlRKS3_E_clES6_
   fun:_ZZN4mpcf16apply_functionalIN9__gnu_cxx17__normal_iteratorIPNS_3PcfIddEESt6vectorIS4_SaIS4_EEEENS2_IPdS6_IdSaIdEEEEZN12_GLOBAL__N_165PcfAlgebraAndNormsTest_ApplyFunctionalWithL1NormMultiplePcfs_TestIS4_E8TestBodyEvEUlRKS4_E_EEvT_SK_T0_T1_RNS_8ExecutorEENKUlRS4_E_clESP_
   fun:_ZZZZN2tf19make_transform_taskIN9__gnu_cxx17__normal_iteratorIPN4mpcf3PcfIddEESt6vectorIS5_SaIS5_EEEESA_NS2_IPdS7_IdSaIdEEEEZNS3_16apply_functionalISA_SE_ZN12_GLOBAL__N_165PcfAlgebraAndNormsTest_ApplyFunctionalWithL1NormMultiplePcfs_TestIS5_E8TestBodyEvEUlRKS5_E_EEvT_SM_T0_T1_RNS3_8ExecutorEEUlRS5_E_NS_17GuidedPartitionerINS_21DefaultClosureWrapperEEELPv0EEEDaSM_SN_SO_T2_T3_ENUlRNS_7RuntimeEE_clES10_ENUlvE0_clEvENUlmmE_clEmm
   fun:_ZNK2tf17GuidedPartitionerINS_21DefaultClosureWrapperEE4loopIZZZNS_19make_transform_taskIN9__gnu_cxx17__normal_iteratorIPN4mpcf3PcfIddEESt6vectorIS9_SaIS9_EEEESE_NS6_IPdSB_IdSaIdEEEEZNS7_16apply_functionalISE_SI_ZN12_GLOBAL__N_165PcfAlgebraAndNormsTest_ApplyFunctionalWithL1NormMultiplePcfs_TestIS9_E8TestBodyEvEUlRKS9_E_EEvT_SQ_T0_T1_RNS7_8ExecutorEEUlRS9_E_S2_LPv0EEEDaSQ_SR_SS_T2_T3_ENUlRNS_7RuntimeEE_clES11_ENUlvE0_clEvEUlmmE_LSX_0EEEvmmRSt6atomicImEOSQ_
   fun:_ZZZN2tf19make_transform_taskIN9__gnu_cxx17__normal_iteratorIPN4mpcf3PcfIddEESt6vectorIS5_SaIS5_EEEESA_NS2_IPdS7_IdSaIdEEEEZNS3_16apply_functionalISA_SE_ZN12_GLOBAL__N_165PcfAlgebraAndNormsTest_ApplyFunctionalWithL1NormMultiplePcfs_TestIS5_E8TestBodyEvEUlRKS5_E_EEvT_SM_T0_T1_RNS3_8ExecutorEEUlRS5_E_NS_17GuidedPartitionerINS_21DefaultClosureWrapperEEELPv0EEEDaSM_SN_SO_T2_T3_ENUlRNS_7RuntimeEE_clES10_ENUlvE0_clEv
   fun:_ZZN2tf19make_transform_taskIN9__gnu_cxx17__normal_iteratorIPN4mpcf3PcfIddEESt6vectorIS5_SaIS5_EEEESA_NS2_IPdS7_IdSaIdEEEEZNS3_16apply_functionalISA_SE_ZN12_GLOBAL__N_165PcfAlgebraAndNormsTest_ApplyFunctionalWithL1NormMultiplePcfs_TestIS5_E8TestBodyEvEUlRKS5_E_EEvT_SM_T0_T1_RNS3_8ExecutorEEUlRS5_E_NS_17GuidedPartitionerINS_21DefaultClosureWrapperEEELPv0EEEDaSM_SN_SO_T2_T3_ENUlRNS_7RuntimeEE_clES10_
   fun:_ZSt13__invoke_implIvRZN2tf19make_transform_taskIN9__gnu_cxx17__normal_iteratorIPN4mpcf3PcfIddEESt6vectorIS6_SaIS6_EEEESB_NS3_IPdS8_IdSaIdEEEEZNS4_16apply_functionalISB_SF_ZN12_GLOBAL__N_165PcfAlgebraAndNormsTest_ApplyFunctionalWithL1NormMultiplePcfs_TestIS6_E8TestBodyEvEUlRKS6_E_EEvT_SN_T0_T1_RNS4_8ExecutorEEUlRS6_E_NS0_17GuidedPartitionerINS0_21DefaultClosureWrapperEEELPv0EEEDaSN_SO_SP_T2_T3_EUlRNS0_7RuntimeEE_JS11_EESN_St14__invoke_otherOSO_DpOT1_
   fun:_ZSt10__invoke_rIvRZN2tf19make_transform_taskIN9__gnu_cxx17__normal_iteratorIPN4mpcf3PcfIddEESt6vectorIS6_SaIS6_EEEESB_NS3_IPdS8_IdSaIdEEEEZNS4_16apply_functionalISB_SF_ZN12_GLOBAL__N_165PcfAlgebraAndNormsTest_ApplyFunctionalWithL1NormMultiplePcfs_TestIS6_E8TestBodyEvEUlRKS6_E_EEvT_SN_T0_T1_RNS4_8ExecutorEEUlRS6_E_NS0_17GuidedPartitionerINS0_21DefaultClosureWrapperEEELPv0EEEDaSN_SO_SP_T2_T3_EUlRNS0_7RuntimeEE_JS11_EENSt9enable_ifIX16is_invocable_r_vISN_SO_DpT1_EESN_E4typeEOSO_DpOS15_
   fun:_ZNSt17_Function_handlerIFvRN2tf7RuntimeEEZNS0_19make_transform_taskIN9__gnu_cxx17__normal_iteratorIPN4mpcf3PcfIddEESt6vectorIS9_SaIS9_EEEESE_NS6_IPdSB_IdSaIdEEEEZNS7_16apply_functionalISE_SI_ZN12_GLOBAL__N_165PcfAlgebraAndNormsTest_ApplyFunctionalWithL1NormMultiplePcfs_TestIS9_E8TestBodyEvEUlRKS9_E_EEvT_SQ_T0_T1_RNS7_8ExecutorEEUlRS9_E_NS0_17GuidedPartitionerINS0_21DefaultClosureWrapperEEELPv0EEEDaSQ_SR_SS_T2_T3_EUlS2_E_E9_M_invokeERKSt9_Any_dataS2_
   fun:_ZNKSt8functionIFvRN2tf7RuntimeEEEclES2_
}
{
   <insert_a_suppression_name_here>
   Helgrind:Race
   fun:_ZSt3minIdERKT_S2_S2_
   fun:_ZN4mpcf16iterate_segmentsIN9__gnu_cxx17__normal_iteratorIPKNS_5PointIddEESt6vectorIS4_SaIS4_EEEEZNS_7l1_normINS_3PcfIddEEEENT_10value_typeERKSE_EUlRKNS_7SegmentIddEEE_EEvSE_SE_NSt15iterator_traitsISE_E10value_type9time_typeESQ_T0_
   fun:_ZN4mpcf7l1_normINS_3PcfIddEEEENT_10value_typeERKS3_
   fun:_ZZN12_GLOBAL__N_165PcfAlgebraAndNormsTest_ApplyFunctionalWithL1NormMultiplePcfs_TestIN4mpcf3PcfIddEEE8TestBodyEvENKUlRKS3_E_clES6_
   fun:_ZZN4mpcf16apply_functionalIN9__gnu_cxx17__normal_iteratorIPNS_3PcfIddEESt6vectorIS4_SaIS4_EEEENS2_IPdS6_IdSaIdEEEEZN12_GLOBAL__N_165PcfAlgebraAndNormsTest_ApplyFunctionalWithL1NormMultiplePcfs_TestIS4_E8TestBodyEvEUlRKS4_E_EEvT_SK_T0_T1_RNS_8ExecutorEENKUlRS4_E_clESP_
   fun:_ZZZZN2tf19make_transform_taskIN9__gnu_cxx17__normal_iteratorIPN4mpcf3PcfIddEESt6vectorIS5_SaIS5_EEEESA_NS2_IPdS7_IdSaIdEEEEZNS3_16apply_functionalISA_SE_ZN12_GLOBAL__N_165PcfAlgebraAndNormsTest_ApplyFunctionalWithL1NormMultiplePcfs_TestIS5_E8TestBodyEvEUlRKS5_E_EEvT_SM_T0_T1_RNS3_8ExecutorEEUlRS5_E_NS_17GuidedPartitionerINS_21DefaultClosureWrapperEEELPv0EEEDaSM_SN_SO_T2_T3_ENUlRNS_7RuntimeEE_clES10_ENUlvE0_clEvENUlmmE_clEmm
   fun:_ZNK2tf17GuidedPartitionerINS_21DefaultClosureWrapperEE4loopIZZZNS_19make_transform_taskIN9__gnu_cxx17__normal_iteratorIPN4mpcf3PcfIddEESt6vectorIS9_SaIS9_EEEESE_NS6_IPdSB_IdSaIdEEEEZNS7_16apply_functionalISE_SI_ZN12_GLOBAL__N_165PcfAlgebraAndNormsTest_ApplyFunctionalWithL1NormMultiplePcfs_TestIS9_E8TestBodyEvEUlRKS9_E_EEvT_SQ_T0_T1_RNS7_8ExecutorEEUlRS9_E_S2_LPv0EEEDaSQ_SR_SS_T2_T3_ENUlRNS_7RuntimeEE_clES11_ENUlvE0_clEvEUlmmE_LSX_0EEEvmmRSt6atomicImEOSQ_
   fun:_ZZZN2tf19make_transform_taskIN9__gnu_cxx17__normal_iteratorIPN4mpcf3PcfIddEESt6vectorIS5_SaIS5_EEEESA_NS2_IPdS7_IdSaIdEEEEZNS3_16apply_functionalISA_SE_ZN12_GLOBAL__N_165PcfAlgebraAndNormsTest_ApplyFunctionalWithL1NormMultiplePcfs_TestIS5_E8TestBodyEvEUlRKS5_E_EEvT_SM_T0_T1_RNS3_8ExecutorEEUlRS5_E_NS_17GuidedPartitionerINS_21DefaultClosureWrapperEEELPv0EEEDaSM_SN_SO_T2_T3_ENUlRNS_7RuntimeEE_clES10_ENUlvE0_clEv
   fun:_ZZN2tf19make_transform_taskIN9__gnu_cxx17__normal_iteratorIPN4mpcf3PcfIddEESt6vectorIS5_SaIS5_EEEESA_NS2_IPdS7_IdSaIdEEEEZNS3_16apply_functionalISA_SE_ZN12_GLOBAL__N_165PcfAlgebraAndNormsTest_ApplyFunctionalWithL1NormMultiplePcfs_TestIS5_E8TestBodyEvEUlRKS5_E_EEvT_SM_T0_T1_RNS3_8ExecutorEEUlRS5_E_NS_17GuidedPartitionerINS_21DefaultClosureWrapperEEELPv0EEEDaSM_SN_SO_T2_T3_ENUlRNS_7RuntimeEE_clES10_
   fun:_ZSt13__invoke_implIvRZN2tf19make_transform_taskIN9__gnu_cxx17__normal_iteratorIPN4mpcf3PcfIddEESt6vectorIS6_SaIS6_EEEESB_NS3_IPdS8_IdSaIdEEEEZNS4_16apply_functionalISB_SF_ZN12_GLOBAL__N_165PcfAlgebraAndNormsTest_ApplyFunctionalWithL1NormMultiplePcfs_TestIS6_E8TestBodyEvEUlRKS6_E_EEvT_SN_T0_T1_RNS4_8ExecutorEEUlRS6_E_NS0_17GuidedPartitionerINS0_21DefaultClosureWrapperEEELPv0EEEDaSN_SO_SP_T2_T3_EUlRNS0_7RuntimeEE_JS11_EESN_St14__invoke_otherOSO_DpOT1_
   fun:_ZSt10__invoke_rIvRZN2tf19make_transform_taskIN9__gnu_cxx17__normal_iteratorIPN4mpcf3PcfIddEESt6vectorIS6_SaIS6_EEEESB_NS3_IPdS8_IdSaIdEEEEZNS4_16apply_functionalISB_SF_ZN12_GLOBAL__N_165PcfAlgebraAndNormsTest_ApplyFunctionalWithL1NormMultiplePcfs_TestIS6_E8TestBodyEvEUlRKS6_E_EEvT_SN_T0_T1_RNS4_8ExecutorEEUlRS6_E_NS0_17GuidedPartitionerINS0_21DefaultClosureWrapperEEELPv0EEEDaSN_SO_SP_T2_T3_EUlRNS0_7RuntimeEE_JS11_EENSt9enable_ifIX16is_invocable_r_vISN_SO_DpT1_EESN_E4typeEOSO_DpOS15_
   fun:_ZNSt17_Function_handlerIFvRN2tf7RuntimeEEZNS0_19make_transform_taskIN9__gnu_cxx17__normal_iteratorIPN4mpcf3PcfIddEESt6vectorIS9_SaIS9_EEEESE_NS6_IPdSB_IdSaIdEEEEZNS7_16apply_functionalISE_SI_ZN12_GLOBAL__N_165PcfAlgebraAndNormsTest_ApplyFunctionalWithL1NormMultiplePcfs_TestIS9_E8TestBodyEvEUlRKS9_E_EEvT_SQ_T0_T1_RNS7_8ExecutorEEUlRS9_E_NS0_17GuidedPartitionerINS0_21DefaultClosureWrapperEEELPv0EEEDaSQ_SR_SS_T2_T3_EUlS2_E_E9_M_invokeERKSt9_Any_dataS2_
}
{
   <insert_a_suppression_name_here>
   Helgrind:Race
   fun:load
   fun:_ZNK2tf8Topology9cancelledEv
   fun:_ZN2tf8Executor19_tear_down_topologyERNS_6WorkerEPNS_8TopologyERPNS_4NodeE
   fun:_ZN2tf8Executor19_tear_down_nonasyncERNS_6WorkerEPNS_4NodeERS4_
   fun:_ZN2tf8Executor7_invokeERNS_6WorkerEPNS_4NodeE
   fun:_ZN2tf8Executor13_exploit_taskERNS_6WorkerERPNS_4NodeE
   fun:_ZZN2tf8Executor6_spawnEmSt10shared_ptrINS_15WorkerInterfaceEEENKUlvE_clEv
   fun:_ZSt13__invoke_implIvZN2tf8Executor6_spawnEmSt10shared_ptrINS0_15WorkerInterfaceEEEUlvE_JEET_St14__invoke_otherOT0_DpOT1_
   fun:_ZSt8__invokeIZN2tf8Executor6_spawnEmSt10shared_ptrINS0_15WorkerInterfaceEEEUlvE_JEENSt15__invoke_resultIT_JDpT0_EE4typeEOS7_DpOS8_
   fun:_ZNSt6thread8_InvokerISt5tupleIJZN2tf8Executor6_spawnEmSt10shared_ptrINS2_15WorkerInterfaceEEEUlvE_EEE9_M_invokeIJLm0EEEEvSt12_Index_tupleIJXspT_EEE
   fun:_ZNSt6thread8_InvokerISt5tupleIJZN2tf8Executor6_spawnEmSt10shared_ptrINS2_15WorkerInterfaceEEEUlvE_EEEclEv
   fun:_ZNSt6thread11_State_implINS_8_InvokerISt5tupleIJZN2tf8Executor6_spawnEmSt10shared_ptrINS3_15WorkerInterfaceEEEUlvE_EEEEE6_M_runEv
   obj:/usr/lib/x86_64-linux-gnu/libstdc++.so.6.0.33
}
{
   <insert_a_suppression_name_here>
   Helgrind:Race
   fun:_ZNSt14_Function_base13_Base_managerIZN2tf19make_transform_taskIN9__gnu_cxx17__normal_iteratorIPN4mpcf3PcfIddEESt6vectorIS7_SaIS7_EEEESC_NS4_IPdS9_IdSaIdEEEEZNS5_16apply_functionalISC_SG_ZN12_GLOBAL__N_165PcfAlgebraAndNormsTest_ApplyFunctionalWithL1NormMultiplePcfs_TestIS7_E8TestBodyEvEUlRKS7_E_EEvT_SO_T0_T1_RNS5_8ExecutorEEUlRS7_E_NS1_17GuidedPartitionerINS1_21DefaultClosureWrapperEEELPv0EEEDaSO_SP_SQ_T2_T3_EUlRNS1_7RuntimeEE_E10_M_destroyERSt9_Any_dataSt17integral_constantIbLb0EE
   fun:_ZNSt14_Function_base13_Base_managerIZN2tf19make_transform_taskIN9__gnu_cxx17__normal_iteratorIPN4mpcf3PcfIddEESt6vectorIS7_SaIS7_EEEESC_NS4_IPdS9_IdSaIdEEEEZNS5_16apply_functionalISC_SG_ZN12_GLOBAL__N_165PcfAlgebraAndNormsTest_ApplyFunctionalWithL1NormMultiplePcfs_TestIS7_E8TestBodyEvEUlRKS7_E_EEvT_SO_T0_T1_RNS5_8ExecutorEEUlRS7_E_NS1_17GuidedPartitionerINS1_21DefaultClosureWrapperEEELPv0EEEDaSO_SP_SQ_T2_T3_EUlRNS1_7RuntimeEE_E10_M_managerERSt9_Any_dataRKS15_St18_Manager_operation
   fun:_ZNSt17_Function_handlerIFvRN2tf7RuntimeEEZNS0_19make_transform_taskIN9__gnu_cxx17__normal_iteratorIPN4mpcf3PcfIddEESt6vectorIS9_SaIS9_EEEESE_NS6_IPdSB_IdSaIdEEEEZNS7_16apply_functionalISE_SI_ZN12_GLOBAL__N_165PcfAlgebraAndNormsTest_ApplyFunctionalWithL1NormMultiplePcfs_TestIS9_E8TestBodyEvEUlRKS9_E_EEvT_SQ_T0_T1_RNS7_8ExecutorEEUlRS9_E_NS0_17GuidedPartitionerINS0_21DefaultClosureWrapperEEELPv0EEEDaSQ_SR_SS_T2_T3_EUlS2_E_E10_M_managerERSt9_Any_dataRKS15_St18_Manager_operation
   fun:_ZNSt14_Function_baseD1Ev
   fun:_ZNSt8functionIFvRN2tf7RuntimeEEED1Ev
   fun:_ZN2tf4Node7RuntimeD1Ev
   fun:_ZSt10destroy_atIN2tf4Node7RuntimeEEvPT_
   fun:_ZSt8_DestroyIN2tf4Node7RuntimeEEvPT_
   fun:_ZZNSt8__detail9__variant16_Variant_storageILb0EJSt9monostateN2tf4Node6StaticENS4_7RuntimeENS4_20NonpreemptiveRuntimeENS4_7SubflowENS4_9ConditionENS4_14MultiConditionENS4_6ModuleENS4_5AsyncENS4_14DependentAsyncEEE8_M_resetEvENUlOT_E_clIRS6_EEDaSG_
   fun:_ZSt13__invoke_implIvZNSt8__detail9__variant16_Variant_storageILb0EJSt9monostateN2tf4Node6StaticENS5_7RuntimeENS5_20NonpreemptiveRuntimeENS5_7SubflowENS5_9ConditionENS5_14MultiConditionENS5_6ModuleENS5_5AsyncENS5_14DependentAsyncEEE8_M_resetEvEUlOT_E_JRS7_EESG_St14__invoke_otherOT0_DpOT1_
   fun:_ZSt10__invoke_rIvZNSt8__detail9__variant16_Variant_storageILb0EJSt9monostateN2tf4Node6StaticENS5_7RuntimeENS5_20NonpreemptiveRuntimeENS5_7SubflowENS5_9ConditionENS5_14MultiConditionENS5_6ModuleENS5_5AsyncENS5_14DependentAsyncEEE8_M_resetEvEUlOT_E_JRS7_EENSt9enable_ifIX16is_invocable_r_vISG_T0_DpT1_EESG_E4typeEOSL_DpOSM_
   fun:_ZNSt8__detail9__variant17__gen_vtable_implINS0_12_Multi_arrayIPFvOZNS0_16_Variant_storageILb0EJSt9monostateN2tf4Node6StaticENS6_7RuntimeENS6_20NonpreemptiveRuntimeENS6_7SubflowENS6_9ConditionENS6_14MultiConditionENS6_6ModuleENS6_5AsyncENS6_14DependentAsyncEEE8_M_resetEvEUlOT_E_RSt7variantIJS4_S7_S8_S9_SA_SB_SC_SD_SE_SF_EEEJEEESt16integer_sequenceImJLm2EEEE14__visit_invokeESK_SN_
}
{
   <insert_a_suppression_name_here>
   Helgrind:Race
   fun:_ZN7testing8internal11CmpHelperEQIddEENS_15AssertionResultEPKcS4_RKT_RKT0_
   fun:_ZN7testing8internal8EqHelper7CompareIddLPv0EEENS_15AssertionResultEPKcS6_RKT_RKT0_
   fun:_ZN12_GLOBAL__N_165PcfAlgebraAndNormsTest_ApplyFunctionalWithL1NormMultiplePcfs_TestIN4mpcf3PcfIddEEE8TestBodyEv
   fun:_ZN7testing8internal38HandleSehExceptionsInMethodIfSupportedINS_4TestEvEET0_PT_MS4_FS3_vEPKc
   fun:_ZN7testing8internal35HandleExceptionsInMethodIfSupportedINS_4TestEvEET0_PT_MS4_FS3_vEPKc
   fun:_ZN7testing4Test3RunEv
   fun:_ZN7testing8TestInfo3RunEv
   fun:_ZN7testing9TestSuite3RunEv
   fun:_ZN7testing8internal12UnitTestImpl11RunAllTestsEv
   fun:_ZN7testing8internal38HandleSehExceptionsInMethodIfSupportedINS0_12UnitTestImplEbEET0_PT_MS4_FS3_vEPKc
   fun:_ZN7testing8internal35HandleExceptionsInMethodIfSupportedINS0_12UnitTestImplEbEET0_PT_MS4_FS3_vEPKc
   fun:_ZN7testing8UnitTest3RunEv
}
{
   <insert_a_suppression_name_here>
   Helgrind:Race
   fun:_ZNK2tf4Node16num_predecessorsEv
   fun:_ZN2tf8Executor13_set_up_graphERNS_5GraphEPNS_8TopologyEPNS_8NodeBaseE
   fun:_ZN2tf8Executor27_schedule_graph_with_parentERNS_6WorkerERNS_5GraphEPNS_8TopologyEPNS_8NodeBaseE
   fun:_ZZN2tf8Executor9run_untilIZNS0_5run_nIZNS0_3runEONS_8TaskflowEEUlvE_EENS_6FutureIvEES4_mOT_EUlvE_S5_EES7_S4_S9_OT0_ENUlRNS_7RuntimeEE_clESE_
   fun:_ZSt13__invoke_implIvRZN2tf8Executor9run_untilIZNS1_5run_nIZNS1_3runEONS0_8TaskflowEEUlvE_EENS0_6FutureIvEES5_mOT_EUlvE_S6_EES8_S5_SA_OT0_EUlRNS0_7RuntimeEE_JSF_EES9_St14__invoke_otherSD_DpOT1_
   fun:_ZSt10__invoke_rIvRZN2tf8Executor9run_untilIZNS1_5run_nIZNS1_3runEONS0_8TaskflowEEUlvE_EENS0_6FutureIvEES5_mOT_EUlvE_S6_EES8_S5_SA_OT0_EUlRNS0_7RuntimeEE_JSF_EENSt9enable_ifIX16is_invocable_r_vIS9_SC_DpT1_EES9_E4typeESD_DpOSJ_
   fun:_ZNSt17_Function_handlerIFvRN2tf7RuntimeEEZNS0_8Executor9run_untilIZNS4_5run_nIZNS4_3runEONS0_8TaskflowEEUlvE_EENS0_6FutureIvEES8_mOT_EUlvE_S9_EESB_S8_SD_OT0_EUlS2_E_E9_M_invokeERKSt9_Any_dataS2_
   fun:_ZNKSt8functionIFvRN2tf7RuntimeEEEclES2_
   fun:_ZN2tf8Executor25_invoke_runtime_task_implERNS_6WorkerEPNS_4NodeERSt8functionIFvRNS_7RuntimeEEE
   fun:_ZN2tf8Executor18_invoke_async_taskERNS_6WorkerEPNS_4NodeE
   fun:_ZN2tf8Executor7_invokeERNS_6WorkerEPNS_4NodeE
   fun:_ZN2tf8Executor13_exploit_taskERNS_6WorkerERPNS_4NodeE
}
{
   <insert_a_suppression_name_here>
   Helgrind:Race
   fun:_ZNSt14_Function_base13_Base_managerIZZN4mpcf2ph23BarcodeToStableRankTaskIfE9run_asyncERNS1_8ExecutorEENKUlRKSt6vectorImSaImEEE_clESB_EUlvE_E14_M_get_pointerERKSt9_Any_data
   fun:_ZNSt17_Function_handlerIFvvEZZN4mpcf2ph23BarcodeToStableRankTaskIfE9run_asyncERNS1_8ExecutorEENKUlRKSt6vectorImSaImEEE_clESB_EUlvE_E9_M_invokeERKSt9_Any_data
   fun:_ZNKSt8functionIFvvEEclEv
   fun:_ZN2tf8Executor19_invoke_static_taskERNS_6WorkerEPNS_4NodeE
   fun:_ZN2tf8Executor7_invokeERNS_6WorkerEPNS_4NodeE
   fun:_ZN2tf8Executor13_exploit_taskERNS_6WorkerERPNS_4NodeE
   fun:_ZZN2tf8Executor6_spawnEmSt10shared_ptrINS_15WorkerInterfaceEEENKUlvE_clEv
   fun:_ZSt13__invoke_implIvZN2tf8Executor6_spawnEmSt10shared_ptrINS0_15WorkerInterfaceEEEUlvE_JEET_St14__invoke_otherOT0_DpOT1_
   fun:_ZSt8__invokeIZN2tf8Executor6_spawnEmSt10shared_ptrINS0_15WorkerInterfaceEEEUlvE_JEENSt15__invoke_resultIT_JDpT0_EE4typeEOS7_DpOS8_
   fun:_ZNSt6thread8_InvokerISt5tupleIJZN2tf8Executor6_spawnEmSt10shared_ptrINS2_15WorkerInterfaceEEEUlvE_EEE9_M_invokeIJLm0EEEEvSt12_Index_tupleIJXspT_EEE
   fun:_ZNSt6thread8_InvokerISt5tupleIJZN2tf8Executor6_spawnEmSt10shared_ptrINS2_15WorkerInterfaceEEEUlvE_EEEclEv
   fun:_ZNSt6thread11_State_implINS_8_InvokerISt5tupleIJZN2tf8Executor6_spawnEmSt10shared_ptrINS3_15WorkerInterfaceEEEUlvE_EEEEE6_M_runEv
}
{
   <insert_a_suppression_name_here>
   Helgrind:Race
   fun:_ZZZN4mpcf2ph23BarcodeToStableRankTaskIfE9run_asyncERNS_8ExecutorEENKUlRKSt6vectorImSaImEEE_clES9_ENKUlvE_clEv
   fun:_ZSt13__invoke_implIvRZZN4mpcf2ph23BarcodeToStableRankTaskIfE9run_asyncERNS0_8ExecutorEENKUlRKSt6vectorImSaImEEE_clESA_EUlvE_JEET_St14__invoke_otherOT0_DpOT1_
   fun:_ZSt10__invoke_rIvRZZN4mpcf2ph23BarcodeToStableRankTaskIfE9run_asyncERNS0_8ExecutorEENKUlRKSt6vectorImSaImEEE_clESA_EUlvE_JEENSt9enable_ifIX16is_invocable_r_vIT_T0_DpT1_EESF_E4typeEOSG_DpOSH_
   fun:_ZNSt17_Function_handlerIFvvEZZN4mpcf2ph23BarcodeToStableRankTaskIfE9run_asyncERNS1_8ExecutorEENKUlRKSt6vectorImSaImEEE_clESB_EUlvE_E9_M_invokeERKSt9_Any_data
   fun:_ZNKSt8functionIFvvEEclEv
   fun:_ZN2tf8Executor19_invoke_static_taskERNS_6WorkerEPNS_4NodeE
   fun:_ZN2tf8Executor7_invokeERNS_6WorkerEPNS_4NodeE
   fun:_ZN2tf8Executor13_exploit_taskERNS_6WorkerERPNS_4NodeE
   fun:_ZZN2tf8Executor6_spawnEmSt10shared_ptrINS_15WorkerInterfaceEEENKUlvE_clEv
   fun:_ZSt13__invoke_implIvZN2tf8Executor6_spawnEmSt10shared_ptrINS0_15WorkerInterfaceEEEUlvE_JEET_St14__invoke_otherOT0_DpOT1_
   fun:_ZSt8__invokeIZN2tf8Executor6_spawnEmSt10shared_ptrINS0_15WorkerInterfaceEEEUlvE_JEENSt15__invoke_resultIT_JDpT0_EE4typeEOS7_DpOS8_
   fun:_ZNSt6thread8_InvokerISt5tupleIJZN2tf8Executor6_spawnEmSt10shared_ptrINS2_15WorkerInterfaceEEEUlvE_EEE9_M_invokeIJLm0EEEEvSt12_Index_tupleIJXspT_EEE
}
{
   <insert_a_suppression_name_here>
   Helgrind:Race
   fun:_ZZZN4mpcf2ph23BarcodeToStableRankTaskIfE9run_asyncERNS_8ExecutorEENKUlRKSt6vectorImSaImEEE_clES9_ENKUlvE_clEv
   fun:_ZSt13__invoke_implIvRZZN4mpcf2ph23BarcodeToStableRankTaskIfE9run_asyncERNS0_8ExecutorEENKUlRKSt6vectorImSaImEEE_clESA_EUlvE_JEET_St14__invoke_otherOT0_DpOT1_
   fun:_ZSt10__invoke_rIvRZZN4mpcf2ph23BarcodeToStableRankTaskIfE9run_asyncERNS0_8ExecutorEENKUlRKSt6vectorImSaImEEE_clESA_EUlvE_JEENSt9enable_ifIX16is_invocable_r_vIT_T0_DpT1_EESF_E4typeEOSG_DpOSH_
   fun:_ZNSt17_Function_handlerIFvvEZZN4mpcf2ph23BarcodeToStableRankTaskIfE9run_asyncERNS1_8ExecutorEENKUlRKSt6vectorImSaImEEE_clESB_EUlvE_E9_M_invokeERKSt9_Any_data
   fun:_ZNKSt8functionIFvvEEclEv
   fun:_ZN2tf8Executor19_invoke_static_taskERNS_6WorkerEPNS_4NodeE
   fun:_ZN2tf8Executor7_invokeERNS_6WorkerEPNS_4NodeE
   fun:_ZN2tf8Executor13_exploit_taskERNS_6WorkerERPNS_4NodeE
   fun:_ZZN2tf8Executor6_spawnEmSt10shared_ptrINS_15WorkerInterfaceEEENKUlvE_clEv
   fun:_ZSt13__invoke_implIvZN2tf8Executor6_spawnEmSt10shared_ptrINS0_15WorkerInterfaceEEEUlvE_JEET_St14__invoke_otherOT0_DpOT1_
   fun:_ZSt8__invokeIZN2tf8Executor6_spawnEmSt10shared_ptrINS0_15WorkerInterfaceEEEUlvE_JEENSt15__invoke_resultIT_JDpT0_EE4typeEOS7_DpOS8_
   fun:_ZNSt6thread8_InvokerISt5tupleIJZN2tf8Executor6_spawnEmSt10shared_ptrINS2_15WorkerInterfaceEEEUlvE_EEE9_M_invokeIJLm0EEEEvSt12_Index_tupleIJXspT_EEE
}
{
   <insert_a_suppression_name_here>
   Helgrind:Race
   fun:_ZNK4mpcf6TensorINS_2ph7BarcodeIfEEE19index_to_data_indexERKSt6vectorImSaImEE
   fun:_ZNK4mpcf6TensorINS_2ph7BarcodeIfEEE12index_to_refERKSt6vectorImSaImEE
   fun:_ZNK4mpcf6TensorINS_2ph7BarcodeIfEEEclERKSt6vectorImSaImEE
   fun:_ZZZN4mpcf2ph23BarcodeToStableRankTaskIfE9run_asyncERNS_8ExecutorEENKUlRKSt6vectorImSaImEEE_clES9_ENKUlvE_clEv
   fun:_ZSt13__invoke_implIvRZZN4mpcf2ph23BarcodeToStableRankTaskIfE9run_asyncERNS0_8ExecutorEENKUlRKSt6vectorImSaImEEE_clESA_EUlvE_JEET_St14__invoke_otherOT0_DpOT1_
   fun:_ZSt10__invoke_rIvRZZN4mpcf2ph23BarcodeToStableRankTaskIfE9run_asyncERNS0_8ExecutorEENKUlRKSt6vectorImSaImEEE_clESA_EUlvE_JEENSt9enable_ifIX16is_invocable_r_vIT_T0_DpT1_EESF_E4typeEOSG_DpOSH_
   fun:_ZNSt17_Function_handlerIFvvEZZN4mpcf2ph23BarcodeToStableRankTaskIfE9run_asyncERNS1_8ExecutorEENKUlRKSt6vectorImSaImEEE_clESB_EUlvE_E9_M_invokeERKSt9_Any_data
   fun:_ZNKSt8functionIFvvEEclEv
   fun:_ZN2tf8Executor19_invoke_static_taskERNS_6WorkerEPNS_4NodeE
   fun:_ZN2tf8Executor7_invokeERNS_6WorkerEPNS_4NodeE
   fun:_ZN2tf8Executor13_exploit_taskERNS_6WorkerERPNS_4NodeE
   fun:_ZZN2tf8Executor6_spawnEmSt10shared_ptrINS_15WorkerInterfaceEEENKUlvE_clEv
}
{
   <insert_a_suppression_name_here>
   Helgrind:Race
   fun:_ZN9__gnu_cxx17__normal_iteratorIPKmSt6vectorImSaImEEEC1ERKS2_
   fun:_ZNKSt6vectorImSaImEE5beginEv
   fun:_ZNK4mpcf6TensorINS_2ph7BarcodeIfEEE19index_to_data_indexERKSt6vectorImSaImEE
   fun:_ZNK4mpcf6TensorINS_2ph7BarcodeIfEEE12index_to_refERKSt6vectorImSaImEE
   fun:_ZNK4mpcf6TensorINS_2ph7BarcodeIfEEEclERKSt6vectorImSaImEE
   fun:_ZZZN4mpcf2ph23BarcodeToStableRankTaskIfE9run_asyncERNS_8ExecutorEENKUlRKSt6vectorImSaImEEE_clES9_ENKUlvE_clEv
   fun:_ZSt13__invoke_implIvRZZN4mpcf2ph23BarcodeToStableRankTaskIfE9run_asyncERNS0_8ExecutorEENKUlRKSt6vectorImSaImEEE_clESA_EUlvE_JEET_St14__invoke_otherOT0_DpOT1_
   fun:_ZSt10__invoke_rIvRZZN4mpcf2ph23BarcodeToStableRankTaskIfE9run_asyncERNS0_8ExecutorEENKUlRKSt6vectorImSaImEEE_clESA_EUlvE_JEENSt9enable_ifIX16is_invocable_r_vIT_T0_DpT1_EESF_E4typeEOSG_DpOSH_
   fun:_ZNSt17_Function_handlerIFvvEZZN4mpcf2ph23BarcodeToStableRankTaskIfE9run_asyncERNS1_8ExecutorEENKUlRKSt6vectorImSaImEEE_clESB_EUlvE_E9_M_invokeERKSt9_Any_data
   fun:_ZNKSt8functionIFvvEEclEv
   fun:_ZN2tf8Executor19_invoke_static_taskERNS_6WorkerEPNS_4NodeE
   fun:_ZN2tf8Executor7_invokeERNS_6WorkerEPNS_4NodeE
}
{
   <insert_a_suppression_name_here>
   Helgrind:Race
   fun:_ZN9__gnu_cxx17__normal_iteratorIPKmSt6vectorImSaImEEEC1ERKS2_
   fun:_ZNKSt6vectorImSaImEE3endEv
   fun:_ZNK4mpcf6TensorINS_2ph7BarcodeIfEEE19index_to_data_indexERKSt6vectorImSaImEE
   fun:_ZNK4mpcf6TensorINS_2ph7BarcodeIfEEE12index_to_refERKSt6vectorImSaImEE
   fun:_ZNK4mpcf6TensorINS_2ph7BarcodeIfEEEclERKSt6vectorImSaImEE
   fun:_ZZZN4mpcf2ph23BarcodeToStableRankTaskIfE9run_asyncERNS_8ExecutorEENKUlRKSt6vectorImSaImEEE_clES9_ENKUlvE_clEv
   fun:_ZSt13__invoke_implIvRZZN4mpcf2ph23BarcodeToStableRankTaskIfE9run_asyncERNS0_8ExecutorEENKUlRKSt6vectorImSaImEEE_clESA_EUlvE_JEET_St14__invoke_otherOT0_DpOT1_
   fun:_ZSt10__invoke_rIvRZZN4mpcf2ph23BarcodeToStableRankTaskIfE9run_asyncERNS0_8ExecutorEENKUlRKSt6vectorImSaImEEE_clESA_EUlvE_JEENSt9enable_ifIX16is_invocable_r_vIT_T0_DpT1_EESF_E4typeEOSG_DpOSH_
   fun:_ZNSt17_Function_handlerIFvvEZZN4mpcf2ph23BarcodeToStableRankTaskIfE9run_asyncERNS1_8ExecutorEENKUlRKSt6vectorImSaImEEE_clESB_EUlvE_E9_M_invokeERKSt9_Any_data
   fun:_ZNKSt8functionIFvvEEclEv
   fun:_ZN2tf8Executor19_invoke_static_taskERNS_6WorkerEPNS_4NodeE
   fun:_ZN2tf8Executor7_invokeERNS_6WorkerEPNS_4NodeE
}
{
   <insert_a_suppression_name_here>
   Helgrind:Race
   fun:_ZSt13inner_productIN9__gnu_cxx17__normal_iteratorIPKmSt6vectorImSaImEEEES7_mET1_T_S9_T0_S8_
   fun:_ZNK4mpcf6TensorINS_2ph7BarcodeIfEEE19index_to_data_indexERKSt6vectorImSaImEE
   fun:_ZNK4mpcf6TensorINS_2ph7BarcodeIfEEE12index_to_refERKSt6vectorImSaImEE
   fun:_ZNK4mpcf6TensorINS_2ph7BarcodeIfEEEclERKSt6vectorImSaImEE
   fun:_ZZZN4mpcf2ph23BarcodeToStableRankTaskIfE9run_asyncERNS_8ExecutorEENKUlRKSt6vectorImSaImEEE_clES9_ENKUlvE_clEv
   fun:_ZSt13__invoke_implIvRZZN4mpcf2ph23BarcodeToStableRankTaskIfE9run_asyncERNS0_8ExecutorEENKUlRKSt6vectorImSaImEEE_clESA_EUlvE_JEET_St14__invoke_otherOT0_DpOT1_
   fun:_ZSt10__invoke_rIvRZZN4mpcf2ph23BarcodeToStableRankTaskIfE9run_asyncERNS0_8ExecutorEENKUlRKSt6vectorImSaImEEE_clESA_EUlvE_JEENSt9enable_ifIX16is_invocable_r_vIT_T0_DpT1_EESF_E4typeEOSG_DpOSH_
   fun:_ZNSt17_Function_handlerIFvvEZZN4mpcf2ph23BarcodeToStableRankTaskIfE9run_asyncERNS1_8ExecutorEENKUlRKSt6vectorImSaImEEE_clESB_EUlvE_E9_M_invokeERKSt9_Any_data
   fun:_ZNKSt8functionIFvvEEclEv
   fun:_ZN2tf8Executor19_invoke_static_taskERNS_6WorkerEPNS_4NodeE
   fun:_ZN2tf8Executor7_invokeERNS_6WorkerEPNS_4NodeE
   fun:_ZN2tf8Executor13_exploit_taskERNS_6WorkerERPNS_4NodeE
}
{
   <insert_a_suppression_name_here>
   Helgrind:Race
   fun:_ZSt13inner_productIN9__gnu_cxx17__normal_iteratorIPKmSt6vectorImSaImEEEES7_mET1_T_S9_T0_S8_
   fun:_ZNK4mpcf6TensorINS_2ph7BarcodeIfEEE19index_to_data_indexERKSt6vectorImSaImEE
   fun:_ZNK4mpcf6TensorINS_2ph7BarcodeIfEEE12index_to_refERKSt6vectorImSaImEE
   fun:_ZNK4mpcf6TensorINS_2ph7BarcodeIfEEEclERKSt6vectorImSaImEE
   fun:_ZZZN4mpcf2ph23BarcodeToStableRankTaskIfE9run_asyncERNS_8ExecutorEENKUlRKSt6vectorImSaImEEE_clES9_ENKUlvE_clEv
   fun:_ZSt13__invoke_implIvRZZN4mpcf2ph23BarcodeToStableRankTaskIfE9run_asyncERNS0_8ExecutorEENKUlRKSt6vectorImSaImEEE_clESA_EUlvE_JEET_St14__invoke_otherOT0_DpOT1_
   fun:_ZSt10__invoke_rIvRZZN4mpcf2ph23BarcodeToStableRankTaskIfE9run_asyncERNS0_8ExecutorEENKUlRKSt6vectorImSaImEEE_clESA_EUlvE_JEENSt9enable_ifIX16is_invocable_r_vIT_T0_DpT1_EESF_E4typeEOSG_DpOSH_
   fun:_ZNSt17_Function_handlerIFvvEZZN4mpcf2ph23BarcodeToStableRankTaskIfE9run_asyncERNS1_8ExecutorEENKUlRKSt6vectorImSaImEEE_clESB_EUlvE_E9_M_invokeERKSt9_Any_data
   fun:_ZNKSt8functionIFvvEEclEv
   fun:_ZN2tf8Executor19_invoke_static_taskERNS_6WorkerEPNS_4NodeE
   fun:_ZN2tf8Executor7_invokeERNS_6WorkerEPNS_4NodeE
   fun:_ZN2tf8Executor13_exploit_taskERNS_6WorkerERPNS_4NodeE
}
{
   <insert_a_suppression_name_here>
   Helgrind:Race
   fun:_ZNK4mpcf6TensorINS_2ph7BarcodeIfEEE19index_to_data_indexERKSt6vectorImSaImEE
   fun:_ZNK4mpcf6TensorINS_2ph7BarcodeIfEEE12index_to_refERKSt6vectorImSaImEE
   fun:_ZNK4mpcf6TensorINS_2ph7BarcodeIfEEEclERKSt6vectorImSaImEE
   fun:_ZZZN4mpcf2ph23BarcodeToStableRankTaskIfE9run_asyncERNS_8ExecutorEENKUlRKSt6vectorImSaImEEE_clES9_ENKUlvE_clEv
   fun:_ZSt13__invoke_implIvRZZN4mpcf2ph23BarcodeToStableRankTaskIfE9run_asyncERNS0_8ExecutorEENKUlRKSt6vectorImSaImEEE_clESA_EUlvE_JEET_St14__invoke_otherOT0_DpOT1_
   fun:_ZSt10__invoke_rIvRZZN4mpcf2ph23BarcodeToStableRankTaskIfE9run_asyncERNS0_8ExecutorEENKUlRKSt6vectorImSaImEEE_clESA_EUlvE_JEENSt9enable_ifIX16is_invocable_r_vIT_T0_DpT1_EESF_E4typeEOSG_DpOSH_
   fun:_ZNSt17_Function_handlerIFvvEZZN4mpcf2ph23BarcodeToStableRankTaskIfE9run_asyncERNS1_8ExecutorEENKUlRKSt6vectorImSaImEEE_clESB_EUlvE_E9_M_invokeERKSt9_Any_data
   fun:_ZNKSt8functionIFvvEEclEv
   fun:_ZN2tf8Executor19_invoke_static_taskERNS_6WorkerEPNS_4NodeE
   fun:_ZN2tf8Executor7_invokeERNS_6WorkerEPNS_4NodeE
   fun:_ZN2tf8Executor13_exploit_taskERNS_6WorkerERPNS_4NodeE
   fun:_ZZN2tf8Executor6_spawnEmSt10shared_ptrINS_15WorkerInterfaceEEENKUlvE_clEv
}
{
   <insert_a_suppression_name_here>
   Helgrind:Race
   fun:_ZNKSt12__shared_ptrIA_N4mpcf2ph7BarcodeIfEELN9__gnu_cxx12_Lock_policyE2EE3getEv
   fun:_ZNKSt19__shared_ptr_accessIA_N4mpcf2ph7BarcodeIfEELN9__gnu_cxx12_Lock_policyE2ELb1ELb0EE6_M_getEv
   fun:_ZNKSt19__shared_ptr_accessIA_N4mpcf2ph7BarcodeIfEELN9__gnu_cxx12_Lock_policyE2ELb1ELb0EEixEl
   fun:_ZNK4mpcf6TensorINS_2ph7BarcodeIfEEE12index_to_refERKSt6vectorImSaImEE
   fun:_ZNK4mpcf6TensorINS_2ph7BarcodeIfEEEclERKSt6vectorImSaImEE
   fun:_ZZZN4mpcf2ph23BarcodeToStableRankTaskIfE9run_asyncERNS_8ExecutorEENKUlRKSt6vectorImSaImEEE_clES9_ENKUlvE_clEv
   fun:_ZSt13__invoke_implIvRZZN4mpcf2ph23BarcodeToStableRankTaskIfE9run_asyncERNS0_8ExecutorEENKUlRKSt6vectorImSaImEEE_clESA_EUlvE_JEET_St14__invoke_otherOT0_DpOT1_
   fun:_ZSt10__invoke_rIvRZZN4mpcf2ph23BarcodeToStableRankTaskIfE9run_asyncERNS0_8ExecutorEENKUlRKSt6vectorImSaImEEE_clESA_EUlvE_JEENSt9enable_ifIX16is_invocable_r_vIT_T0_DpT1_EESF_E4typeEOSG_DpOSH_
   fun:_ZNSt17_Function_handlerIFvvEZZN4mpcf2ph23BarcodeToStableRankTaskIfE9run_asyncERNS1_8ExecutorEENKUlRKSt6vectorImSaImEEE_clESB_EUlvE_E9_M_invokeERKSt9_Any_data
   fun:_ZNKSt8functionIFvvEEclEv
   fun:_ZN2tf8Executor19_invoke_static_taskERNS_6WorkerEPNS_4NodeE
   fun:_ZN2tf8Executor7_invokeERNS_6WorkerEPNS_4NodeE
}
{
   <insert_a_suppression_name_here>
   Helgrind:Race
   fun:_ZN9__gnu_cxx17__normal_iteratorIPKN4mpcf2ph15PersistencePairIfEESt6vectorIS4_SaIS4_EEEC1ERKS6_
   fun:_ZNKSt6vectorIN4mpcf2ph15PersistencePairIfEESaIS3_EE3endEv
   fun:_ZNKSt6vectorIN4mpcf2ph15PersistencePairIfEESaIS3_EE5emptyEv
   fun:_ZN4mpcf2ph22barcode_to_stable_rankIfEENS_3PcfIT_S3_EERKNS0_7BarcodeIS3_EE
   fun:_ZZZN4mpcf2ph23BarcodeToStableRankTaskIfE9run_asyncERNS_8ExecutorEENKUlRKSt6vectorImSaImEEE_clES9_ENKUlvE_clEv
   fun:_ZSt13__invoke_implIvRZZN4mpcf2ph23BarcodeToStableRankTaskIfE9run_asyncERNS0_8ExecutorEENKUlRKSt6vectorImSaImEEE_clESA_EUlvE_JEET_St14__invoke_otherOT0_DpOT1_
   fun:_ZSt10__invoke_rIvRZZN4mpcf2ph23BarcodeToStableRankTaskIfE9run_asyncERNS0_8ExecutorEENKUlRKSt6vectorImSaImEEE_clESA_EUlvE_JEENSt9enable_ifIX16is_invocable_r_vIT_T0_DpT1_EESF_E4typeEOSG_DpOSH_
   fun:_ZNSt17_Function_handlerIFvvEZZN4mpcf2ph23BarcodeToStableRankTaskIfE9run_asyncERNS1_8ExecutorEENKUlRKSt6vectorImSaImEEE_clESB_EUlvE_E9_M_invokeERKSt9_Any_data
   fun:_ZNKSt8functionIFvvEEclEv
   fun:_ZN2tf8Executor19_invoke_static_taskERNS_6WorkerEPNS_4NodeE
   fun:_ZN2tf8Executor7_invokeERNS_6WorkerEPNS_4NodeE
   fun:_ZN2tf8Executor13_exploit_taskERNS_6WorkerERPNS_4NodeE
}
{
   <insert_a_suppression_name_here>
   Helgrind:Race
   fun:_ZN9__gnu_cxx17__normal_iteratorIPKN4mpcf2ph15PersistencePairIfEESt6vectorIS4_SaIS4_EEEC1ERKS6_
   fun:_ZNKSt6vectorIN4mpcf2ph15PersistencePairIfEESaIS3_EE5beginEv
   fun:_ZNKSt6vectorIN4mpcf2ph15PersistencePairIfEESaIS3_EE5emptyEv
   fun:_ZN4mpcf2ph22barcode_to_stable_rankIfEENS_3PcfIT_S3_EERKNS0_7BarcodeIS3_EE
   fun:_ZZZN4mpcf2ph23BarcodeToStableRankTaskIfE9run_asyncERNS_8ExecutorEENKUlRKSt6vectorImSaImEEE_clES9_ENKUlvE_clEv
   fun:_ZSt13__invoke_implIvRZZN4mpcf2ph23BarcodeToStableRankTaskIfE9run_asyncERNS0_8ExecutorEENKUlRKSt6vectorImSaImEEE_clESA_EUlvE_JEET_St14__invoke_otherOT0_DpOT1_
   fun:_ZSt10__invoke_rIvRZZN4mpcf2ph23BarcodeToStableRankTaskIfE9run_asyncERNS0_8ExecutorEENKUlRKSt6vectorImSaImEEE_clESA_EUlvE_JEENSt9enable_ifIX16is_invocable_r_vIT_T0_DpT1_EESF_E4typeEOSG_DpOSH_
   fun:_ZNSt17_Function_handlerIFvvEZZN4mpcf2ph23BarcodeToStableRankTaskIfE9run_asyncERNS1_8ExecutorEENKUlRKSt6vectorImSaImEEE_clESB_EUlvE_E9_M_invokeERKSt9_Any_data
   fun:_ZNKSt8functionIFvvEEclEv
   fun:_ZN2tf8Executor19_invoke_static_taskERNS_6WorkerEPNS_4NodeE
   fun:_ZN2tf8Executor7_invokeERNS_6WorkerEPNS_4NodeE
   fun:_ZN2tf8Executor13_exploit_taskERNS_6WorkerERPNS_4NodeE
}
{
   <insert_a_suppression_name_here>
   Helgrind:Race
   fun:_ZZN4mpcf2ph22barcode_to_stable_rankIfEENS_3PcfIT_S3_EERKNS0_7BarcodeIS3_EEENKUlRKNS0_15PersistencePairIfEEE_clESC_
   fun:_ZSt9transformIN9__gnu_cxx17__normal_iteratorIPKN4mpcf2ph15PersistencePairIfEESt6vectorIS5_SaIS5_EEEESt20back_insert_iteratorIS8_IfSaIfEEEZNS3_22barcode_to_stable_rankIfEENS2_3PcfIT_SI_EERKNS3_7BarcodeISI_EEEUlRS6_E_ET0_SI_SI_SQ_T1_
   fun:_ZN4mpcf2ph22barcode_to_stable_rankIfEENS_3PcfIT_S3_EERKNS0_7BarcodeIS3_EE
   fun:_ZZZN4mpcf2ph23BarcodeToStableRankTaskIfE9run_asyncERNS_8ExecutorEENKUlRKSt6vectorImSaImEEE_clES9_ENKUlvE_clEv
   fun:_ZSt13__invoke_implIvRZZN4mpcf2ph23BarcodeToStableRankTaskIfE9run_asyncERNS0_8ExecutorEENKUlRKSt6vectorImSaImEEE_clESA_EUlvE_JEET_St14__invoke_otherOT0_DpOT1_
   fun:_ZSt10__invoke_rIvRZZN4mpcf2ph23BarcodeToStableRankTaskIfE9run_asyncERNS0_8ExecutorEENKUlRKSt6vectorImSaImEEE_clESA_EUlvE_JEENSt9enable_ifIX16is_invocable_r_vIT_T0_DpT1_EESF_E4typeEOSG_DpOSH_
   fun:_ZNSt17_Function_handlerIFvvEZZN4mpcf2ph23BarcodeToStableRankTaskIfE9run_asyncERNS1_8ExecutorEENKUlRKSt6vectorImSaImEEE_clESB_EUlvE_E9_M_invokeERKSt9_Any_data
   fun:_ZNKSt8functionIFvvEEclEv
   fun:_ZN2tf8Executor19_invoke_static_taskERNS_6WorkerEPNS_4NodeE
   fun:_ZN2tf8Executor7_invokeERNS_6WorkerEPNS_4NodeE
   fun:_ZN2tf8Executor13_exploit_taskERNS_6WorkerERPNS_4NodeE
   fun:_ZZN2tf8Executor6_spawnEmSt10shared_ptrINS_15WorkerInterfaceEEENKUlvE_clEv
}
{
   <insert_a_suppression_name_here>
   Helgrind:Race
   fun:_ZZN4mpcf2ph22barcode_to_stable_rankIfEENS_3PcfIT_S3_EERKNS0_7BarcodeIS3_EEENKUlRKNS0_15PersistencePairIfEEE_clESC_
   fun:_ZSt9transformIN9__gnu_cxx17__normal_iteratorIPKN4mpcf2ph15PersistencePairIfEESt6vectorIS5_SaIS5_EEEESt20back_insert_iteratorIS8_IfSaIfEEEZNS3_22barcode_to_stable_rankIfEENS2_3PcfIT_SI_EERKNS3_7BarcodeISI_EEEUlRS6_E_ET0_SI_SI_SQ_T1_
   fun:_ZN4mpcf2ph22barcode_to_stable_rankIfEENS_3PcfIT_S3_EERKNS0_7BarcodeIS3_EE
   fun:_ZZZN4mpcf2ph23BarcodeToStableRankTaskIfE9run_asyncERNS_8ExecutorEENKUlRKSt6vectorImSaImEEE_clES9_ENKUlvE_clEv
   fun:_ZSt13__invoke_implIvRZZN4mpcf2ph23BarcodeToStableRankTaskIfE9run_asyncERNS0_8ExecutorEENKUlRKSt6vectorImSaImEEE_clESA_EUlvE_JEET_St14__invoke_otherOT0_DpOT1_
   fun:_ZSt10__invoke_rIvRZZN4mpcf2ph23BarcodeToStableRankTaskIfE9run_asyncERNS0_8ExecutorEENKUlRKSt6vectorImSaImEEE_clESA_EUlvE_JEENSt9enable_ifIX16is_invocable_r_vIT_T0_DpT1_EESF_E4typeEOSG_DpOSH_
   fun:_ZNSt17_Function_handlerIFvvEZZN4mpcf2ph23BarcodeToStableRankTaskIfE9run_asyncERNS1_8ExecutorEENKUlRKSt6vectorImSaImEEE_clESB_EUlvE_E9_M_invokeERKSt9_Any_data
   fun:_ZNKSt8functionIFvvEEclEv
   fun:_ZN2tf8Executor19_invoke_static_taskERNS_6WorkerEPNS_4NodeE
   fun:_ZN2tf8Executor7_invokeERNS_6WorkerEPNS_4NodeE
   fun:_ZN2tf8Executor13_exploit_taskERNS_6WorkerERPNS_4NodeE
   fun:_ZZN2tf8Executor6_spawnEmSt10shared_ptrINS_15WorkerInterfaceEEENKUlvE_clEv
}
{
   <insert_a_suppression_name_here>
   Helgrind:Race
   fun:_ZZZN4mpcf2ph23BarcodeToStableRankTaskIfE9run_asyncERNS_8ExecutorEENKUlRKSt6vectorImSaImEEE_clES9_ENKUlvE_clEv
   fun:_ZSt13__invoke_implIvRZZN4mpcf2ph23BarcodeToStableRankTaskIfE9run_asyncERNS0_8ExecutorEENKUlRKSt6vectorImSaImEEE_clESA_EUlvE_JEET_St14__invoke_otherOT0_DpOT1_
   fun:_ZSt10__invoke_rIvRZZN4mpcf2ph23BarcodeToStableRankTaskIfE9run_asyncERNS0_8ExecutorEENKUlRKSt6vectorImSaImEEE_clESA_EUlvE_JEENSt9enable_ifIX16is_invocable_r_vIT_T0_DpT1_EESF_E4typeEOSG_DpOSH_
   fun:_ZNSt17_Function_handlerIFvvEZZN4mpcf2ph23BarcodeToStableRankTaskIfE9run_asyncERNS1_8ExecutorEENKUlRKSt6vectorImSaImEEE_clESB_EUlvE_E9_M_invokeERKSt9_Any_data
   fun:_ZNKSt8functionIFvvEEclEv
   fun:_ZN2tf8Executor19_invoke_static_taskERNS_6WorkerEPNS_4NodeE
   fun:_ZN2tf8Executor7_invokeERNS_6WorkerEPNS_4NodeE
   fun:_ZN2tf8Executor13_exploit_taskERNS_6WorkerERPNS_4NodeE
   fun:_ZZN2tf8Executor6_spawnEmSt10shared_ptrINS_15WorkerInterfaceEEENKUlvE_clEv
   fun:_ZSt13__invoke_implIvZN2tf8Executor6_spawnEmSt10shared_ptrINS0_15WorkerInterfaceEEEUlvE_JEET_St14__invoke_otherOT0_DpOT1_
   fun:_ZSt8__invokeIZN2tf8Executor6_spawnEmSt10shared_ptrINS0_15WorkerInterfaceEEEUlvE_JEENSt15__invoke_resultIT_JDpT0_EE4typeEOS7_DpOS8_
   fun:_ZNSt6thread8_InvokerISt5tupleIJZN2tf8Executor6_spawnEmSt10shared_ptrINS2_15WorkerInterfaceEEEUlvE_EEE9_M_invokeIJLm0EEEEvSt12_Index_tupleIJXspT_EEE
}
{
   <insert_a_suppression_name_here>
   Helgrind:Race
   fun:_ZNK4mpcf6TensorINS_3PcfIffEEE19index_to_data_indexERKSt6vectorImSaImEE
   fun:_ZN4mpcf6TensorINS_3PcfIffEEE12index_to_refERKSt6vectorImSaImEE
   fun:_ZN4mpcf6TensorINS_3PcfIffEEEclERKSt6vectorImSaImEE
   fun:_ZZZN4mpcf2ph23BarcodeToStableRankTaskIfE9run_asyncERNS_8ExecutorEENKUlRKSt6vectorImSaImEEE_clES9_ENKUlvE_clEv
   fun:_ZSt13__invoke_implIvRZZN4mpcf2ph23BarcodeToStableRankTaskIfE9run_asyncERNS0_8ExecutorEENKUlRKSt6vectorImSaImEEE_clESA_EUlvE_JEET_St14__invoke_otherOT0_DpOT1_
   fun:_ZSt10__invoke_rIvRZZN4mpcf2ph23BarcodeToStableRankTaskIfE9run_asyncERNS0_8ExecutorEENKUlRKSt6vectorImSaImEEE_clESA_EUlvE_JEENSt9enable_ifIX16is_invocable_r_vIT_T0_DpT1_EESF_E4typeEOSG_DpOSH_
   fun:_ZNSt17_Function_handlerIFvvEZZN4mpcf2ph23BarcodeToStableRankTaskIfE9run_asyncERNS1_8ExecutorEENKUlRKSt6vectorImSaImEEE_clESB_EUlvE_E9_M_invokeERKSt9_Any_data
   fun:_ZNKSt8functionIFvvEEclEv
   fun:_ZN2tf8Executor19_invoke_static_taskERNS_6WorkerEPNS_4NodeE
   fun:_ZN2tf8Executor7_invokeERNS_6WorkerEPNS_4NodeE
   fun:_ZN2tf8Executor13_exploit_taskERNS_6WorkerERPNS_4NodeE
   fun:_ZZN2tf8Executor6_spawnEmSt10shared_ptrINS_15WorkerInterfaceEEENKUlvE_clEv
}
{
   <insert_a_suppression_name_here>
   Helgrind:Race
   fun:_ZSt13inner_productIN9__gnu_cxx17__normal_iteratorIPKmSt6vectorImSaImEEEES7_mET1_T_S9_T0_S8_
   fun:_ZNK4mpcf6TensorINS_3PcfIffEEE19index_to_data_indexERKSt6vectorImSaImEE
   fun:_ZN4mpcf6TensorINS_3PcfIffEEE12index_to_refERKSt6vectorImSaImEE
   fun:_ZN4mpcf6TensorINS_3PcfIffEEEclERKSt6vectorImSaImEE
   fun:_ZZZN4mpcf2ph23BarcodeToStableRankTaskIfE9run_asyncERNS_8ExecutorEENKUlRKSt6vectorImSaImEEE_clES9_ENKUlvE_clEv
   fun:_ZSt13__invoke_implIvRZZN4mpcf2ph23BarcodeToStableRankTaskIfE9run_asyncERNS0_8ExecutorEENKUlRKSt6vectorImSaImEEE_clESA_EUlvE_JEET_St14__invoke_otherOT0_DpOT1_
   fun:_ZSt10__invoke_rIvRZZN4mpcf2ph23BarcodeToStableRankTaskIfE9run_asyncERNS0_8ExecutorEENKUlRKSt6vectorImSaImEEE_clESA_EUlvE_JEENSt9enable_ifIX16is_invocable_r_vIT_T0_DpT1_EESF_E4typeEOSG_DpOSH_
   fun:_ZNSt17_Function_handlerIFvvEZZN4mpcf2ph23BarcodeToStableRankTaskIfE9run_asyncERNS1_8ExecutorEENKUlRKSt6vectorImSaImEEE_clESB_EUlvE_E9_M_invokeERKSt9_Any_data
   fun:_ZNKSt8functionIFvvEEclEv
   fun:_ZN2tf8Executor19_invoke_static_taskERNS_6WorkerEPNS_4NodeE
   fun:_ZN2tf8Executor7_invokeERNS_6WorkerEPNS_4NodeE
   fun:_ZN2tf8Executor13_exploit_taskERNS_6WorkerERPNS_4NodeE
}
{
   <insert_a_suppression_name_here>
   Helgrind:Race
   fun:_ZNK4mpcf6TensorINS_3PcfIffEEE19index_to_data_indexERKSt6vectorImSaImEE
   fun:_ZN4mpcf6TensorINS_3PcfIffEEE12index_to_refERKSt6vectorImSaImEE
   fun:_ZN4mpcf6TensorINS_3PcfIffEEEclERKSt6vectorImSaImEE
   fun:_ZZZN4mpcf2ph23BarcodeToStableRankTaskIfE9run_asyncERNS_8ExecutorEENKUlRKSt6vectorImSaImEEE_clES9_ENKUlvE_clEv
   fun:_ZSt13__invoke_implIvRZZN4mpcf2ph23BarcodeToStableRankTaskIfE9run_asyncERNS0_8ExecutorEENKUlRKSt6vectorImSaImEEE_clESA_EUlvE_JEET_St14__invoke_otherOT0_DpOT1_
   fun:_ZSt10__invoke_rIvRZZN4mpcf2ph23BarcodeToStableRankTaskIfE9run_asyncERNS0_8ExecutorEENKUlRKSt6vectorImSaImEEE_clESA_EUlvE_JEENSt9enable_ifIX16is_invocable_r_vIT_T0_DpT1_EESF_E4typeEOSG_DpOSH_
   fun:_ZNSt17_Function_handlerIFvvEZZN4mpcf2ph23BarcodeToStableRankTaskIfE9run_asyncERNS1_8ExecutorEENKUlRKSt6vectorImSaImEEE_clESB_EUlvE_E9_M_invokeERKSt9_Any_data
   fun:_ZNKSt8functionIFvvEEclEv
   fun:_ZN2tf8Executor19_invoke_static_taskERNS_6WorkerEPNS_4NodeE
   fun:_ZN2tf8Executor7_invokeERNS_6WorkerEPNS_4NodeE
   fun:_ZN2tf8Executor13_exploit_taskERNS_6WorkerERPNS_4NodeE
   fun:_ZZN2tf8Executor6_spawnEmSt10shared_ptrINS_15WorkerInterfaceEEENKUlvE_clEv
}
{
   <insert_a_suppression_name_here>
   Helgrind:Race
   fun:_ZNKSt12__shared_ptrIA_N4mpcf3PcfIffEELN9__gnu_cxx12_Lock_policyE2EE3getEv
   fun:_ZNKSt19__shared_ptr_accessIA_N4mpcf3PcfIffEELN9__gnu_cxx12_Lock_policyE2ELb1ELb0EE6_M_getEv
   fun:_ZNKSt19__shared_ptr_accessIA_N4mpcf3PcfIffEELN9__gnu_cxx12_Lock_policyE2ELb1ELb0EEixEl
   fun:_ZN4mpcf6TensorINS_3PcfIffEEE12index_to_refERKSt6vectorImSaImEE
   fun:_ZN4mpcf6TensorINS_3PcfIffEEEclERKSt6vectorImSaImEE
   fun:_ZZZN4mpcf2ph23BarcodeToStableRankTaskIfE9run_asyncERNS_8ExecutorEENKUlRKSt6vectorImSaImEEE_clES9_ENKUlvE_clEv
   fun:_ZSt13__invoke_implIvRZZN4mpcf2ph23BarcodeToStableRankTaskIfE9run_asyncERNS0_8ExecutorEENKUlRKSt6vectorImSaImEEE_clESA_EUlvE_JEET_St14__invoke_otherOT0_DpOT1_
   fun:_ZSt10__invoke_rIvRZZN4mpcf2ph23BarcodeToStableRankTaskIfE9run_asyncERNS0_8ExecutorEENKUlRKSt6vectorImSaImEEE_clESA_EUlvE_JEENSt9enable_ifIX16is_invocable_r_vIT_T0_DpT1_EESF_E4typeEOSG_DpOSH_
   fun:_ZNSt17_Function_handlerIFvvEZZN4mpcf2ph23BarcodeToStableRankTaskIfE9run_asyncERNS1_8ExecutorEENKUlRKSt6vectorImSaImEEE_clESB_EUlvE_E9_M_invokeERKSt9_Any_data
   fun:_ZNKSt8functionIFvvEEclEv
   fun:_ZN2tf8Executor19_invoke_static_taskERNS_6WorkerEPNS_4NodeE
   fun:_ZN2tf8Executor7_invokeERNS_6WorkerEPNS_4NodeE
}
{
   <insert_a_suppression_name_here>
   Helgrind:Race
   fun:_ZNSt12_Vector_baseIN4mpcf5PointIffEESaIS2_EE17_Vector_impl_data12_M_copy_dataERKS5_
   fun:_ZNSt12_Vector_baseIN4mpcf5PointIffEESaIS2_EE17_Vector_impl_data12_M_swap_dataERS5_
   fun:_ZNSt6vectorIN4mpcf5PointIffEESaIS2_EE14_M_move_assignEOS4_St17integral_constantIbLb1EE
   fun:_ZNSt6vectorIN4mpcf5PointIffEESaIS2_EEaSEOS4_
   fun:_ZN4mpcf3PcfIffEaSEOS1_
   fun:_ZZZN4mpcf2ph23BarcodeToStableRankTaskIfE9run_asyncERNS_8ExecutorEENKUlRKSt6vectorImSaImEEE_clES9_ENKUlvE_clEv
   fun:_ZSt13__invoke_implIvRZZN4mpcf2ph23BarcodeToStableRankTaskIfE9run_asyncERNS0_8ExecutorEENKUlRKSt6vectorImSaImEEE_clESA_EUlvE_JEET_St14__invoke_otherOT0_DpOT1_
   fun:_ZSt10__invoke_rIvRZZN4mpcf2ph23BarcodeToStableRankTaskIfE9run_asyncERNS0_8ExecutorEENKUlRKSt6vectorImSaImEEE_clESA_EUlvE_JEENSt9enable_ifIX16is_invocable_r_vIT_T0_DpT1_EESF_E4typeEOSG_DpOSH_
   fun:_ZNSt17_Function_handlerIFvvEZZN4mpcf2ph23BarcodeToStableRankTaskIfE9run_asyncERNS1_8ExecutorEENKUlRKSt6vectorImSaImEEE_clESB_EUlvE_E9_M_invokeERKSt9_Any_data
   fun:_ZNKSt8functionIFvvEEclEv
   fun:_ZN2tf8Executor19_invoke_static_taskERNS_6WorkerEPNS_4NodeE
   fun:_ZN2tf8Executor7_invokeERNS_6WorkerEPNS_4NodeE
}
{
   <insert_a_suppression_name_here>
   Helgrind:Race
   fun:_ZNSt12_Vector_baseIN4mpcf5PointIffEESaIS2_EE17_Vector_impl_data12_M_copy_dataERKS5_
   fun:_ZNSt12_Vector_baseIN4mpcf5PointIffEESaIS2_EE17_Vector_impl_data12_M_swap_dataERS5_
   fun:_ZNSt6vectorIN4mpcf5PointIffEESaIS2_EE14_M_move_assignEOS4_St17integral_constantIbLb1EE
   fun:_ZNSt6vectorIN4mpcf5PointIffEESaIS2_EEaSEOS4_
   fun:_ZN4mpcf3PcfIffEaSEOS1_
   fun:_ZZZN4mpcf2ph23BarcodeToStableRankTaskIfE9run_asyncERNS_8ExecutorEENKUlRKSt6vectorImSaImEEE_clES9_ENKUlvE_clEv
   fun:_ZSt13__invoke_implIvRZZN4mpcf2ph23BarcodeToStableRankTaskIfE9run_asyncERNS0_8ExecutorEENKUlRKSt6vectorImSaImEEE_clESA_EUlvE_JEET_St14__invoke_otherOT0_DpOT1_
   fun:_ZSt10__invoke_rIvRZZN4mpcf2ph23BarcodeToStableRankTaskIfE9run_asyncERNS0_8ExecutorEENKUlRKSt6vectorImSaImEEE_clESA_EUlvE_JEENSt9enable_ifIX16is_invocable_r_vIT_T0_DpT1_EESF_E4typeEOSG_DpOSH_
   fun:_ZNSt17_Function_handlerIFvvEZZN4mpcf2ph23BarcodeToStableRankTaskIfE9run_asyncERNS1_8ExecutorEENKUlRKSt6vectorImSaImEEE_clESB_EUlvE_E9_M_invokeERKSt9_Any_data
   fun:_ZNKSt8functionIFvvEEclEv
   fun:_ZN2tf8Executor19_invoke_static_taskERNS_6WorkerEPNS_4NodeE
   fun:_ZN2tf8Executor7_invokeERNS_6WorkerEPNS_4NodeE
}
{
   <insert_a_suppression_name_here>
   Helgrind:Race
   fun:_ZNSt12_Vector_baseIN4mpcf5PointIffEESaIS2_EE17_Vector_impl_data12_M_copy_dataERKS5_
   fun:_ZNSt12_Vector_baseIN4mpcf5PointIffEESaIS2_EE17_Vector_impl_data12_M_swap_dataERS5_
   fun:_ZNSt6vectorIN4mpcf5PointIffEESaIS2_EE14_M_move_assignEOS4_St17integral_constantIbLb1EE
   fun:_ZNSt6vectorIN4mpcf5PointIffEESaIS2_EEaSEOS4_
   fun:_ZN4mpcf3PcfIffEaSEOS1_
   fun:_ZZZN4mpcf2ph23BarcodeToStableRankTaskIfE9run_asyncERNS_8ExecutorEENKUlRKSt6vectorImSaImEEE_clES9_ENKUlvE_clEv
   fun:_ZSt13__invoke_implIvRZZN4mpcf2ph23BarcodeToStableRankTaskIfE9run_asyncERNS0_8ExecutorEENKUlRKSt6vectorImSaImEEE_clESA_EUlvE_JEET_St14__invoke_otherOT0_DpOT1_
   fun:_ZSt10__invoke_rIvRZZN4mpcf2ph23BarcodeToStableRankTaskIfE9run_asyncERNS0_8ExecutorEENKUlRKSt6vectorImSaImEEE_clESA_EUlvE_JEENSt9enable_ifIX16is_invocable_r_vIT_T0_DpT1_EESF_E4typeEOSG_DpOSH_
   fun:_ZNSt17_Function_handlerIFvvEZZN4mpcf2ph23BarcodeToStableRankTaskIfE9run_asyncERNS1_8ExecutorEENKUlRKSt6vectorImSaImEEE_clESB_EUlvE_E9_M_invokeERKSt9_Any_data
   fun:_ZNKSt8functionIFvvEEclEv
   fun:_ZN2tf8Executor19_invoke_static_taskERNS_6WorkerEPNS_4NodeE
   fun:_ZN2tf8Executor7_invokeERNS_6WorkerEPNS_4NodeE
}
{
   <insert_a_suppression_name_here>
   Helgrind:Race
   fun:_ZNSt12_Vector_baseIN4mpcf5PointIffEESaIS2_EE17_Vector_impl_data12_M_copy_dataERKS5_
   fun:_ZNSt12_Vector_baseIN4mpcf5PointIffEESaIS2_EE17_Vector_impl_data12_M_swap_dataERS5_
   fun:_ZNSt6vectorIN4mpcf5PointIffEESaIS2_EE14_M_move_assignEOS4_St17integral_constantIbLb1EE
   fun:_ZNSt6vectorIN4mpcf5PointIffEESaIS2_EEaSEOS4_
   fun:_ZN4mpcf3PcfIffEaSEOS1_
   fun:_ZZZN4mpcf2ph23BarcodeToStableRankTaskIfE9run_asyncERNS_8ExecutorEENKUlRKSt6vectorImSaImEEE_clES9_ENKUlvE_clEv
   fun:_ZSt13__invoke_implIvRZZN4mpcf2ph23BarcodeToStableRankTaskIfE9run_asyncERNS0_8ExecutorEENKUlRKSt6vectorImSaImEEE_clESA_EUlvE_JEET_St14__invoke_otherOT0_DpOT1_
   fun:_ZSt10__invoke_rIvRZZN4mpcf2ph23BarcodeToStableRankTaskIfE9run_asyncERNS0_8ExecutorEENKUlRKSt6vectorImSaImEEE_clESA_EUlvE_JEENSt9enable_ifIX16is_invocable_r_vIT_T0_DpT1_EESF_E4typeEOSG_DpOSH_
   fun:_ZNSt17_Function_handlerIFvvEZZN4mpcf2ph23BarcodeToStableRankTaskIfE9run_asyncERNS1_8ExecutorEENKUlRKSt6vectorImSaImEEE_clESB_EUlvE_E9_M_invokeERKSt9_Any_data
   fun:_ZNKSt8functionIFvvEEclEv
   fun:_ZN2tf8Executor19_invoke_static_taskERNS_6WorkerEPNS_4NodeE
   fun:_ZN2tf8Executor7_invokeERNS_6WorkerEPNS_4NodeE
}
{
   <insert_a_suppression_name_here>
   Helgrind:Race
   fun:_ZNSt12_Vector_baseIN4mpcf5PointIffEESaIS2_EE17_Vector_impl_data12_M_copy_dataERKS5_
   fun:_ZNSt12_Vector_baseIN4mpcf5PointIffEESaIS2_EE17_Vector_impl_data12_M_swap_dataERS5_
   fun:_ZNSt6vectorIN4mpcf5PointIffEESaIS2_EE14_M_move_assignEOS4_St17integral_constantIbLb1EE
   fun:_ZNSt6vectorIN4mpcf5PointIffEESaIS2_EEaSEOS4_
   fun:_ZN4mpcf3PcfIffEaSEOS1_
   fun:_ZZZN4mpcf2ph23BarcodeToStableRankTaskIfE9run_asyncERNS_8ExecutorEENKUlRKSt6vectorImSaImEEE_clES9_ENKUlvE_clEv
   fun:_ZSt13__invoke_implIvRZZN4mpcf2ph23BarcodeToStableRankTaskIfE9run_asyncERNS0_8ExecutorEENKUlRKSt6vectorImSaImEEE_clESA_EUlvE_JEET_St14__invoke_otherOT0_DpOT1_
   fun:_ZSt10__invoke_rIvRZZN4mpcf2ph23BarcodeToStableRankTaskIfE9run_asyncERNS0_8ExecutorEENKUlRKSt6vectorImSaImEEE_clESA_EUlvE_JEENSt9enable_ifIX16is_invocable_r_vIT_T0_DpT1_EESF_E4typeEOSG_DpOSH_
   fun:_ZNSt17_Function_handlerIFvvEZZN4mpcf2ph23BarcodeToStableRankTaskIfE9run_asyncERNS1_8ExecutorEENKUlRKSt6vectorImSaImEEE_clESB_EUlvE_E9_M_invokeERKSt9_Any_data
   fun:_ZNKSt8functionIFvvEEclEv
   fun:_ZN2tf8Executor19_invoke_static_taskERNS_6WorkerEPNS_4NodeE
   fun:_ZN2tf8Executor7_invokeERNS_6WorkerEPNS_4NodeE
}
{
   <insert_a_suppression_name_here>
   Helgrind:Race
   fun:_ZNSt12_Vector_baseIN4mpcf5PointIffEESaIS2_EE17_Vector_impl_data12_M_copy_dataERKS5_
   fun:_ZNSt12_Vector_baseIN4mpcf5PointIffEESaIS2_EE17_Vector_impl_data12_M_swap_dataERS5_
   fun:_ZNSt6vectorIN4mpcf5PointIffEESaIS2_EE14_M_move_assignEOS4_St17integral_constantIbLb1EE
   fun:_ZNSt6vectorIN4mpcf5PointIffEESaIS2_EEaSEOS4_
   fun:_ZN4mpcf3PcfIffEaSEOS1_
   fun:_ZZZN4mpcf2ph23BarcodeToStableRankTaskIfE9run_asyncERNS_8ExecutorEENKUlRKSt6vectorImSaImEEE_clES9_ENKUlvE_clEv
   fun:_ZSt13__invoke_implIvRZZN4mpcf2ph23BarcodeToStableRankTaskIfE9run_asyncERNS0_8ExecutorEENKUlRKSt6vectorImSaImEEE_clESA_EUlvE_JEET_St14__invoke_otherOT0_DpOT1_
   fun:_ZSt10__invoke_rIvRZZN4mpcf2ph23BarcodeToStableRankTaskIfE9run_asyncERNS0_8ExecutorEENKUlRKSt6vectorImSaImEEE_clESA_EUlvE_JEENSt9enable_ifIX16is_invocable_r_vIT_T0_DpT1_EESF_E4typeEOSG_DpOSH_
   fun:_ZNSt17_Function_handlerIFvvEZZN4mpcf2ph23BarcodeToStableRankTaskIfE9run_asyncERNS1_8ExecutorEENKUlRKSt6vectorImSaImEEE_clESB_EUlvE_E9_M_invokeERKSt9_Any_data
   fun:_ZNKSt8functionIFvvEEclEv
   fun:_ZN2tf8Executor19_invoke_static_taskERNS_6WorkerEPNS_4NodeE
   fun:_ZN2tf8Executor7_invokeERNS_6WorkerEPNS_4NodeE
}
{
   <insert_a_suppression_name_here>
   Helgrind:Race
   fun:fetch_add
   fun:_ZSt25atomic_fetch_add_explicitImET_PSt6atomicIS0_ENS2_15difference_typeESt12memory_order
   fun:_ZSt16atomic_fetch_addImET_PSt6atomicIS0_ENS2_15difference_typeE
   fun:_ZN4mpcf13StoppableTaskIvE12add_progressEm
   fun:_ZZZN4mpcf2ph23BarcodeToStableRankTaskIfE9run_asyncERNS_8ExecutorEENKUlRKSt6vectorImSaImEEE_clES9_ENKUlvE_clEv
   fun:_ZSt13__invoke_implIvRZZN4mpcf2ph23BarcodeToStableRankTaskIfE9run_asyncERNS0_8ExecutorEENKUlRKSt6vectorImSaImEEE_clESA_EUlvE_JEET_St14__invoke_otherOT0_DpOT1_
   fun:_ZSt10__invoke_rIvRZZN4mpcf2ph23BarcodeToStableRankTaskIfE9run_asyncERNS0_8ExecutorEENKUlRKSt6vectorImSaImEEE_clESA_EUlvE_JEENSt9enable_ifIX16is_invocable_r_vIT_T0_DpT1_EESF_E4typeEOSG_DpOSH_
   fun:_ZNSt17_Function_handlerIFvvEZZN4mpcf2ph23BarcodeToStableRankTaskIfE9run_asyncERNS1_8ExecutorEENKUlRKSt6vectorImSaImEEE_clESB_EUlvE_E9_M_invokeERKSt9_Any_data
   fun:_ZNKSt8functionIFvvEEclEv
   fun:_ZN2tf8Executor19_invoke_static_taskERNS_6WorkerEPNS_4NodeE
   fun:_ZN2tf8Executor7_invokeERNS_6WorkerEPNS_4NodeE
   fun:_ZN2tf8Executor13_exploit_taskERNS_6WorkerERPNS_4NodeE
   fun:_ZZN2tf8Executor6_spawnEmSt10shared_ptrINS_15WorkerInterfaceEEENKUlvE_clEv
}
{
   <insert_a_suppression_name_here>
   Helgrind:Race
   fun:_ZNSt14_Function_base13_Base_managerIZZN4mpcf2ph23BarcodeToStableRankTaskIfE9run_asyncERNS1_8ExecutorEENKUlRKSt6vectorImSaImEEE_clESB_EUlvE_E10_M_destroyERSt9_Any_dataSt17integral_constantIbLb0EE
   fun:_ZNSt14_Function_base13_Base_managerIZZN4mpcf2ph23BarcodeToStableRankTaskIfE9run_asyncERNS1_8ExecutorEENKUlRKSt6vectorImSaImEEE_clESB_EUlvE_E10_M_managerERSt9_Any_dataRKSF_St18_Manager_operation
   fun:_ZNSt17_Function_handlerIFvvEZZN4mpcf2ph23BarcodeToStableRankTaskIfE9run_asyncERNS1_8ExecutorEENKUlRKSt6vectorImSaImEEE_clESB_EUlvE_E10_M_managerERSt9_Any_dataRKSF_St18_Manager_operation
   fun:_ZNSt14_Function_baseD1Ev
   fun:_ZNSt8functionIFvvEED1Ev
   fun:_ZN2tf4Node6StaticD1Ev
   fun:_ZSt10destroy_atIN2tf4Node6StaticEEvPT_
   fun:_ZSt8_DestroyIN2tf4Node6StaticEEvPT_
   fun:_ZZNSt8__detail9__variant16_Variant_storageILb0EJSt9monostateN2tf4Node6StaticENS4_7RuntimeENS4_20NonpreemptiveRuntimeENS4_7SubflowENS4_9ConditionENS4_14MultiConditionENS4_6ModuleENS4_5AsyncENS4_14DependentAsyncEEE8_M_resetEvENUlOT_E_clIRS5_EEDaSG_
   fun:_ZSt13__invoke_implIvZNSt8__detail9__variant16_Variant_storageILb0EJSt9monostateN2tf4Node6StaticENS5_7RuntimeENS5_20NonpreemptiveRuntimeENS5_7SubflowENS5_9ConditionENS5_14MultiConditionENS5_6ModuleENS5_5AsyncENS5_14DependentAsyncEEE8_M_resetEvEUlOT_E_JRS6_EESG_St14__invoke_otherOT0_DpOT1_
   fun:_ZSt10__invoke_rIvZNSt8__detail9__variant16_Variant_storageILb0EJSt9monostateN2tf4Node6StaticENS5_7RuntimeENS5_20NonpreemptiveRuntimeENS5_7SubflowENS5_9ConditionENS5_14MultiConditionENS5_6ModuleENS5_5AsyncENS5_14DependentAsyncEEE8_M_resetEvEUlOT_E_JRS6_EENSt9enable_ifIX16is_invocable_r_vISG_T0_DpT1_EESG_E4typeEOSL_DpOSM_
   fun:_ZNSt8__detail9__variant17__gen_vtable_implINS0_12_Multi_arrayIPFvOZNS0_16_Variant_storageILb0EJSt9monostateN2tf4Node6StaticENS6_7RuntimeENS6_20NonpreemptiveRuntimeENS6_7SubflowENS6_9ConditionENS6_14MultiConditionENS6_6ModuleENS6_5AsyncENS6_14DependentAsyncEEE8_M_resetEvEUlOT_E_RSt7variantIJS4_S7_S8_S9_SA_SB_SC_SD_SE_SF_EEEJEEESt16integer_sequenceImJLm1EEEE14__visit_invokeESK_SN_
}
{
   <insert_a_suppression_name_here>
   Helgrind:Race
   fun:_ZNSt6vectorImSaImEED1Ev
   fun:_ZZZN4mpcf2ph23BarcodeToStableRankTaskIfE9run_asyncERNS_8ExecutorEENKUlRKSt6vectorImSaImEEE_clES9_ENUlvE_D1Ev
   fun:_ZNSt14_Function_base13_Base_managerIZZN4mpcf2ph23BarcodeToStableRankTaskIfE9run_asyncERNS1_8ExecutorEENKUlRKSt6vectorImSaImEEE_clESB_EUlvE_E10_M_destroyERSt9_Any_dataSt17integral_constantIbLb0EE
   fun:_ZNSt14_Function_base13_Base_managerIZZN4mpcf2ph23BarcodeToStableRankTaskIfE9run_asyncERNS1_8ExecutorEENKUlRKSt6vectorImSaImEEE_clESB_EUlvE_E10_M_managerERSt9_Any_dataRKSF_St18_Manager_operation
   fun:_ZNSt17_Function_handlerIFvvEZZN4mpcf2ph23BarcodeToStableRankTaskIfE9run_asyncERNS1_8ExecutorEENKUlRKSt6vectorImSaImEEE_clESB_EUlvE_E10_M_managerERSt9_Any_dataRKSF_St18_Manager_operation
   fun:_ZNSt14_Function_baseD1Ev
   fun:_ZNSt8functionIFvvEED1Ev
   fun:_ZN2tf4Node6StaticD1Ev
   fun:_ZSt10destroy_atIN2tf4Node6StaticEEvPT_
   fun:_ZSt8_DestroyIN2tf4Node6StaticEEvPT_
   fun:_ZZNSt8__detail9__variant16_Variant_storageILb0EJSt9monostateN2tf4Node6StaticENS4_7RuntimeENS4_20NonpreemptiveRuntimeENS4_7SubflowENS4_9ConditionENS4_14MultiConditionENS4_6ModuleENS4_5AsyncENS4_14DependentAsyncEEE8_M_resetEvENUlOT_E_clIRS5_EEDaSG_
   fun:_ZSt13__invoke_implIvZNSt8__detail9__variant16_Variant_storageILb0EJSt9monostateN2tf4Node6StaticENS5_7RuntimeENS5_20NonpreemptiveRuntimeENS5_7SubflowENS5_9ConditionENS5_14MultiConditionENS5_6ModuleENS5_5AsyncENS5_14DependentAsyncEEE8_M_resetEvEUlOT_E_JRS6_EESG_St14__invoke_otherOT0_DpOT1_
}
{
   <insert_a_suppression_name_here>
   Helgrind:Race
   fun:_ZNSt6vectorImSaImEED1Ev
   fun:_ZZZN4mpcf2ph23BarcodeToStableRankTaskIfE9run_asyncERNS_8ExecutorEENKUlRKSt6vectorImSaImEEE_clES9_ENUlvE_D1Ev
   fun:_ZNSt14_Function_base13_Base_managerIZZN4mpcf2ph23BarcodeToStableRankTaskIfE9run_asyncERNS1_8ExecutorEENKUlRKSt6vectorImSaImEEE_clESB_EUlvE_E10_M_destroyERSt9_Any_dataSt17integral_constantIbLb0EE
   fun:_ZNSt14_Function_base13_Base_managerIZZN4mpcf2ph23BarcodeToStableRankTaskIfE9run_asyncERNS1_8ExecutorEENKUlRKSt6vectorImSaImEEE_clESB_EUlvE_E10_M_managerERSt9_Any_dataRKSF_St18_Manager_operation
   fun:_ZNSt17_Function_handlerIFvvEZZN4mpcf2ph23BarcodeToStableRankTaskIfE9run_asyncERNS1_8ExecutorEENKUlRKSt6vectorImSaImEEE_clESB_EUlvE_E10_M_managerERSt9_Any_dataRKSF_St18_Manager_operation
   fun:_ZNSt14_Function_baseD1Ev
   fun:_ZNSt8functionIFvvEED1Ev
   fun:_ZN2tf4Node6StaticD1Ev
   fun:_ZSt10destroy_atIN2tf4Node6StaticEEvPT_
   fun:_ZSt8_DestroyIN2tf4Node6StaticEEvPT_
   fun:_ZZNSt8__detail9__variant16_Variant_storageILb0EJSt9monostateN2tf4Node6StaticENS4_7RuntimeENS4_20NonpreemptiveRuntimeENS4_7SubflowENS4_9ConditionENS4_14MultiConditionENS4_6ModuleENS4_5AsyncENS4_14DependentAsyncEEE8_M_resetEvENUlOT_E_clIRS5_EEDaSG_
   fun:_ZSt13__invoke_implIvZNSt8__detail9__variant16_Variant_storageILb0EJSt9monostateN2tf4Node6StaticENS5_7RuntimeENS5_20NonpreemptiveRuntimeENS5_7SubflowENS5_9ConditionENS5_14MultiConditionENS5_6ModuleENS5_5AsyncENS5_14DependentAsyncEEE8_M_resetEvEUlOT_E_JRS6_EESG_St14__invoke_otherOT0_DpOT1_
}
{
   <insert_a_suppression_name_here>
   Helgrind:Race
   fun:_ZNSt12_Vector_baseImSaImEED1Ev
   fun:_ZNSt6vectorImSaImEED1Ev
   fun:_ZZZN4mpcf2ph23BarcodeToStableRankTaskIfE9run_asyncERNS_8ExecutorEENKUlRKSt6vectorImSaImEEE_clES9_ENUlvE_D1Ev
   fun:_ZNSt14_Function_base13_Base_managerIZZN4mpcf2ph23BarcodeToStableRankTaskIfE9run_asyncERNS1_8ExecutorEENKUlRKSt6vectorImSaImEEE_clESB_EUlvE_E10_M_destroyERSt9_Any_dataSt17integral_constantIbLb0EE
   fun:_ZNSt14_Function_base13_Base_managerIZZN4mpcf2ph23BarcodeToStableRankTaskIfE9run_asyncERNS1_8ExecutorEENKUlRKSt6vectorImSaImEEE_clESB_EUlvE_E10_M_managerERSt9_Any_dataRKSF_St18_Manager_operation
   fun:_ZNSt17_Function_handlerIFvvEZZN4mpcf2ph23BarcodeToStableRankTaskIfE9run_asyncERNS1_8ExecutorEENKUlRKSt6vectorImSaImEEE_clESB_EUlvE_E10_M_managerERSt9_Any_dataRKSF_St18_Manager_operation
   fun:_ZNSt14_Function_baseD1Ev
   fun:_ZNSt8functionIFvvEED1Ev
   fun:_ZN2tf4Node6StaticD1Ev
   fun:_ZSt10destroy_atIN2tf4Node6StaticEEvPT_
   fun:_ZSt8_DestroyIN2tf4Node6StaticEEvPT_
   fun:_ZZNSt8__detail9__variant16_Variant_storageILb0EJSt9monostateN2tf4Node6StaticENS4_7RuntimeENS4_20NonpreemptiveRuntimeENS4_7SubflowENS4_9ConditionENS4_14MultiConditionENS4_6ModuleENS4_5AsyncENS4_14DependentAsyncEEE8_M_resetEvENUlOT_E_clIRS5_EEDaSG_
}
{
   <insert_a_suppression_name_here>
   Helgrind:Race
   fun:_ZNKSt6vectorIN4mpcf5PointIffEESaIS2_EE4sizeEv
   fun:_ZSteqIN4mpcf5PointIffEESaIS2_EEbRKSt6vectorIT_T0_ES9_
   fun:_ZNK4mpcf3PcfIffEeqERKS1_
   fun:_ZN7testing8internal11CmpHelperEQIN4mpcf3PcfIffEES4_EENS_15AssertionResultEPKcS7_RKT_RKT0_
   fun:_ZN7testing8internal8EqHelper7CompareIN4mpcf3PcfIffEES5_LPv0EEENS_15AssertionResultEPKcS9_RKT_RKT0_
   fun:_ZN12_GLOBAL__N_176BarcodeAndStableRankTest_BarcodeToStableRankTaskMatchesDirectConversion_TestIfE8TestBodyEv
   fun:_ZN7testing8internal38HandleSehExceptionsInMethodIfSupportedINS_4TestEvEET0_PT_MS4_FS3_vEPKc
   fun:_ZN7testing8internal35HandleExceptionsInMethodIfSupportedINS_4TestEvEET0_PT_MS4_FS3_vEPKc
   fun:_ZN7testing4Test3RunEv
   fun:_ZN7testing8TestInfo3RunEv
   fun:_ZN7testing9TestSuite3RunEv
   fun:_ZN7testing8internal12UnitTestImpl11RunAllTestsEv
}
{
   <insert_a_suppression_name_here>
   Helgrind:Race
   fun:_ZNKSt6vectorIN4mpcf5PointIffEESaIS2_EE4sizeEv
   fun:_ZSteqIN4mpcf5PointIffEESaIS2_EEbRKSt6vectorIT_T0_ES9_
   fun:_ZNK4mpcf3PcfIffEeqERKS1_
   fun:_ZN7testing8internal11CmpHelperEQIN4mpcf3PcfIffEES4_EENS_15AssertionResultEPKcS7_RKT_RKT0_
   fun:_ZN7testing8internal8EqHelper7CompareIN4mpcf3PcfIffEES5_LPv0EEENS_15AssertionResultEPKcS9_RKT_RKT0_
   fun:_ZN12_GLOBAL__N_176BarcodeAndStableRankTest_BarcodeToStableRankTaskMatchesDirectConversion_TestIfE8TestBodyEv
   fun:_ZN7testing8internal38HandleSehExceptionsInMethodIfSupportedINS_4TestEvEET0_PT_MS4_FS3_vEPKc
   fun:_ZN7testing8internal35HandleExceptionsInMethodIfSupportedINS_4TestEvEET0_PT_MS4_FS3_vEPKc
   fun:_ZN7testing4Test3RunEv
   fun:_ZN7testing8TestInfo3RunEv
   fun:_ZN7testing9TestSuite3RunEv
   fun:_ZN7testing8internal12UnitTestImpl11RunAllTestsEv
}
{
   <insert_a_suppression_name_here>
   Helgrind:Race
   fun:_ZNK4mpcf5PointIffEeqERKS1_
   fun:_ZNSt7__equalILb0EE5equalIPKN4mpcf5PointIffEES6_EEbT_S7_T0_
   fun:_ZSt12__equal_aux1IPKN4mpcf5PointIffEES4_EbT_S5_T0_
   fun:_ZSt11__equal_auxIN9__gnu_cxx17__normal_iteratorIPKN4mpcf5PointIffEESt6vectorIS4_SaIS4_EEEESA_EbT_SB_T0_
   fun:_ZSt5equalIN9__gnu_cxx17__normal_iteratorIPKN4mpcf5PointIffEESt6vectorIS4_SaIS4_EEEESA_EbT_SB_T0_
   fun:_ZSteqIN4mpcf5PointIffEESaIS2_EEbRKSt6vectorIT_T0_ES9_
   fun:_ZNK4mpcf3PcfIffEeqERKS1_
   fun:_ZN7testing8internal11CmpHelperEQIN4mpcf3PcfIffEES4_EENS_15AssertionResultEPKcS7_RKT_RKT0_
   fun:_ZN7testing8internal8EqHelper7CompareIN4mpcf3PcfIffEES5_LPv0EEENS_15AssertionResultEPKcS9_RKT_RKT0_
   fun:_ZN12_GLOBAL__N_176BarcodeAndStableRankTest_BarcodeToStableRankTaskMatchesDirectConversion_TestIfE8TestBodyEv
   fun:_ZN7testing8internal38HandleSehExceptionsInMethodIfSupportedINS_4TestEvEET0_PT_MS4_FS3_vEPKc
   fun:_ZN7testing8internal35HandleExceptionsInMethodIfSupportedINS_4TestEvEET0_PT_MS4_FS3_vEPKc
}
{
   <insert_a_suppression_name_here>
   Helgrind:Race
   fun:_ZNK4mpcf5PointIffEeqERKS1_
   fun:_ZNSt7__equalILb0EE5equalIPKN4mpcf5PointIffEES6_EEbT_S7_T0_
   fun:_ZSt12__equal_aux1IPKN4mpcf5PointIffEES4_EbT_S5_T0_
   fun:_ZSt11__equal_auxIN9__gnu_cxx17__normal_iteratorIPKN4mpcf5PointIffEESt6vectorIS4_SaIS4_EEEESA_EbT_SB_T0_
   fun:_ZSt5equalIN9__gnu_cxx17__normal_iteratorIPKN4mpcf5PointIffEESt6vectorIS4_SaIS4_EEEESA_EbT_SB_T0_
   fun:_ZSteqIN4mpcf5PointIffEESaIS2_EEbRKSt6vectorIT_T0_ES9_
   fun:_ZNK4mpcf3PcfIffEeqERKS1_
   fun:_ZN7testing8internal11CmpHelperEQIN4mpcf3PcfIffEES4_EENS_15AssertionResultEPKcS7_RKT_RKT0_
   fun:_ZN7testing8internal8EqHelper7CompareIN4mpcf3PcfIffEES5_LPv0EEENS_15AssertionResultEPKcS9_RKT_RKT0_
   fun:_ZN12_GLOBAL__N_176BarcodeAndStableRankTest_BarcodeToStableRankTaskMatchesDirectConversion_TestIfE8TestBodyEv
   fun:_ZN7testing8internal38HandleSehExceptionsInMethodIfSupportedINS_4TestEvEET0_PT_MS4_FS3_vEPKc
   fun:_ZN7testing8internal35HandleExceptionsInMethodIfSupportedINS_4TestEvEET0_PT_MS4_FS3_vEPKc
}
{
   <insert_a_suppression_name_here>
   Helgrind:Race
   fun:_ZNSt14_Function_base13_Base_managerIZZN4mpcf2ph23BarcodeToStableRankTaskIdE9run_asyncERNS1_8ExecutorEENKUlRKSt6vectorImSaImEEE_clESB_EUlvE_E14_M_get_pointerERKSt9_Any_data
   fun:_ZNSt17_Function_handlerIFvvEZZN4mpcf2ph23BarcodeToStableRankTaskIdE9run_asyncERNS1_8ExecutorEENKUlRKSt6vectorImSaImEEE_clESB_EUlvE_E9_M_invokeERKSt9_Any_data
   fun:_ZNKSt8functionIFvvEEclEv
   fun:_ZN2tf8Executor19_invoke_static_taskERNS_6WorkerEPNS_4NodeE
   fun:_ZN2tf8Executor7_invokeERNS_6WorkerEPNS_4NodeE
   fun:_ZN2tf8Executor13_exploit_taskERNS_6WorkerERPNS_4NodeE
   fun:_ZZN2tf8Executor6_spawnEmSt10shared_ptrINS_15WorkerInterfaceEEENKUlvE_clEv
   fun:_ZSt13__invoke_implIvZN2tf8Executor6_spawnEmSt10shared_ptrINS0_15WorkerInterfaceEEEUlvE_JEET_St14__invoke_otherOT0_DpOT1_
   fun:_ZSt8__invokeIZN2tf8Executor6_spawnEmSt10shared_ptrINS0_15WorkerInterfaceEEEUlvE_JEENSt15__invoke_resultIT_JDpT0_EE4typeEOS7_DpOS8_
   fun:_ZNSt6thread8_InvokerISt5tupleIJZN2tf8Executor6_spawnEmSt10shared_ptrINS2_15WorkerInterfaceEEEUlvE_EEE9_M_invokeIJLm0EEEEvSt12_Index_tupleIJXspT_EEE
   fun:_ZNSt6thread8_InvokerISt5tupleIJZN2tf8Executor6_spawnEmSt10shared_ptrINS2_15WorkerInterfaceEEEUlvE_EEEclEv
   fun:_ZNSt6thread11_State_implINS_8_InvokerISt5tupleIJZN2tf8Executor6_spawnEmSt10shared_ptrINS3_15WorkerInterfaceEEEUlvE_EEEEE6_M_runEv
}
{
   <insert_a_suppression_name_here>
   Helgrind:Race
   fun:_ZZZN4mpcf2ph23BarcodeToStableRankTaskIdE9run_asyncERNS_8ExecutorEENKUlRKSt6vectorImSaImEEE_clES9_ENKUlvE_clEv
   fun:_ZSt13__invoke_implIvRZZN4mpcf2ph23BarcodeToStableRankTaskIdE9run_asyncERNS0_8ExecutorEENKUlRKSt6vectorImSaImEEE_clESA_EUlvE_JEET_St14__invoke_otherOT0_DpOT1_
   fun:_ZSt10__invoke_rIvRZZN4mpcf2ph23BarcodeToStableRankTaskIdE9run_asyncERNS0_8ExecutorEENKUlRKSt6vectorImSaImEEE_clESA_EUlvE_JEENSt9enable_ifIX16is_invocable_r_vIT_T0_DpT1_EESF_E4typeEOSG_DpOSH_
   fun:_ZNSt17_Function_handlerIFvvEZZN4mpcf2ph23BarcodeToStableRankTaskIdE9run_asyncERNS1_8ExecutorEENKUlRKSt6vectorImSaImEEE_clESB_EUlvE_E9_M_invokeERKSt9_Any_data
   fun:_ZNKSt8functionIFvvEEclEv
   fun:_ZN2tf8Executor19_invoke_static_taskERNS_6WorkerEPNS_4NodeE
   fun:_ZN2tf8Executor7_invokeERNS_6WorkerEPNS_4NodeE
   fun:_ZN2tf8Executor13_exploit_taskERNS_6WorkerERPNS_4NodeE
   fun:_ZZN2tf8Executor6_spawnEmSt10shared_ptrINS_15WorkerInterfaceEEENKUlvE_clEv
   fun:_ZSt13__invoke_implIvZN2tf8Executor6_spawnEmSt10shared_ptrINS0_15WorkerInterfaceEEEUlvE_JEET_St14__invoke_otherOT0_DpOT1_
   fun:_ZSt8__invokeIZN2tf8Executor6_spawnEmSt10shared_ptrINS0_15WorkerInterfaceEEEUlvE_JEENSt15__invoke_resultIT_JDpT0_EE4typeEOS7_DpOS8_
   fun:_ZNSt6thread8_InvokerISt5tupleIJZN2tf8Executor6_spawnEmSt10shared_ptrINS2_15WorkerInterfaceEEEUlvE_EEE9_M_invokeIJLm0EEEEvSt12_Index_tupleIJXspT_EEE
}
{
   <insert_a_suppression_name_here>
   Helgrind:Race
   fun:_ZZZN4mpcf2ph23BarcodeToStableRankTaskIdE9run_asyncERNS_8ExecutorEENKUlRKSt6vectorImSaImEEE_clES9_ENKUlvE_clEv
   fun:_ZSt13__invoke_implIvRZZN4mpcf2ph23BarcodeToStableRankTaskIdE9run_asyncERNS0_8ExecutorEENKUlRKSt6vectorImSaImEEE_clESA_EUlvE_JEET_St14__invoke_otherOT0_DpOT1_
   fun:_ZSt10__invoke_rIvRZZN4mpcf2ph23BarcodeToStableRankTaskIdE9run_asyncERNS0_8ExecutorEENKUlRKSt6vectorImSaImEEE_clESA_EUlvE_JEENSt9enable_ifIX16is_invocable_r_vIT_T0_DpT1_EESF_E4typeEOSG_DpOSH_
   fun:_ZNSt17_Function_handlerIFvvEZZN4mpcf2ph23BarcodeToStableRankTaskIdE9run_asyncERNS1_8ExecutorEENKUlRKSt6vectorImSaImEEE_clESB_EUlvE_E9_M_invokeERKSt9_Any_data
   fun:_ZNKSt8functionIFvvEEclEv
   fun:_ZN2tf8Executor19_invoke_static_taskERNS_6WorkerEPNS_4NodeE
   fun:_ZN2tf8Executor7_invokeERNS_6WorkerEPNS_4NodeE
   fun:_ZN2tf8Executor13_exploit_taskERNS_6WorkerERPNS_4NodeE
   fun:_ZZN2tf8Executor6_spawnEmSt10shared_ptrINS_15WorkerInterfaceEEENKUlvE_clEv
   fun:_ZSt13__invoke_implIvZN2tf8Executor6_spawnEmSt10shared_ptrINS0_15WorkerInterfaceEEEUlvE_JEET_St14__invoke_otherOT0_DpOT1_
   fun:_ZSt8__invokeIZN2tf8Executor6_spawnEmSt10shared_ptrINS0_15WorkerInterfaceEEEUlvE_JEENSt15__invoke_resultIT_JDpT0_EE4typeEOS7_DpOS8_
   fun:_ZNSt6thread8_InvokerISt5tupleIJZN2tf8Executor6_spawnEmSt10shared_ptrINS2_15WorkerInterfaceEEEUlvE_EEE9_M_invokeIJLm0EEEEvSt12_Index_tupleIJXspT_EEE
}
{
   <insert_a_suppression_name_here>
   Helgrind:Race
   fun:_ZNK4mpcf6TensorINS_2ph7BarcodeIdEEE19index_to_data_indexERKSt6vectorImSaImEE
   fun:_ZNK4mpcf6TensorINS_2ph7BarcodeIdEEE12index_to_refERKSt6vectorImSaImEE
   fun:_ZNK4mpcf6TensorINS_2ph7BarcodeIdEEEclERKSt6vectorImSaImEE
   fun:_ZZZN4mpcf2ph23BarcodeToStableRankTaskIdE9run_asyncERNS_8ExecutorEENKUlRKSt6vectorImSaImEEE_clES9_ENKUlvE_clEv
   fun:_ZSt13__invoke_implIvRZZN4mpcf2ph23BarcodeToStableRankTaskIdE9run_asyncERNS0_8ExecutorEENKUlRKSt6vectorImSaImEEE_clESA_EUlvE_JEET_St14__invoke_otherOT0_DpOT1_
   fun:_ZSt10__invoke_rIvRZZN4mpcf2ph23BarcodeToStableRankTaskIdE9run_asyncERNS0_8ExecutorEENKUlRKSt6vectorImSaImEEE_clESA_EUlvE_JEENSt9enable_ifIX16is_invocable_r_vIT_T0_DpT1_EESF_E4typeEOSG_DpOSH_
   fun:_ZNSt17_Function_handlerIFvvEZZN4mpcf2ph23BarcodeToStableRankTaskIdE9run_asyncERNS1_8ExecutorEENKUlRKSt6vectorImSaImEEE_clESB_EUlvE_E9_M_invokeERKSt9_Any_data
   fun:_ZNKSt8functionIFvvEEclEv
   fun:_ZN2tf8Executor19_invoke_static_taskERNS_6WorkerEPNS_4NodeE
   fun:_ZN2tf8Executor7_invokeERNS_6WorkerEPNS_4NodeE
   fun:_ZN2tf8Executor13_exploit_taskERNS_6WorkerERPNS_4NodeE
   fun:_ZZN2tf8Executor6_spawnEmSt10shared_ptrINS_15WorkerInterfaceEEENKUlvE_clEv
}
{
   <insert_a_suppression_name_here>
   Helgrind:Race
   fun:_ZSt13inner_productIN9__gnu_cxx17__normal_iteratorIPKmSt6vectorImSaImEEEES7_mET1_T_S9_T0_S8_
   fun:_ZNK4mpcf6TensorINS_2ph7BarcodeIdEEE19index_to_data_indexERKSt6vectorImSaImEE
   fun:_ZNK4mpcf6TensorINS_2ph7BarcodeIdEEE12index_to_refERKSt6vectorImSaImEE
   fun:_ZNK4mpcf6TensorINS_2ph7BarcodeIdEEEclERKSt6vectorImSaImEE
   fun:_ZZZN4mpcf2ph23BarcodeToStableRankTaskIdE9run_asyncERNS_8ExecutorEENKUlRKSt6vectorImSaImEEE_clES9_ENKUlvE_clEv
   fun:_ZSt13__invoke_implIvRZZN4mpcf2ph23BarcodeToStableRankTaskIdE9run_asyncERNS0_8ExecutorEENKUlRKSt6vectorImSaImEEE_clESA_EUlvE_JEET_St14__invoke_otherOT0_DpOT1_
   fun:_ZSt10__invoke_rIvRZZN4mpcf2ph23BarcodeToStableRankTaskIdE9run_asyncERNS0_8ExecutorEENKUlRKSt6vectorImSaImEEE_clESA_EUlvE_JEENSt9enable_ifIX16is_invocable_r_vIT_T0_DpT1_EESF_E4typeEOSG_DpOSH_
   fun:_ZNSt17_Function_handlerIFvvEZZN4mpcf2ph23BarcodeToStableRankTaskIdE9run_asyncERNS1_8ExecutorEENKUlRKSt6vectorImSaImEEE_clESB_EUlvE_E9_M_invokeERKSt9_Any_data
   fun:_ZNKSt8functionIFvvEEclEv
   fun:_ZN2tf8Executor19_invoke_static_taskERNS_6WorkerEPNS_4NodeE
   fun:_ZN2tf8Executor7_invokeERNS_6WorkerEPNS_4NodeE
   fun:_ZN2tf8Executor13_exploit_taskERNS_6WorkerERPNS_4NodeE
}
{
   <insert_a_suppression_name_here>
   Helgrind:Race
   fun:_ZSt13inner_productIN9__gnu_cxx17__normal_iteratorIPKmSt6vectorImSaImEEEES7_mET1_T_S9_T0_S8_
   fun:_ZNK4mpcf6TensorINS_2ph7BarcodeIdEEE19index_to_data_indexERKSt6vectorImSaImEE
   fun:_ZNK4mpcf6TensorINS_2ph7BarcodeIdEEE12index_to_refERKSt6vectorImSaImEE
   fun:_ZNK4mpcf6TensorINS_2ph7BarcodeIdEEEclERKSt6vectorImSaImEE
   fun:_ZZZN4mpcf2ph23BarcodeToStableRankTaskIdE9run_asyncERNS_8ExecutorEENKUlRKSt6vectorImSaImEEE_clES9_ENKUlvE_clEv
   fun:_ZSt13__invoke_implIvRZZN4mpcf2ph23BarcodeToStableRankTaskIdE9run_asyncERNS0_8ExecutorEENKUlRKSt6vectorImSaImEEE_clESA_EUlvE_JEET_St14__invoke_otherOT0_DpOT1_
   fun:_ZSt10__invoke_rIvRZZN4mpcf2ph23BarcodeToStableRankTaskIdE9run_asyncERNS0_8ExecutorEENKUlRKSt6vectorImSaImEEE_clESA_EUlvE_JEENSt9enable_ifIX16is_invocable_r_vIT_T0_DpT1_EESF_E4typeEOSG_DpOSH_
   fun:_ZNSt17_Function_handlerIFvvEZZN4mpcf2ph23BarcodeToStableRankTaskIdE9run_asyncERNS1_8ExecutorEENKUlRKSt6vectorImSaImEEE_clESB_EUlvE_E9_M_invokeERKSt9_Any_data
   fun:_ZNKSt8functionIFvvEEclEv
   fun:_ZN2tf8Executor19_invoke_static_taskERNS_6WorkerEPNS_4NodeE
   fun:_ZN2tf8Executor7_invokeERNS_6WorkerEPNS_4NodeE
   fun:_ZN2tf8Executor13_exploit_taskERNS_6WorkerERPNS_4NodeE
}
{
   <insert_a_suppression_name_here>
   Helgrind:Race
   fun:_ZNK4mpcf6TensorINS_2ph7BarcodeIdEEE19index_to_data_indexERKSt6vectorImSaImEE
   fun:_ZNK4mpcf6TensorINS_2ph7BarcodeIdEEE12index_to_refERKSt6vectorImSaImEE
   fun:_ZNK4mpcf6TensorINS_2ph7BarcodeIdEEEclERKSt6vectorImSaImEE
   fun:_ZZZN4mpcf2ph23BarcodeToStableRankTaskIdE9run_asyncERNS_8ExecutorEENKUlRKSt6vectorImSaImEEE_clES9_ENKUlvE_clEv
   fun:_ZSt13__invoke_implIvRZZN4mpcf2ph23BarcodeToStableRankTaskIdE9run_asyncERNS0_8ExecutorEENKUlRKSt6vectorImSaImEEE_clESA_EUlvE_JEET_St14__invoke_otherOT0_DpOT1_
   fun:_ZSt10__invoke_rIvRZZN4mpcf2ph23BarcodeToStableRankTaskIdE9run_asyncERNS0_8ExecutorEENKUlRKSt6vectorImSaImEEE_clESA_EUlvE_JEENSt9enable_ifIX16is_invocable_r_vIT_T0_DpT1_EESF_E4typeEOSG_DpOSH_
   fun:_ZNSt17_Function_handlerIFvvEZZN4mpcf2ph23BarcodeToStableRankTaskIdE9run_asyncERNS1_8ExecutorEENKUlRKSt6vectorImSaImEEE_clESB_EUlvE_E9_M_invokeERKSt9_Any_data
   fun:_ZNKSt8functionIFvvEEclEv
   fun:_ZN2tf8Executor19_invoke_static_taskERNS_6WorkerEPNS_4NodeE
   fun:_ZN2tf8Executor7_invokeERNS_6WorkerEPNS_4NodeE
   fun:_ZN2tf8Executor13_exploit_taskERNS_6WorkerERPNS_4NodeE
   fun:_ZZN2tf8Executor6_spawnEmSt10shared_ptrINS_15WorkerInterfaceEEENKUlvE_clEv
}
{
   <insert_a_suppression_name_here>
   Helgrind:Race
   fun:_ZNKSt12__shared_ptrIA_N4mpcf2ph7BarcodeIdEELN9__gnu_cxx12_Lock_policyE2EE3getEv
   fun:_ZNKSt19__shared_ptr_accessIA_N4mpcf2ph7BarcodeIdEELN9__gnu_cxx12_Lock_policyE2ELb1ELb0EE6_M_getEv
   fun:_ZNKSt19__shared_ptr_accessIA_N4mpcf2ph7BarcodeIdEELN9__gnu_cxx12_Lock_policyE2ELb1ELb0EEixEl
   fun:_ZNK4mpcf6TensorINS_2ph7BarcodeIdEEE12index_to_refERKSt6vectorImSaImEE
   fun:_ZNK4mpcf6TensorINS_2ph7BarcodeIdEEEclERKSt6vectorImSaImEE
   fun:_ZZZN4mpcf2ph23BarcodeToStableRankTaskIdE9run_asyncERNS_8ExecutorEENKUlRKSt6vectorImSaImEEE_clES9_ENKUlvE_clEv
   fun:_ZSt13__invoke_implIvRZZN4mpcf2ph23BarcodeToStableRankTaskIdE9run_asyncERNS0_8ExecutorEENKUlRKSt6vectorImSaImEEE_clESA_EUlvE_JEET_St14__invoke_otherOT0_DpOT1_
   fun:_ZSt10__invoke_rIvRZZN4mpcf2ph23BarcodeToStableRankTaskIdE9run_asyncERNS0_8ExecutorEENKUlRKSt6vectorImSaImEEE_clESA_EUlvE_JEENSt9enable_ifIX16is_invocable_r_vIT_T0_DpT1_EESF_E4typeEOSG_DpOSH_
   fun:_ZNSt17_Function_handlerIFvvEZZN4mpcf2ph23BarcodeToStableRankTaskIdE9run_asyncERNS1_8ExecutorEENKUlRKSt6vectorImSaImEEE_clESB_EUlvE_E9_M_invokeERKSt9_Any_data
   fun:_ZNKSt8functionIFvvEEclEv
   fun:_ZN2tf8Executor19_invoke_static_taskERNS_6WorkerEPNS_4NodeE
   fun:_ZN2tf8Executor7_invokeERNS_6WorkerEPNS_4NodeE
}
{
   <insert_a_suppression_name_here>
   Helgrind:Race
   fun:_ZN9__gnu_cxx17__normal_iteratorIPKN4mpcf2ph15PersistencePairIdEESt6vectorIS4_SaIS4_EEEC1ERKS6_
   fun:_ZNKSt6vectorIN4mpcf2ph15PersistencePairIdEESaIS3_EE3endEv
   fun:_ZNKSt6vectorIN4mpcf2ph15PersistencePairIdEESaIS3_EE5emptyEv
   fun:_ZN4mpcf2ph22barcode_to_stable_rankIdEENS_3PcfIT_S3_EERKNS0_7BarcodeIS3_EE
   fun:_ZZZN4mpcf2ph23BarcodeToStableRankTaskIdE9run_asyncERNS_8ExecutorEENKUlRKSt6vectorImSaImEEE_clES9_ENKUlvE_clEv
   fun:_ZSt13__invoke_implIvRZZN4mpcf2ph23BarcodeToStableRankTaskIdE9run_asyncERNS0_8ExecutorEENKUlRKSt6vectorImSaImEEE_clESA_EUlvE_JEET_St14__invoke_otherOT0_DpOT1_
   fun:_ZSt10__invoke_rIvRZZN4mpcf2ph23BarcodeToStableRankTaskIdE9run_asyncERNS0_8ExecutorEENKUlRKSt6vectorImSaImEEE_clESA_EUlvE_JEENSt9enable_ifIX16is_invocable_r_vIT_T0_DpT1_EESF_E4typeEOSG_DpOSH_
   fun:_ZNSt17_Function_handlerIFvvEZZN4mpcf2ph23BarcodeToStableRankTaskIdE9run_asyncERNS1_8ExecutorEENKUlRKSt6vectorImSaImEEE_clESB_EUlvE_E9_M_invokeERKSt9_Any_data
   fun:_ZNKSt8functionIFvvEEclEv
   fun:_ZN2tf8Executor19_invoke_static_taskERNS_6WorkerEPNS_4NodeE
   fun:_ZN2tf8Executor7_invokeERNS_6WorkerEPNS_4NodeE
   fun:_ZN2tf8Executor13_exploit_taskERNS_6WorkerERPNS_4NodeE
}
{
   <insert_a_suppression_name_here>
   Helgrind:Race
   fun:_ZN9__gnu_cxx17__normal_iteratorIPKN4mpcf2ph15PersistencePairIdEESt6vectorIS4_SaIS4_EEEC1ERKS6_
   fun:_ZNKSt6vectorIN4mpcf2ph15PersistencePairIdEESaIS3_EE5beginEv
   fun:_ZNKSt6vectorIN4mpcf2ph15PersistencePairIdEESaIS3_EE5emptyEv
   fun:_ZN4mpcf2ph22barcode_to_stable_rankIdEENS_3PcfIT_S3_EERKNS0_7BarcodeIS3_EE
   fun:_ZZZN4mpcf2ph23BarcodeToStableRankTaskIdE9run_asyncERNS_8ExecutorEENKUlRKSt6vectorImSaImEEE_clES9_ENKUlvE_clEv
   fun:_ZSt13__invoke_implIvRZZN4mpcf2ph23BarcodeToStableRankTaskIdE9run_asyncERNS0_8ExecutorEENKUlRKSt6vectorImSaImEEE_clESA_EUlvE_JEET_St14__invoke_otherOT0_DpOT1_
   fun:_ZSt10__invoke_rIvRZZN4mpcf2ph23BarcodeToStableRankTaskIdE9run_asyncERNS0_8ExecutorEENKUlRKSt6vectorImSaImEEE_clESA_EUlvE_JEENSt9enable_ifIX16is_invocable_r_vIT_T0_DpT1_EESF_E4typeEOSG_DpOSH_
   fun:_ZNSt17_Function_handlerIFvvEZZN4mpcf2ph23BarcodeToStableRankTaskIdE9run_asyncERNS1_8ExecutorEENKUlRKSt6vectorImSaImEEE_clESB_EUlvE_E9_M_invokeERKSt9_Any_data
   fun:_ZNKSt8functionIFvvEEclEv
   fun:_ZN2tf8Executor19_invoke_static_taskERNS_6WorkerEPNS_4NodeE
   fun:_ZN2tf8Executor7_invokeERNS_6WorkerEPNS_4NodeE
   fun:_ZN2tf8Executor13_exploit_taskERNS_6WorkerERPNS_4NodeE
}
{
   <insert_a_suppression_name_here>
   Helgrind:Race
   fun:_ZZN4mpcf2ph22barcode_to_stable_rankIdEENS_3PcfIT_S3_EERKNS0_7BarcodeIS3_EEENKUlRKNS0_15PersistencePairIdEEE_clESC_
   fun:_ZSt9transformIN9__gnu_cxx17__normal_iteratorIPKN4mpcf2ph15PersistencePairIdEESt6vectorIS5_SaIS5_EEEESt20back_insert_iteratorIS8_IdSaIdEEEZNS3_22barcode_to_stable_rankIdEENS2_3PcfIT_SI_EERKNS3_7BarcodeISI_EEEUlRS6_E_ET0_SI_SI_SQ_T1_
   fun:_ZN4mpcf2ph22barcode_to_stable_rankIdEENS_3PcfIT_S3_EERKNS0_7BarcodeIS3_EE
   fun:_ZZZN4mpcf2ph23BarcodeToStableRankTaskIdE9run_asyncERNS_8ExecutorEENKUlRKSt6vectorImSaImEEE_clES9_ENKUlvE_clEv
   fun:_ZSt13__invoke_implIvRZZN4mpcf2ph23BarcodeToStableRankTaskIdE9run_asyncERNS0_8ExecutorEENKUlRKSt6vectorImSaImEEE_clESA_EUlvE_JEET_St14__invoke_otherOT0_DpOT1_
   fun:_ZSt10__invoke_rIvRZZN4mpcf2ph23BarcodeToStableRankTaskIdE9run_asyncERNS0_8ExecutorEENKUlRKSt6vectorImSaImEEE_clESA_EUlvE_JEENSt9enable_ifIX16is_invocable_r_vIT_T0_DpT1_EESF_E4typeEOSG_DpOSH_
   fun:_ZNSt17_Function_handlerIFvvEZZN4mpcf2ph23BarcodeToStableRankTaskIdE9run_asyncERNS1_8ExecutorEENKUlRKSt6vectorImSaImEEE_clESB_EUlvE_E9_M_invokeERKSt9_Any_data
   fun:_ZNKSt8functionIFvvEEclEv
   fun:_ZN2tf8Executor19_invoke_static_taskERNS_6WorkerEPNS_4NodeE
   fun:_ZN2tf8Executor7_invokeERNS_6WorkerEPNS_4NodeE
   fun:_ZN2tf8Executor13_exploit_taskERNS_6WorkerERPNS_4NodeE
   fun:_ZZN2tf8Executor6_spawnEmSt10shared_ptrINS_15WorkerInterfaceEEENKUlvE_clEv
}
{
   <insert_a_suppression_name_here>
   Helgrind:Race
   fun:_ZZN4mpcf2ph22barcode_to_stable_rankIdEENS_3PcfIT_S3_EERKNS0_7BarcodeIS3_EEENKUlRKNS0_15PersistencePairIdEEE_clESC_
   fun:_ZSt9transformIN9__gnu_cxx17__normal_iteratorIPKN4mpcf2ph15PersistencePairIdEESt6vectorIS5_SaIS5_EEEESt20back_insert_iteratorIS8_IdSaIdEEEZNS3_22barcode_to_stable_rankIdEENS2_3PcfIT_SI_EERKNS3_7BarcodeISI_EEEUlRS6_E_ET0_SI_SI_SQ_T1_
   fun:_ZN4mpcf2ph22barcode_to_stable_rankIdEENS_3PcfIT_S3_EERKNS0_7BarcodeIS3_EE
   fun:_ZZZN4mpcf2ph23BarcodeToStableRankTaskIdE9run_asyncERNS_8ExecutorEENKUlRKSt6vectorImSaImEEE_clES9_ENKUlvE_clEv
   fun:_ZSt13__invoke_implIvRZZN4mpcf2ph23BarcodeToStableRankTaskIdE9run_asyncERNS0_8ExecutorEENKUlRKSt6vectorImSaImEEE_clESA_EUlvE_JEET_St14__invoke_otherOT0_DpOT1_
   fun:_ZSt10__invoke_rIvRZZN4mpcf2ph23BarcodeToStableRankTaskIdE9run_asyncERNS0_8ExecutorEENKUlRKSt6vectorImSaImEEE_clESA_EUlvE_JEENSt9enable_ifIX16is_invocable_r_vIT_T0_DpT1_EESF_E4typeEOSG_DpOSH_
   fun:_ZNSt17_Function_handlerIFvvEZZN4mpcf2ph23BarcodeToStableRankTaskIdE9run_asyncERNS1_8ExecutorEENKUlRKSt6vectorImSaImEEE_clESB_EUlvE_E9_M_invokeERKSt9_Any_data
   fun:_ZNKSt8functionIFvvEEclEv
   fun:_ZN2tf8Executor19_invoke_static_taskERNS_6WorkerEPNS_4NodeE
   fun:_ZN2tf8Executor7_invokeERNS_6WorkerEPNS_4NodeE
   fun:_ZN2tf8Executor13_exploit_taskERNS_6WorkerERPNS_4NodeE
   fun:_ZZN2tf8Executor6_spawnEmSt10shared_ptrINS_15WorkerInterfaceEEENKUlvE_clEv
}
{
   <insert_a_suppression_name_here>
   Helgrind:Race
   fun:_ZZZN4mpcf2ph23BarcodeToStableRankTaskIdE9run_asyncERNS_8ExecutorEENKUlRKSt6vectorImSaImEEE_clES9_ENKUlvE_clEv
   fun:_ZSt13__invoke_implIvRZZN4mpcf2ph23BarcodeToStableRankTaskIdE9run_asyncERNS0_8ExecutorEENKUlRKSt6vectorImSaImEEE_clESA_EUlvE_JEET_St14__invoke_otherOT0_DpOT1_
   fun:_ZSt10__invoke_rIvRZZN4mpcf2ph23BarcodeToStableRankTaskIdE9run_asyncERNS0_8ExecutorEENKUlRKSt6vectorImSaImEEE_clESA_EUlvE_JEENSt9enable_ifIX16is_invocable_r_vIT_T0_DpT1_EESF_E4typeEOSG_DpOSH_
   fun:_ZNSt17_Function_handlerIFvvEZZN4mpcf2ph23BarcodeToStableRankTaskIdE9run_asyncERNS1_8ExecutorEENKUlRKSt6vectorImSaImEEE_clESB_EUlvE_E9_M_invokeERKSt9_Any_data
   fun:_ZNKSt8functionIFvvEEclEv
   fun:_ZN2tf8Executor19_invoke_static_taskERNS_6WorkerEPNS_4NodeE
   fun:_ZN2tf8Executor7_invokeERNS_6WorkerEPNS_4NodeE
   fun:_ZN2tf8Executor13_exploit_taskERNS_6WorkerERPNS_4NodeE
   fun:_ZZN2tf8Executor6_spawnEmSt10shared_ptrINS_15WorkerInterfaceEEENKUlvE_clEv
   fun:_ZSt13__invoke_implIvZN2tf8Executor6_spawnEmSt10shared_ptrINS0_15WorkerInterfaceEEEUlvE_JEET_St14__invoke_otherOT0_DpOT1_
   fun:_ZSt8__invokeIZN2tf8Executor6_spawnEmSt10shared_ptrINS0_15WorkerInterfaceEEEUlvE_JEENSt15__invoke_resultIT_JDpT0_EE4typeEOS7_DpOS8_
   fun:_ZNSt6thread8_InvokerISt5tupleIJZN2tf8Executor6_spawnEmSt10shared_ptrINS2_15WorkerInterfaceEEEUlvE_EEE9_M_invokeIJLm0EEEEvSt12_Index_tupleIJXspT_EEE
}
{
   <insert_a_suppression_name_here>
   Helgrind:Race
   fun:_ZNK4mpcf6TensorINS_3PcfIddEEE19index_to_data_indexERKSt6vectorImSaImEE
   fun:_ZN4mpcf6TensorINS_3PcfIddEEE12index_to_refERKSt6vectorImSaImEE
   fun:_ZN4mpcf6TensorINS_3PcfIddEEEclERKSt6vectorImSaImEE
   fun:_ZZZN4mpcf2ph23BarcodeToStableRankTaskIdE9run_asyncERNS_8ExecutorEENKUlRKSt6vectorImSaImEEE_clES9_ENKUlvE_clEv
   fun:_ZSt13__invoke_implIvRZZN4mpcf2ph23BarcodeToStableRankTaskIdE9run_asyncERNS0_8ExecutorEENKUlRKSt6vectorImSaImEEE_clESA_EUlvE_JEET_St14__invoke_otherOT0_DpOT1_
   fun:_ZSt10__invoke_rIvRZZN4mpcf2ph23BarcodeToStableRankTaskIdE9run_asyncERNS0_8ExecutorEENKUlRKSt6vectorImSaImEEE_clESA_EUlvE_JEENSt9enable_ifIX16is_invocable_r_vIT_T0_DpT1_EESF_E4typeEOSG_DpOSH_
   fun:_ZNSt17_Function_handlerIFvvEZZN4mpcf2ph23BarcodeToStableRankTaskIdE9run_asyncERNS1_8ExecutorEENKUlRKSt6vectorImSaImEEE_clESB_EUlvE_E9_M_invokeERKSt9_Any_data
   fun:_ZNKSt8functionIFvvEEclEv
   fun:_ZN2tf8Executor19_invoke_static_taskERNS_6WorkerEPNS_4NodeE
   fun:_ZN2tf8Executor7_invokeERNS_6WorkerEPNS_4NodeE
   fun:_ZN2tf8Executor13_exploit_taskERNS_6WorkerERPNS_4NodeE
   fun:_ZZN2tf8Executor6_spawnEmSt10shared_ptrINS_15WorkerInterfaceEEENKUlvE_clEv
}
{
   <insert_a_suppression_name_here>
   Helgrind:Race
   fun:_ZSt13inner_productIN9__gnu_cxx17__normal_iteratorIPKmSt6vectorImSaImEEEES7_mET1_T_S9_T0_S8_
   fun:_ZNK4mpcf6TensorINS_3PcfIddEEE19index_to_data_indexERKSt6vectorImSaImEE
   fun:_ZN4mpcf6TensorINS_3PcfIddEEE12index_to_refERKSt6vectorImSaImEE
   fun:_ZN4mpcf6TensorINS_3PcfIddEEEclERKSt6vectorImSaImEE
