{
   <insert_a_suppression_name_here>
   Helgrind:Race
   fun:_ZN2tf8Executor7_invokeERNS_6WorkerEPNS_4NodeE
   fun:_ZN2tf8Executor13_exploit_taskERNS_6WorkerERPNS_4NodeE
   fun:_ZZN2tf8Executor6_spawnEmSt10shared_ptrINS_15WorkerInterfaceEEENKUlvE_clEv
   fun:_ZSt13__invoke_implIvZN2tf8Executor6_spawnEmSt10shared_ptrINS0_15WorkerInterfaceEEEUlvE_JEET_St14__invoke_otherOT0_DpOT1_
   fun:_ZSt8__invokeIZN2tf8Executor6_spawnEmSt10shared_ptrINS0_15WorkerInterfaceEEEUlvE_JEENSt15__invoke_resultIT_JDpT0_EE4typeEOS7_DpOS8_
   fun:_ZNSt6thread8_InvokerISt5tupleIJZN2tf8Executor6_spawnEmSt10shared_ptrINS2_15WorkerInterfaceEEEUlvE_EEE9_M_invokeIJLm0EEEEvSt12_Index_tupleIJXspT_EEE
   fun:_ZNSt6thread8_InvokerISt5tupleIJZN2tf8Executor6_spawnEmSt10shared_ptrINS2_15WorkerInterfaceEEEUlvE_EEEclEv
   fun:_ZNSt6thread11_State_implINS_8_InvokerISt5tupleIJZN2tf8Executor6_spawnEmSt10shared_ptrINS3_15WorkerInterfaceEEEUlvE_EEEEE6_M_runEv
   obj:/usr/lib/x86_64-linux-gnu/libstdc++.so.6.0.33
   obj:/usr/libexec/valgrind/vgpreload_helgrind-amd64-linux.so
   fun:start_thread
   fun:clone
}
{
   <insert_a_suppression_name_here>
   Helgrind:Race
   fun:_ZNK2tf4Node20_is_parent_cancelledEv
   fun:_ZN2tf8Executor7_invokeERNS_6WorkerEPNS_4NodeE
   fun:_ZN2tf8Executor13_exploit_taskERNS_6WorkerERPNS_4NodeE
   fun:_ZZN2tf8Executor6_spawnEmSt10shared_ptrINS_15WorkerInterfaceEEENKUlvE_clEv
   fun:_ZSt13__invoke_implIvZN2tf8Executor6_spawnEmSt10shared_ptrINS0_15WorkerInterfaceEEEUlvE_JEET_St14__invoke_otherOT0_DpOT1_
   fun:_ZSt8__invokeIZN2tf8Executor6_spawnEmSt10shared_ptrINS0_15WorkerInterfaceEEEUlvE_JEENSt15__invoke_resultIT_JDpT0_EE4typeEOS7_DpOS8_
   fun:_ZNSt6thread8_InvokerISt5tupleIJZN2tf8Executor6_spawnEmSt10shared_ptrINS2_15WorkerInterfaceEEEUlvE_EEE9_M_invokeIJLm0EEEEvSt12_Index_tupleIJXspT_EEE
   fun:_ZNSt6thread8_InvokerISt5tupleIJZN2tf8Executor6_spawnEmSt10shared_ptrINS2_15WorkerInterfaceEEEUlvE_EEEclEv
   fun:_ZNSt6thread11_State_implINS_8_InvokerISt5tupleIJZN2tf8Executor6_spawnEmSt10shared_ptrINS3_15WorkerInterfaceEEEUlvE_EEEEE6_M_runEv
   obj:/usr/lib/x86_64-linux-gnu/libstdc++.so.6.0.33
   obj:/usr/libexec/valgrind/vgpreload_helgrind-amd64-linux.so
   fun:start_thread
}
{
   <insert_a_suppression_name_here>
   Helgrind:Race
   fun:_ZNK2tf4Node20_is_parent_cancelledEv
   fun:_ZN2tf8Executor7_invokeERNS_6WorkerEPNS_4NodeE
   fun:_ZN2tf8Executor13_exploit_taskERNS_6WorkerERPNS_4NodeE
   fun:_ZZN2tf8Executor6_spawnEmSt10shared_ptrINS_15WorkerInterfaceEEENKUlvE_clEv
   fun:_ZSt13__invoke_implIvZN2tf8Executor6_spawnEmSt10shared_ptrINS0_15WorkerInterfaceEEEUlvE_JEET_St14__invoke_otherOT0_DpOT1_
   fun:_ZSt8__invokeIZN2tf8Executor6_spawnEmSt10shared_ptrINS0_15WorkerInterfaceEEEUlvE_JEENSt15__invoke_resultIT_JDpT0_EE4typeEOS7_DpOS8_
   fun:_ZNSt6thread8_InvokerISt5tupleIJZN2tf8Executor6_spawnEmSt10shared_ptrINS2_15WorkerInterfaceEEEUlvE_EEE9_M_invokeIJLm0EEEEvSt12_Index_tupleIJXspT_EEE
   fun:_ZNSt6thread8_InvokerISt5tupleIJZN2tf8Executor6_spawnEmSt10shared_ptrINS2_15WorkerInterfaceEEEUlvE_EEEclEv
   fun:_ZNSt6thread11_State_implINS_8_InvokerISt5tupleIJZN2tf8Executor6_spawnEmSt10shared_ptrINS3_15WorkerInterfaceEEEUlvE_EEEEE6_M_runEv
   obj:/usr/lib/x86_64-linux-gnu/libstdc++.so.6.0.33
   obj:/usr/libexec/valgrind/vgpreload_helgrind-amd64-linux.so
   fun:start_thread
}
{
   <insert_a_suppression_name_here>
   Helgrind:Race
   fun:_ZNKSt15__uniq_ptr_implIN2tf4Node10SemaphoresESt14default_deleteIS2_EE6_M_ptrEv
   fun:_ZNKSt10unique_ptrIN2tf4Node10SemaphoresESt14default_deleteIS2_EE3getEv
   fun:_ZNKSt10unique_ptrIN2tf4Node10SemaphoresESt14default_deleteIS2_EEcvbEv
   fun:_ZN2tf8Executor7_invokeERNS_6WorkerEPNS_4NodeE
   fun:_ZN2tf8Executor13_exploit_taskERNS_6WorkerERPNS_4NodeE
   fun:_ZZN2tf8Executor6_spawnEmSt10shared_ptrINS_15WorkerInterfaceEEENKUlvE_clEv
   fun:_ZSt13__invoke_implIvZN2tf8Executor6_spawnEmSt10shared_ptrINS0_15WorkerInterfaceEEEUlvE_JEET_St14__invoke_otherOT0_DpOT1_
   fun:_ZSt8__invokeIZN2tf8Executor6_spawnEmSt10shared_ptrINS0_15WorkerInterfaceEEEUlvE_JEENSt15__invoke_resultIT_JDpT0_EE4typeEOS7_DpOS8_
   fun:_ZNSt6thread8_InvokerISt5tupleIJZN2tf8Executor6_spawnEmSt10shared_ptrINS2_15WorkerInterfaceEEEUlvE_EEE9_M_invokeIJLm0EEEEvSt12_Index_tupleIJXspT_EEE
   fun:_ZNSt6thread8_InvokerISt5tupleIJZN2tf8Executor6_spawnEmSt10shared_ptrINS2_15WorkerInterfaceEEEUlvE_EEEclEv
   fun:_ZNSt6thread11_State_implINS_8_InvokerISt5tupleIJZN2tf8Executor6_spawnEmSt10shared_ptrINS3_15WorkerInterfaceEEEUlvE_EEEEE6_M_runEv
   obj:/usr/lib/x86_64-linux-gnu/libstdc++.so.6.0.33
}
{
   <insert_a_suppression_name_here>
   Helgrind:Race
   fun:_ZNKSt7variantIJSt9monostateN2tf4Node6StaticENS2_7RuntimeENS2_20NonpreemptiveRuntimeENS2_7SubflowENS2_9ConditionENS2_14MultiConditionENS2_6ModuleENS2_5AsyncENS2_14DependentAsyncEEE5indexEv
   fun:_ZN2tf8Executor7_invokeERNS_6WorkerEPNS_4NodeE
   fun:_ZN2tf8Executor13_exploit_taskERNS_6WorkerERPNS_4NodeE
   fun:_ZZN2tf8Executor6_spawnEmSt10shared_ptrINS_15WorkerInterfaceEEENKUlvE_clEv
   fun:_ZSt13__invoke_implIvZN2tf8Executor6_spawnEmSt10shared_ptrINS0_15WorkerInterfaceEEEUlvE_JEET_St14__invoke_otherOT0_DpOT1_
   fun:_ZSt8__invokeIZN2tf8Executor6_spawnEmSt10shared_ptrINS0_15WorkerInterfaceEEEUlvE_JEENSt15__invoke_resultIT_JDpT0_EE4typeEOS7_DpOS8_
   fun:_ZNSt6thread8_InvokerISt5tupleIJZN2tf8Executor6_spawnEmSt10shared_ptrINS2_15WorkerInterfaceEEEUlvE_EEE9_M_invokeIJLm0EEEEvSt12_Index_tupleIJXspT_EEE
   fun:_ZNSt6thread8_InvokerISt5tupleIJZN2tf8Executor6_spawnEmSt10shared_ptrINS2_15WorkerInterfaceEEEUlvE_EEEclEv
   fun:_ZNSt6thread11_State_implINS_8_InvokerISt5tupleIJZN2tf8Executor6_spawnEmSt10shared_ptrINS3_15WorkerInterfaceEEEUlvE_EEEEE6_M_runEv
   obj:/usr/lib/x86_64-linux-gnu/libstdc++.so.6.0.33
   obj:/usr/libexec/valgrind/vgpreload_helgrind-amd64-linux.so
   fun:start_thread
}
{
   <insert_a_suppression_name_here>
   Helgrind:Race
   fun:_ZNKSt7variantIJSt8functionIFvvEES0_IFvRN2tf7RuntimeEEES0_IFvS5_bEEEE5indexEv
   fun:_ZN2tf8Executor18_invoke_async_taskERNS_6WorkerEPNS_4NodeE
   fun:_ZN2tf8Executor7_invokeERNS_6WorkerEPNS_4NodeE
   fun:_ZN2tf8Executor13_exploit_taskERNS_6WorkerERPNS_4NodeE
   fun:_ZZN2tf8Executor6_spawnEmSt10shared_ptrINS_15WorkerInterfaceEEENKUlvE_clEv
   fun:_ZSt13__invoke_implIvZN2tf8Executor6_spawnEmSt10shared_ptrINS0_15WorkerInterfaceEEEUlvE_JEET_St14__invoke_otherOT0_DpOT1_
   fun:_ZSt8__invokeIZN2tf8Executor6_spawnEmSt10shared_ptrINS0_15WorkerInterfaceEEEUlvE_JEENSt15__invoke_resultIT_JDpT0_EE4typeEOS7_DpOS8_
   fun:_ZNSt6thread8_InvokerISt5tupleIJZN2tf8Executor6_spawnEmSt10shared_ptrINS2_15WorkerInterfaceEEEUlvE_EEE9_M_invokeIJLm0EEEEvSt12_Index_tupleIJXspT_EEE
   fun:_ZNSt6thread8_InvokerISt5tupleIJZN2tf8Executor6_spawnEmSt10shared_ptrINS2_15WorkerInterfaceEEEUlvE_EEEclEv
   fun:_ZNSt6thread11_State_implINS_8_InvokerISt5tupleIJZN2tf8Executor6_spawnEmSt10shared_ptrINS3_15WorkerInterfaceEEEUlvE_EEEEE6_M_runEv
   obj:/usr/lib/x86_64-linux-gnu/libstdc++.so.6.0.33
   obj:/usr/libexec/valgrind/vgpreload_helgrind-amd64-linux.so
}
{
   <insert_a_suppression_name_here>
   Helgrind:Race
   fun:_ZN2tf8Executor25_invoke_runtime_task_implERNS_6WorkerEPNS_4NodeERSt8functionIFvRNS_7RuntimeEEE
   fun:_ZN2tf8Executor18_invoke_async_taskERNS_6WorkerEPNS_4NodeE
   fun:_ZN2tf8Executor7_invokeERNS_6WorkerEPNS_4NodeE
   fun:_ZN2tf8Executor13_exploit_taskERNS_6WorkerERPNS_4NodeE
   fun:_ZZN2tf8Executor6_spawnEmSt10shared_ptrINS_15WorkerInterfaceEEENKUlvE_clEv
   fun:_ZSt13__invoke_implIvZN2tf8Executor6_spawnEmSt10shared_ptrINS0_15WorkerInterfaceEEEUlvE_JEET_St14__invoke_otherOT0_DpOT1_
   fun:_ZSt8__invokeIZN2tf8Executor6_spawnEmSt10shared_ptrINS0_15WorkerInterfaceEEEUlvE_JEENSt15__invoke_resultIT_JDpT0_EE4typeEOS7_DpOS8_
   fun:_ZNSt6thread8_InvokerISt5tupleIJZN2tf8Executor6_spawnEmSt10shared_ptrINS2_15WorkerInterfaceEEEUlvE_EEE9_M_invokeIJLm0EEEEvSt12_Index_tupleIJXspT_EEE
   fun:_ZNSt6thread8_InvokerISt5tupleIJZN2tf8Executor6_spawnEmSt10shared_ptrINS2_15WorkerInterfaceEEEUlvE_EEEclEv
   fun:_ZNSt6thread11_State_implINS_8_InvokerISt5tupleIJZN2tf8Executor6_spawnEmSt10shared_ptrINS3_15WorkerInterfaceEEEUlvE_EEEEE6_M_runEv
   obj:/usr/lib/x86_64-linux-gnu/libstdc++.so.6.0.33
   obj:/usr/libexec/valgrind/vgpreload_helgrind-amd64-linux.so
}
{
   <insert_a_suppression_name_here>
   Helgrind:Race
   fun:fetch_add
   fun:_ZN2tf8Executor25_invoke_runtime_task_implERNS_6WorkerEPNS_4NodeERSt8functionIFvRNS_7RuntimeEEE
   fun:_ZN2tf8Executor18_invoke_async_taskERNS_6WorkerEPNS_4NodeE
   fun:_ZN2tf8Executor7_invokeERNS_6WorkerEPNS_4NodeE
   fun:_ZN2tf8Executor13_exploit_taskERNS_6WorkerERPNS_4NodeE
   fun:_ZZN2tf8Executor6_spawnEmSt10shared_ptrINS_15WorkerInterfaceEEENKUlvE_clEv
   fun:_ZSt13__invoke_implIvZN2tf8Executor6_spawnEmSt10shared_ptrINS0_15WorkerInterfaceEEEUlvE_JEET_St14__invoke_otherOT0_DpOT1_
   fun:_ZSt8__invokeIZN2tf8Executor6_spawnEmSt10shared_ptrINS0_15WorkerInterfaceEEEUlvE_JEENSt15__invoke_resultIT_JDpT0_EE4typeEOS7_DpOS8_
   fun:_ZNSt6thread8_InvokerISt5tupleIJZN2tf8Executor6_spawnEmSt10shared_ptrINS2_15WorkerInterfaceEEEUlvE_EEE9_M_invokeIJLm0EEEEvSt12_Index_tupleIJXspT_EEE
   fun:_ZNSt6thread8_InvokerISt5tupleIJZN2tf8Executor6_spawnEmSt10shared_ptrINS2_15WorkerInterfaceEEEUlvE_EEEclEv
   fun:_ZNSt6thread11_State_implINS_8_InvokerISt5tupleIJZN2tf8Executor6_spawnEmSt10shared_ptrINS3_15WorkerInterfaceEEEUlvE_EEEEE6_M_runEv
   obj:/usr/lib/x86_64-linux-gnu/libstdc++.so.6.0.33
   obj:/usr/libexec/valgrind/vgpreload_helgrind-amd64-linux.so
}
{
   <insert_a_suppression_name_here>
   Helgrind:Race
   fun:_ZNKSt14_Function_base8_M_emptyEv
   fun:_ZNKSt8functionIFvRN2tf7RuntimeEEEclES2_
   fun:_ZN2tf8Executor25_invoke_runtime_task_implERNS_6WorkerEPNS_4NodeERSt8functionIFvRNS_7RuntimeEEE
   fun:_ZN2tf8Executor18_invoke_async_taskERNS_6WorkerEPNS_4NodeE
   fun:_ZN2tf8Executor7_invokeERNS_6WorkerEPNS_4NodeE
   fun:_ZN2tf8Executor13_exploit_taskERNS_6WorkerERPNS_4NodeE
   fun:_ZZN2tf8Executor6_spawnEmSt10shared_ptrINS_15WorkerInterfaceEEENKUlvE_clEv
   fun:_ZSt13__invoke_implIvZN2tf8Executor6_spawnEmSt10shared_ptrINS0_15WorkerInterfaceEEEUlvE_JEET_St14__invoke_otherOT0_DpOT1_
   fun:_ZSt8__invokeIZN2tf8Executor6_spawnEmSt10shared_ptrINS0_15WorkerInterfaceEEEUlvE_JEENSt15__invoke_resultIT_JDpT0_EE4typeEOS7_DpOS8_
   fun:_ZNSt6thread8_InvokerISt5tupleIJZN2tf8Executor6_spawnEmSt10shared_ptrINS2_15WorkerInterfaceEEEUlvE_EEE9_M_invokeIJLm0EEEEvSt12_Index_tupleIJXspT_EEE
   fun:_ZNSt6thread8_InvokerISt5tupleIJZN2tf8Executor6_spawnEmSt10shared_ptrINS2_15WorkerInterfaceEEEUlvE_EEEclEv
   fun:_ZNSt6thread11_State_implINS_8_InvokerISt5tupleIJZN2tf8Executor6_spawnEmSt10shared_ptrINS3_15WorkerInterfaceEEEUlvE_EEEEE6_M_runEv
}
{
   <insert_a_suppression_name_here>
   Helgrind:Race
   fun:_ZNKSt8functionIFvRN2tf7RuntimeEEEclES2_
   fun:_ZN2tf8Executor25_invoke_runtime_task_implERNS_6WorkerEPNS_4NodeERSt8functionIFvRNS_7RuntimeEEE
   fun:_ZN2tf8Executor18_invoke_async_taskERNS_6WorkerEPNS_4NodeE
   fun:_ZN2tf8Executor7_invokeERNS_6WorkerEPNS_4NodeE
   fun:_ZN2tf8Executor13_exploit_taskERNS_6WorkerERPNS_4NodeE
   fun:_ZZN2tf8Executor6_spawnEmSt10shared_ptrINS_15WorkerInterfaceEEENKUlvE_clEv
   fun:_ZSt13__invoke_implIvZN2tf8Executor6_spawnEmSt10shared_ptrINS0_15WorkerInterfaceEEEUlvE_JEET_St14__invoke_otherOT0_DpOT1_
   fun:_ZSt8__invokeIZN2tf8Executor6_spawnEmSt10shared_ptrINS0_15WorkerInterfaceEEEUlvE_JEENSt15__invoke_resultIT_JDpT0_EE4typeEOS7_DpOS8_
   fun:_ZNSt6thread8_InvokerISt5tupleIJZN2tf8Executor6_spawnEmSt10shared_ptrINS2_15WorkerInterfaceEEEUlvE_EEE9_M_invokeIJLm0EEEEvSt12_Index_tupleIJXspT_EEE
   fun:_ZNSt6thread8_InvokerISt5tupleIJZN2tf8Executor6_spawnEmSt10shared_ptrINS2_15WorkerInterfaceEEEUlvE_EEEclEv
   fun:_ZNSt6thread11_State_implINS_8_InvokerISt5tupleIJZN2tf8Executor6_spawnEmSt10shared_ptrINS3_15WorkerInterfaceEEEUlvE_EEEEE6_M_runEv
   obj:/usr/lib/x86_64-linux-gnu/libstdc++.so.6.0.33
}
{
   <insert_a_suppression_name_here>
   Helgrind:Race
   fun:_ZNSt14_Function_base13_Base_managerIZN2tf8Executor9run_untilIZNS2_5run_nIZNS2_3runEONS1_8TaskflowEEUlvE_EENS1_6FutureIvEES6_mOT_EUlvE_S7_EES9_S6_SB_OT0_EUlRNS1_7RuntimeEE_E14_M_get_pointerERKSt9_Any_data
   fun:_ZNSt17_Function_handlerIFvRN2tf7RuntimeEEZNS0_8Executor9run_untilIZNS4_5run_nIZNS4_3runEONS0_8TaskflowEEUlvE_EENS0_6FutureIvEES8_mOT_EUlvE_S9_EESB_S8_SD_OT0_EUlS2_E_E9_M_invokeERKSt9_Any_dataS2_
   fun:_ZNKSt8functionIFvRN2tf7RuntimeEEEclES2_
   fun:_ZN2tf8Executor25_invoke_runtime_task_implERNS_6WorkerEPNS_4NodeERSt8functionIFvRNS_7RuntimeEEE
   fun:_ZN2tf8Executor18_invoke_async_taskERNS_6WorkerEPNS_4NodeE
   fun:_ZN2tf8Executor7_invokeERNS_6WorkerEPNS_4NodeE
   fun:_ZN2tf8Executor13_exploit_taskERNS_6WorkerERPNS_4NodeE
   fun:_ZZN2tf8Executor6_spawnEmSt10shared_ptrINS_15WorkerInterfaceEEENKUlvE_clEv
   fun:_ZSt13__invoke_implIvZN2tf8Executor6_spawnEmSt10shared_ptrINS0_15WorkerInterfaceEEEUlvE_JEET_St14__invoke_otherOT0_DpOT1_
   fun:_ZSt8__invokeIZN2tf8Executor6_spawnEmSt10shared_ptrINS0_15WorkerInterfaceEEEUlvE_JEENSt15__invoke_resultIT_JDpT0_EE4typeEOS7_DpOS8_
   fun:_ZNSt6thread8_InvokerISt5tupleIJZN2tf8Executor6_spawnEmSt10shared_ptrINS2_15WorkerInterfaceEEEUlvE_EEE9_M_invokeIJLm0EEEEvSt12_Index_tupleIJXspT_EEE
   fun:_ZNSt6thread8_InvokerISt5tupleIJZN2tf8Executor6_spawnEmSt10shared_ptrINS2_15WorkerInterfaceEEEUlvE_EEEclEv
}
{
   <insert_a_suppression_name_here>
   Helgrind:Race
   fun:_ZNKSt12__shared_ptrIN2tf8TopologyELN9__gnu_cxx12_Lock_policyE2EE3getEv
   fun:_ZNKSt19__shared_ptr_accessIN2tf8TopologyELN9__gnu_cxx12_Lock_policyE2ELb0ELb0EE6_M_getEv
   fun:_ZNKSt19__shared_ptr_accessIN2tf8TopologyELN9__gnu_cxx12_Lock_policyE2ELb0ELb0EEptEv
   fun:_ZZN2tf8Executor9run_untilIZNS0_5run_nIZNS0_3runEONS_8TaskflowEEUlvE_EENS_6FutureIvEES4_mOT_EUlvE_S5_EES7_S4_S9_OT0_ENUlRNS_7RuntimeEE_clESE_
   fun:_ZSt13__invoke_implIvRZN2tf8Executor9run_untilIZNS1_5run_nIZNS1_3runEONS0_8TaskflowEEUlvE_EENS0_6FutureIvEES5_mOT_EUlvE_S6_EES8_S5_SA_OT0_EUlRNS0_7RuntimeEE_JSF_EES9_St14__invoke_otherSD_DpOT1_
   fun:_ZSt10__invoke_rIvRZN2tf8Executor9run_untilIZNS1_5run_nIZNS1_3runEONS0_8TaskflowEEUlvE_EENS0_6FutureIvEES5_mOT_EUlvE_S6_EES8_S5_SA_OT0_EUlRNS0_7RuntimeEE_JSF_EENSt9enable_ifIX16is_invocable_r_vIS9_SC_DpT1_EES9_E4typeESD_DpOSJ_
   fun:_ZNSt17_Function_handlerIFvRN2tf7RuntimeEEZNS0_8Executor9run_untilIZNS4_5run_nIZNS4_3runEONS0_8TaskflowEEUlvE_EENS0_6FutureIvEES8_mOT_EUlvE_S9_EESB_S8_SD_OT0_EUlS2_E_E9_M_invokeERKSt9_Any_dataS2_
   fun:_ZNKSt8functionIFvRN2tf7RuntimeEEEclES2_
   fun:_ZN2tf8Executor25_invoke_runtime_task_implERNS_6WorkerEPNS_4NodeERSt8functionIFvRNS_7RuntimeEEE
   fun:_ZN2tf8Executor18_invoke_async_taskERNS_6WorkerEPNS_4NodeE
   fun:_ZN2tf8Executor7_invokeERNS_6WorkerEPNS_4NodeE
   fun:_ZN2tf8Executor13_exploit_taskERNS_6WorkerERPNS_4NodeE
}
{
   <insert_a_suppression_name_here>
   Helgrind:Race
   fun:_ZZN2tf8Executor9run_untilIZNS0_5run_nIZNS0_3runEONS_8TaskflowEEUlvE_EENS_6FutureIvEES4_mOT_EUlvE_S5_EES7_S4_S9_OT0_ENUlRNS_7RuntimeEE_clESE_
   fun:_ZSt13__invoke_implIvRZN2tf8Executor9run_untilIZNS1_5run_nIZNS1_3runEONS0_8TaskflowEEUlvE_EENS0_6FutureIvEES5_mOT_EUlvE_S6_EES8_S5_SA_OT0_EUlRNS0_7RuntimeEE_JSF_EES9_St14__invoke_otherSD_DpOT1_
   fun:_ZSt10__invoke_rIvRZN2tf8Executor9run_untilIZNS1_5run_nIZNS1_3runEONS0_8TaskflowEEUlvE_EENS0_6FutureIvEES5_mOT_EUlvE_S6_EES8_S5_SA_OT0_EUlRNS0_7RuntimeEE_JSF_EENSt9enable_ifIX16is_invocable_r_vIS9_SC_DpT1_EES9_E4typeESD_DpOSJ_
   fun:_ZNSt17_Function_handlerIFvRN2tf7RuntimeEEZNS0_8Executor9run_untilIZNS4_5run_nIZNS4_3runEONS0_8TaskflowEEUlvE_EENS0_6FutureIvEES8_mOT_EUlvE_S9_EESB_S8_SD_OT0_EUlS2_E_E9_M_invokeERKSt9_Any_dataS2_
   fun:_ZNKSt8functionIFvRN2tf7RuntimeEEEclES2_
   fun:_ZN2tf8Executor25_invoke_runtime_task_implERNS_6WorkerEPNS_4NodeERSt8functionIFvRNS_7RuntimeEEE
   fun:_ZN2tf8Executor18_invoke_async_taskERNS_6WorkerEPNS_4NodeE
   fun:_ZN2tf8Executor7_invokeERNS_6WorkerEPNS_4NodeE
   fun:_ZN2tf8Executor13_exploit_taskERNS_6WorkerERPNS_4NodeE
   fun:_ZZN2tf8Executor6_spawnEmSt10shared_ptrINS_15WorkerInterfaceEEENKUlvE_clEv
   fun:_ZSt13__invoke_implIvZN2tf8Executor6_spawnEmSt10shared_ptrINS0_15WorkerInterfaceEEEUlvE_JEET_St14__invoke_otherOT0_DpOT1_
   fun:_ZSt8__invokeIZN2tf8Executor6_spawnEmSt10shared_ptrINS0_15WorkerInterfaceEEEUlvE_JEENSt15__invoke_resultIT_JDpT0_EE4typeEOS7_DpOS8_
}
{
   <insert_a_suppression_name_here>
   Helgrind:Race
   fun:_ZNKSt15__uniq_ptr_implIN2tf8TaskflowESt14default_deleteIS1_EE6_M_ptrEv
   fun:_ZNKSt10unique_ptrIN2tf8TaskflowESt14default_deleteIS1_EE3getEv
   fun:_ZNKSt10unique_ptrIN2tf8TaskflowESt14default_deleteIS1_EEptEv
   fun:_ZZN2tf8Executor9run_untilIZNS0_5run_nIZNS0_3runEONS_8TaskflowEEUlvE_EENS_6FutureIvEES4_mOT_EUlvE_S5_EES7_S4_S9_OT0_ENUlRNS_7RuntimeEE_clESE_
   fun:_ZSt13__invoke_implIvRZN2tf8Executor9run_untilIZNS1_5run_nIZNS1_3runEONS0_8TaskflowEEUlvE_EENS0_6FutureIvEES5_mOT_EUlvE_S6_EES8_S5_SA_OT0_EUlRNS0_7RuntimeEE_JSF_EES9_St14__invoke_otherSD_DpOT1_
   fun:_ZSt10__invoke_rIvRZN2tf8Executor9run_untilIZNS1_5run_nIZNS1_3runEONS0_8TaskflowEEUlvE_EENS0_6FutureIvEES5_mOT_EUlvE_S6_EES8_S5_SA_OT0_EUlRNS0_7RuntimeEE_JSF_EENSt9enable_ifIX16is_invocable_r_vIS9_SC_DpT1_EES9_E4typeESD_DpOSJ_
   fun:_ZNSt17_Function_handlerIFvRN2tf7RuntimeEEZNS0_8Executor9run_untilIZNS4_5run_nIZNS4_3runEONS0_8TaskflowEEUlvE_EENS0_6FutureIvEES8_mOT_EUlvE_S9_EESB_S8_SD_OT0_EUlS2_E_E9_M_invokeERKSt9_Any_dataS2_
   fun:_ZNKSt8functionIFvRN2tf7RuntimeEEEclES2_
   fun:_ZN2tf8Executor25_invoke_runtime_task_implERNS_6WorkerEPNS_4NodeERSt8functionIFvRNS_7RuntimeEEE
   fun:_ZN2tf8Executor18_invoke_async_taskERNS_6WorkerEPNS_4NodeE
   fun:_ZN2tf8Executor7_invokeERNS_6WorkerEPNS_4NodeE
   fun:_ZN2tf8Executor13_exploit_taskERNS_6WorkerERPNS_4NodeE
}
{
   <insert_a_suppression_name_here>
   Helgrind:Race
   fun:_ZNSt14__shared_countILN9__gnu_cxx12_Lock_policyE2EEC1ERKS2_
   fun:_ZNSt12__shared_ptrIN2tf8TopologyELN9__gnu_cxx12_Lock_policyE2EEC1ERKS4_
   fun:_ZNSt10shared_ptrIN2tf8TopologyEEC1ERKS2_
   fun:_ZZN2tf8Executor9run_untilIZNS0_5run_nIZNS0_3runEONS_8TaskflowEEUlvE_EENS_6FutureIvEES4_mOT_EUlvE_S5_EES7_S4_S9_OT0_ENUlRNS_7RuntimeEE_clESE_
   fun:_ZSt13__invoke_implIvRZN2tf8Executor9run_untilIZNS1_5run_nIZNS1_3runEONS0_8TaskflowEEUlvE_EENS0_6FutureIvEES5_mOT_EUlvE_S6_EES8_S5_SA_OT0_EUlRNS0_7RuntimeEE_JSF_EES9_St14__invoke_otherSD_DpOT1_
   fun:_ZSt10__invoke_rIvRZN2tf8Executor9run_untilIZNS1_5run_nIZNS1_3runEONS0_8TaskflowEEUlvE_EENS0_6FutureIvEES5_mOT_EUlvE_S6_EES8_S5_SA_OT0_EUlRNS0_7RuntimeEE_JSF_EENSt9enable_ifIX16is_invocable_r_vIS9_SC_DpT1_EES9_E4typeESD_DpOSJ_
   fun:_ZNSt17_Function_handlerIFvRN2tf7RuntimeEEZNS0_8Executor9run_untilIZNS4_5run_nIZNS4_3runEONS0_8TaskflowEEUlvE_EENS0_6FutureIvEES8_mOT_EUlvE_S9_EESB_S8_SD_OT0_EUlS2_E_E9_M_invokeERKSt9_Any_dataS2_
   fun:_ZNKSt8functionIFvRN2tf7RuntimeEEEclES2_
   fun:_ZN2tf8Executor25_invoke_runtime_task_implERNS_6WorkerEPNS_4NodeERSt8functionIFvRNS_7RuntimeEEE
   fun:_ZN2tf8Executor18_invoke_async_taskERNS_6WorkerEPNS_4NodeE
   fun:_ZN2tf8Executor7_invokeERNS_6WorkerEPNS_4NodeE
   fun:_ZN2tf8Executor13_exploit_taskERNS_6WorkerERPNS_4NodeE
}
{
   <insert_a_suppression_name_here>
   Helgrind:Race
   fun:__atomic_add
   fun:__atomic_add_dispatch
   fun:_ZNSt16_Sp_counted_baseILN9__gnu_cxx12_Lock_policyE2EE15_M_add_ref_copyEv
   fun:_ZNSt14__shared_countILN9__gnu_cxx12_Lock_policyE2EEC1ERKS2_
   fun:_ZNSt12__shared_ptrIN2tf8TopologyELN9__gnu_cxx12_Lock_policyE2EEC1ERKS4_
   fun:_ZNSt10shared_ptrIN2tf8TopologyEEC1ERKS2_
   fun:_ZZN2tf8Executor9run_untilIZNS0_5run_nIZNS0_3runEONS_8TaskflowEEUlvE_EENS_6FutureIvEES4_mOT_EUlvE_S5_EES7_S4_S9_OT0_ENUlRNS_7RuntimeEE_clESE_
   fun:_ZSt13__invoke_implIvRZN2tf8Executor9run_untilIZNS1_5run_nIZNS1_3runEONS0_8TaskflowEEUlvE_EENS0_6FutureIvEES5_mOT_EUlvE_S6_EES8_S5_SA_OT0_EUlRNS0_7RuntimeEE_JSF_EES9_St14__invoke_otherSD_DpOT1_
   fun:_ZSt10__invoke_rIvRZN2tf8Executor9run_untilIZNS1_5run_nIZNS1_3runEONS0_8TaskflowEEUlvE_EENS0_6FutureIvEES5_mOT_EUlvE_S6_EES8_S5_SA_OT0_EUlRNS0_7RuntimeEE_JSF_EENSt9enable_ifIX16is_invocable_r_vIS9_SC_DpT1_EES9_E4typeESD_DpOSJ_
   fun:_ZNSt17_Function_handlerIFvRN2tf7RuntimeEEZNS0_8Executor9run_untilIZNS4_5run_nIZNS4_3runEONS0_8TaskflowEEUlvE_EENS0_6FutureIvEES8_mOT_EUlvE_S9_EESB_S8_SD_OT0_EUlS2_E_E9_M_invokeERKSt9_Any_dataS2_
   fun:_ZNKSt8functionIFvRN2tf7RuntimeEEEclES2_
   fun:_ZN2tf8Executor25_invoke_runtime_task_implERNS_6WorkerEPNS_4NodeERSt8functionIFvRNS_7RuntimeEEE
   fun:_ZN2tf8Executor18_invoke_async_taskERNS_6WorkerEPNS_4NodeE
   fun:_ZN2tf8Executor7_invokeERNS_6WorkerEPNS_4NodeE
}
{
   <insert_a_suppression_name_here>
   Helgrind:Race
   fun:_ZStmiRKSt15_Deque_iteratorISt10shared_ptrIN2tf8TopologyEERS3_PS3_ES8_
   fun:_ZNKSt5dequeISt10shared_ptrIN2tf8TopologyEESaIS3_EE4sizeEv
   fun:_ZNKSt5queueISt10shared_ptrIN2tf8TopologyEESt5dequeIS3_SaIS3_EEE4sizeEv
   fun:_ZN2tf8Taskflow14_fetch_enqueueESt10shared_ptrINS_8TopologyEE
   fun:_ZZN2tf8Executor9run_untilIZNS0_5run_nIZNS0_3runEONS_8TaskflowEEUlvE_EENS_6FutureIvEES4_mOT_EUlvE_S5_EES7_S4_S9_OT0_ENUlRNS_7RuntimeEE_clESE_
   fun:_ZSt13__invoke_implIvRZN2tf8Executor9run_untilIZNS1_5run_nIZNS1_3runEONS0_8TaskflowEEUlvE_EENS0_6FutureIvEES5_mOT_EUlvE_S6_EES8_S5_SA_OT0_EUlRNS0_7RuntimeEE_JSF_EES9_St14__invoke_otherSD_DpOT1_
   fun:_ZSt10__invoke_rIvRZN2tf8Executor9run_untilIZNS1_5run_nIZNS1_3runEONS0_8TaskflowEEUlvE_EENS0_6FutureIvEES5_mOT_EUlvE_S6_EES8_S5_SA_OT0_EUlRNS0_7RuntimeEE_JSF_EENSt9enable_ifIX16is_invocable_r_vIS9_SC_DpT1_EES9_E4typeESD_DpOSJ_
   fun:_ZNSt17_Function_handlerIFvRN2tf7RuntimeEEZNS0_8Executor9run_untilIZNS4_5run_nIZNS4_3runEONS0_8TaskflowEEUlvE_EENS0_6FutureIvEES8_mOT_EUlvE_S9_EESB_S8_SD_OT0_EUlS2_E_E9_M_invokeERKSt9_Any_dataS2_
   fun:_ZNKSt8functionIFvRN2tf7RuntimeEEEclES2_
   fun:_ZN2tf8Executor25_invoke_runtime_task_implERNS_6WorkerEPNS_4NodeERSt8functionIFvRNS_7RuntimeEEE
   fun:_ZN2tf8Executor18_invoke_async_taskERNS_6WorkerEPNS_4NodeE
   fun:_ZN2tf8Executor7_invokeERNS_6WorkerEPNS_4NodeE
}
{
   <insert_a_suppression_name_here>
   Helgrind:Race
   fun:_ZStmiRKSt15_Deque_iteratorISt10shared_ptrIN2tf8TopologyEERS3_PS3_ES8_
   fun:_ZNKSt5dequeISt10shared_ptrIN2tf8TopologyEESaIS3_EE4sizeEv
   fun:_ZNKSt5queueISt10shared_ptrIN2tf8TopologyEESt5dequeIS3_SaIS3_EEE4sizeEv
   fun:_ZN2tf8Taskflow14_fetch_enqueueESt10shared_ptrINS_8TopologyEE
   fun:_ZZN2tf8Executor9run_untilIZNS0_5run_nIZNS0_3runEONS_8TaskflowEEUlvE_EENS_6FutureIvEES4_mOT_EUlvE_S5_EES7_S4_S9_OT0_ENUlRNS_7RuntimeEE_clESE_
   fun:_ZSt13__invoke_implIvRZN2tf8Executor9run_untilIZNS1_5run_nIZNS1_3runEONS0_8TaskflowEEUlvE_EENS0_6FutureIvEES5_mOT_EUlvE_S6_EES8_S5_SA_OT0_EUlRNS0_7RuntimeEE_JSF_EES9_St14__invoke_otherSD_DpOT1_
   fun:_ZSt10__invoke_rIvRZN2tf8Executor9run_untilIZNS1_5run_nIZNS1_3runEONS0_8TaskflowEEUlvE_EENS0_6FutureIvEES5_mOT_EUlvE_S6_EES8_S5_SA_OT0_EUlRNS0_7RuntimeEE_JSF_EENSt9enable_ifIX16is_invocable_r_vIS9_SC_DpT1_EES9_E4typeESD_DpOSJ_
   fun:_ZNSt17_Function_handlerIFvRN2tf7RuntimeEEZNS0_8Executor9run_untilIZNS4_5run_nIZNS4_3runEONS0_8TaskflowEEUlvE_EENS0_6FutureIvEES8_mOT_EUlvE_S9_EESB_S8_SD_OT0_EUlS2_E_E9_M_invokeERKSt9_Any_dataS2_
   fun:_ZNKSt8functionIFvRN2tf7RuntimeEEEclES2_
   fun:_ZN2tf8Executor25_invoke_runtime_task_implERNS_6WorkerEPNS_4NodeERSt8functionIFvRNS_7RuntimeEEE
   fun:_ZN2tf8Executor18_invoke_async_taskERNS_6WorkerEPNS_4NodeE
   fun:_ZN2tf8Executor7_invokeERNS_6WorkerEPNS_4NodeE
}
{
   <insert_a_suppression_name_here>
   Helgrind:Race
   fun:_ZStmiRKSt15_Deque_iteratorISt10shared_ptrIN2tf8TopologyEERS3_PS3_ES8_
   fun:_ZNKSt5dequeISt10shared_ptrIN2tf8TopologyEESaIS3_EE4sizeEv
   fun:_ZNKSt5queueISt10shared_ptrIN2tf8TopologyEESt5dequeIS3_SaIS3_EEE4sizeEv
   fun:_ZN2tf8Taskflow14_fetch_enqueueESt10shared_ptrINS_8TopologyEE
   fun:_ZZN2tf8Executor9run_untilIZNS0_5run_nIZNS0_3runEONS_8TaskflowEEUlvE_EENS_6FutureIvEES4_mOT_EUlvE_S5_EES7_S4_S9_OT0_ENUlRNS_7RuntimeEE_clESE_
   fun:_ZSt13__invoke_implIvRZN2tf8Executor9run_untilIZNS1_5run_nIZNS1_3runEONS0_8TaskflowEEUlvE_EENS0_6FutureIvEES5_mOT_EUlvE_S6_EES8_S5_SA_OT0_EUlRNS0_7RuntimeEE_JSF_EES9_St14__invoke_otherSD_DpOT1_
   fun:_ZSt10__invoke_rIvRZN2tf8Executor9run_untilIZNS1_5run_nIZNS1_3runEONS0_8TaskflowEEUlvE_EENS0_6FutureIvEES5_mOT_EUlvE_S6_EES8_S5_SA_OT0_EUlRNS0_7RuntimeEE_JSF_EENSt9enable_ifIX16is_invocable_r_vIS9_SC_DpT1_EES9_E4typeESD_DpOSJ_
   fun:_ZNSt17_Function_handlerIFvRN2tf7RuntimeEEZNS0_8Executor9run_untilIZNS4_5run_nIZNS4_3runEONS0_8TaskflowEEUlvE_EENS0_6FutureIvEES8_mOT_EUlvE_S9_EESB_S8_SD_OT0_EUlS2_E_E9_M_invokeERKSt9_Any_dataS2_
   fun:_ZNKSt8functionIFvRN2tf7RuntimeEEEclES2_
   fun:_ZN2tf8Executor25_invoke_runtime_task_implERNS_6WorkerEPNS_4NodeERSt8functionIFvRNS_7RuntimeEEE
   fun:_ZN2tf8Executor18_invoke_async_taskERNS_6WorkerEPNS_4NodeE
   fun:_ZN2tf8Executor7_invokeERNS_6WorkerEPNS_4NodeE
}
{
   <insert_a_suppression_name_here>
   Helgrind:Race
   fun:_ZStmiRKSt15_Deque_iteratorISt10shared_ptrIN2tf8TopologyEERS3_PS3_ES8_
   fun:_ZNKSt5dequeISt10shared_ptrIN2tf8TopologyEESaIS3_EE4sizeEv
   fun:_ZNKSt5queueISt10shared_ptrIN2tf8TopologyEESt5dequeIS3_SaIS3_EEE4sizeEv
   fun:_ZN2tf8Taskflow14_fetch_enqueueESt10shared_ptrINS_8TopologyEE
   fun:_ZZN2tf8Executor9run_untilIZNS0_5run_nIZNS0_3runEONS_8TaskflowEEUlvE_EENS_6FutureIvEES4_mOT_EUlvE_S5_EES7_S4_S9_OT0_ENUlRNS_7RuntimeEE_clESE_
   fun:_ZSt13__invoke_implIvRZN2tf8Executor9run_untilIZNS1_5run_nIZNS1_3runEONS0_8TaskflowEEUlvE_EENS0_6FutureIvEES5_mOT_EUlvE_S6_EES8_S5_SA_OT0_EUlRNS0_7RuntimeEE_JSF_EES9_St14__invoke_otherSD_DpOT1_
   fun:_ZSt10__invoke_rIvRZN2tf8Executor9run_untilIZNS1_5run_nIZNS1_3runEONS0_8TaskflowEEUlvE_EENS0_6FutureIvEES5_mOT_EUlvE_S6_EES8_S5_SA_OT0_EUlRNS0_7RuntimeEE_JSF_EENSt9enable_ifIX16is_invocable_r_vIS9_SC_DpT1_EES9_E4typeESD_DpOSJ_
   fun:_ZNSt17_Function_handlerIFvRN2tf7RuntimeEEZNS0_8Executor9run_untilIZNS4_5run_nIZNS4_3runEONS0_8TaskflowEEUlvE_EENS0_6FutureIvEES8_mOT_EUlvE_S9_EESB_S8_SD_OT0_EUlS2_E_E9_M_invokeERKSt9_Any_dataS2_
   fun:_ZNKSt8functionIFvRN2tf7RuntimeEEEclES2_
   fun:_ZN2tf8Executor25_invoke_runtime_task_implERNS_6WorkerEPNS_4NodeERSt8functionIFvRNS_7RuntimeEEE
   fun:_ZN2tf8Executor18_invoke_async_taskERNS_6WorkerEPNS_4NodeE
   fun:_ZN2tf8Executor7_invokeERNS_6WorkerEPNS_4NodeE
}
{
   <insert_a_suppression_name_here>
   Helgrind:Race
   fun:_ZStmiRKSt15_Deque_iteratorISt10shared_ptrIN2tf8TopologyEERS3_PS3_ES8_
   fun:_ZNKSt5dequeISt10shared_ptrIN2tf8TopologyEESaIS3_EE4sizeEv
   fun:_ZNKSt5queueISt10shared_ptrIN2tf8TopologyEESt5dequeIS3_SaIS3_EEE4sizeEv
   fun:_ZN2tf8Taskflow14_fetch_enqueueESt10shared_ptrINS_8TopologyEE
   fun:_ZZN2tf8Executor9run_untilIZNS0_5run_nIZNS0_3runEONS_8TaskflowEEUlvE_EENS_6FutureIvEES4_mOT_EUlvE_S5_EES7_S4_S9_OT0_ENUlRNS_7RuntimeEE_clESE_
   fun:_ZSt13__invoke_implIvRZN2tf8Executor9run_untilIZNS1_5run_nIZNS1_3runEONS0_8TaskflowEEUlvE_EENS0_6FutureIvEES5_mOT_EUlvE_S6_EES8_S5_SA_OT0_EUlRNS0_7RuntimeEE_JSF_EES9_St14__invoke_otherSD_DpOT1_
   fun:_ZSt10__invoke_rIvRZN2tf8Executor9run_untilIZNS1_5run_nIZNS1_3runEONS0_8TaskflowEEUlvE_EENS0_6FutureIvEES5_mOT_EUlvE_S6_EES8_S5_SA_OT0_EUlRNS0_7RuntimeEE_JSF_EENSt9enable_ifIX16is_invocable_r_vIS9_SC_DpT1_EES9_E4typeESD_DpOSJ_
   fun:_ZNSt17_Function_handlerIFvRN2tf7RuntimeEEZNS0_8Executor9run_untilIZNS4_5run_nIZNS4_3runEONS0_8TaskflowEEUlvE_EENS0_6FutureIvEES8_mOT_EUlvE_S9_EESB_S8_SD_OT0_EUlS2_E_E9_M_invokeERKSt9_Any_dataS2_
   fun:_ZNKSt8functionIFvRN2tf7RuntimeEEEclES2_
   fun:_ZN2tf8Executor25_invoke_runtime_task_implERNS_6WorkerEPNS_4NodeERSt8functionIFvRNS_7RuntimeEEE
   fun:_ZN2tf8Executor18_invoke_async_taskERNS_6WorkerEPNS_4NodeE
   fun:_ZN2tf8Executor7_invokeERNS_6WorkerEPNS_4NodeE
}
{
   <insert_a_suppression_name_here>
   Helgrind:Race
   fun:_ZStmiRKSt15_Deque_iteratorISt10shared_ptrIN2tf8TopologyEERS3_PS3_ES8_
   fun:_ZNKSt5dequeISt10shared_ptrIN2tf8TopologyEESaIS3_EE4sizeEv
   fun:_ZNKSt5queueISt10shared_ptrIN2tf8TopologyEESt5dequeIS3_SaIS3_EEE4sizeEv
   fun:_ZN2tf8Taskflow14_fetch_enqueueESt10shared_ptrINS_8TopologyEE
   fun:_ZZN2tf8Executor9run_untilIZNS0_5run_nIZNS0_3runEONS_8TaskflowEEUlvE_EENS_6FutureIvEES4_mOT_EUlvE_S5_EES7_S4_S9_OT0_ENUlRNS_7RuntimeEE_clESE_
   fun:_ZSt13__invoke_implIvRZN2tf8Executor9run_untilIZNS1_5run_nIZNS1_3runEONS0_8TaskflowEEUlvE_EENS0_6FutureIvEES5_mOT_EUlvE_S6_EES8_S5_SA_OT0_EUlRNS0_7RuntimeEE_JSF_EES9_St14__invoke_otherSD_DpOT1_
   fun:_ZSt10__invoke_rIvRZN2tf8Executor9run_untilIZNS1_5run_nIZNS1_3runEONS0_8TaskflowEEUlvE_EENS0_6FutureIvEES5_mOT_EUlvE_S6_EES8_S5_SA_OT0_EUlRNS0_7RuntimeEE_JSF_EENSt9enable_ifIX16is_invocable_r_vIS9_SC_DpT1_EES9_E4typeESD_DpOSJ_
   fun:_ZNSt17_Function_handlerIFvRN2tf7RuntimeEEZNS0_8Executor9run_untilIZNS4_5run_nIZNS4_3runEONS0_8TaskflowEEUlvE_EENS0_6FutureIvEES8_mOT_EUlvE_S9_EESB_S8_SD_OT0_EUlS2_E_E9_M_invokeERKSt9_Any_dataS2_
   fun:_ZNKSt8functionIFvRN2tf7RuntimeEEEclES2_
   fun:_ZN2tf8Executor25_invoke_runtime_task_implERNS_6WorkerEPNS_4NodeERSt8functionIFvRNS_7RuntimeEEE
   fun:_ZN2tf8Executor18_invoke_async_taskERNS_6WorkerEPNS_4NodeE
   fun:_ZN2tf8Executor7_invokeERNS_6WorkerEPNS_4NodeE
}
{
   <insert_a_suppression_name_here>
   Helgrind:Race
   fun:_ZNSt5dequeISt10shared_ptrIN2tf8TopologyEESaIS3_EE12emplace_backIJS3_EEERS3_DpOT_
   fun:_ZNSt5queueISt10shared_ptrIN2tf8TopologyEESt5dequeIS3_SaIS3_EEE7emplaceIJS3_EEEDcDpOT_
   fun:_ZN2tf8Taskflow14_fetch_enqueueESt10shared_ptrINS_8TopologyEE
   fun:_ZZN2tf8Executor9run_untilIZNS0_5run_nIZNS0_3runEONS_8TaskflowEEUlvE_EENS_6FutureIvEES4_mOT_EUlvE_S5_EES7_S4_S9_OT0_ENUlRNS_7RuntimeEE_clESE_
   fun:_ZSt13__invoke_implIvRZN2tf8Executor9run_untilIZNS1_5run_nIZNS1_3runEONS0_8TaskflowEEUlvE_EENS0_6FutureIvEES5_mOT_EUlvE_S6_EES8_S5_SA_OT0_EUlRNS0_7RuntimeEE_JSF_EES9_St14__invoke_otherSD_DpOT1_
   fun:_ZSt10__invoke_rIvRZN2tf8Executor9run_untilIZNS1_5run_nIZNS1_3runEONS0_8TaskflowEEUlvE_EENS0_6FutureIvEES5_mOT_EUlvE_S6_EES8_S5_SA_OT0_EUlRNS0_7RuntimeEE_JSF_EENSt9enable_ifIX16is_invocable_r_vIS9_SC_DpT1_EES9_E4typeESD_DpOSJ_
   fun:_ZNSt17_Function_handlerIFvRN2tf7RuntimeEEZNS0_8Executor9run_untilIZNS4_5run_nIZNS4_3runEONS0_8TaskflowEEUlvE_EENS0_6FutureIvEES8_mOT_EUlvE_S9_EESB_S8_SD_OT0_EUlS2_E_E9_M_invokeERKSt9_Any_dataS2_
   fun:_ZNKSt8functionIFvRN2tf7RuntimeEEEclES2_
   fun:_ZN2tf8Executor25_invoke_runtime_task_implERNS_6WorkerEPNS_4NodeERSt8functionIFvRNS_7RuntimeEEE
   fun:_ZN2tf8Executor18_invoke_async_taskERNS_6WorkerEPNS_4NodeE
   fun:_ZN2tf8Executor7_invokeERNS_6WorkerEPNS_4NodeE
   fun:_ZN2tf8Executor13_exploit_taskERNS_6WorkerERPNS_4NodeE
}
{
   <insert_a_suppression_name_here>
   Helgrind:Race
   fun:_ZNSt12__shared_ptrIN2tf8TopologyELN9__gnu_cxx12_Lock_policyE2EEC1EOS4_
   fun:_ZNSt10shared_ptrIN2tf8TopologyEEC1EOS2_
   fun:_ZSt12construct_atISt10shared_ptrIN2tf8TopologyEEJS3_EEDTgsnwcvPvLi0E_T_pispcl7declvalIT0_EEEEPS5_DpOS6_
   fun:construct<std::shared_ptr<tf::Topology>, std::shared_ptr<tf::Topology> >
   fun:_ZNSt5dequeISt10shared_ptrIN2tf8TopologyEESaIS3_EE12emplace_backIJS3_EEERS3_DpOT_
   fun:_ZNSt5queueISt10shared_ptrIN2tf8TopologyEESt5dequeIS3_SaIS3_EEE7emplaceIJS3_EEEDcDpOT_
   fun:_ZN2tf8Taskflow14_fetch_enqueueESt10shared_ptrINS_8TopologyEE
   fun:_ZZN2tf8Executor9run_untilIZNS0_5run_nIZNS0_3runEONS_8TaskflowEEUlvE_EENS_6FutureIvEES4_mOT_EUlvE_S5_EES7_S4_S9_OT0_ENUlRNS_7RuntimeEE_clESE_
   fun:_ZSt13__invoke_implIvRZN2tf8Executor9run_untilIZNS1_5run_nIZNS1_3runEONS0_8TaskflowEEUlvE_EENS0_6FutureIvEES5_mOT_EUlvE_S6_EES8_S5_SA_OT0_EUlRNS0_7RuntimeEE_JSF_EES9_St14__invoke_otherSD_DpOT1_
   fun:_ZSt10__invoke_rIvRZN2tf8Executor9run_untilIZNS1_5run_nIZNS1_3runEONS0_8TaskflowEEUlvE_EENS0_6FutureIvEES5_mOT_EUlvE_S6_EES8_S5_SA_OT0_EUlRNS0_7RuntimeEE_JSF_EENSt9enable_ifIX16is_invocable_r_vIS9_SC_DpT1_EES9_E4typeESD_DpOSJ_
   fun:_ZNSt17_Function_handlerIFvRN2tf7RuntimeEEZNS0_8Executor9run_untilIZNS4_5run_nIZNS4_3runEONS0_8TaskflowEEUlvE_EENS0_6FutureIvEES8_mOT_EUlvE_S9_EESB_S8_SD_OT0_EUlS2_E_E9_M_invokeERKSt9_Any_dataS2_
   fun:_ZNKSt8functionIFvRN2tf7RuntimeEEEclES2_
   fun:_ZN2tf8Executor25_invoke_runtime_task_implERNS_6WorkerEPNS_4NodeERSt8functionIFvRNS_7RuntimeEEE
}
{
   <insert_a_suppression_name_here>
   Helgrind:Race
   fun:_ZNSt14__shared_countILN9__gnu_cxx12_Lock_policyE2EEC1Ev
   fun:_ZNSt12__shared_ptrIN2tf8TopologyELN9__gnu_cxx12_Lock_policyE2EEC1EOS4_
   fun:_ZNSt10shared_ptrIN2tf8TopologyEEC1EOS2_
   fun:_ZSt12construct_atISt10shared_ptrIN2tf8TopologyEEJS3_EEDTgsnwcvPvLi0E_T_pispcl7declvalIT0_EEEEPS5_DpOS6_
   fun:construct<std::shared_ptr<tf::Topology>, std::shared_ptr<tf::Topology> >
   fun:_ZNSt5dequeISt10shared_ptrIN2tf8TopologyEESaIS3_EE12emplace_backIJS3_EEERS3_DpOT_
   fun:_ZNSt5queueISt10shared_ptrIN2tf8TopologyEESt5dequeIS3_SaIS3_EEE7emplaceIJS3_EEEDcDpOT_
   fun:_ZN2tf8Taskflow14_fetch_enqueueESt10shared_ptrINS_8TopologyEE
   fun:_ZZN2tf8Executor9run_untilIZNS0_5run_nIZNS0_3runEONS_8TaskflowEEUlvE_EENS_6FutureIvEES4_mOT_EUlvE_S5_EES7_S4_S9_OT0_ENUlRNS_7RuntimeEE_clESE_
   fun:_ZSt13__invoke_implIvRZN2tf8Executor9run_untilIZNS1_5run_nIZNS1_3runEONS0_8TaskflowEEUlvE_EENS0_6FutureIvEES5_mOT_EUlvE_S6_EES8_S5_SA_OT0_EUlRNS0_7RuntimeEE_JSF_EES9_St14__invoke_otherSD_DpOT1_
   fun:_ZSt10__invoke_rIvRZN2tf8Executor9run_untilIZNS1_5run_nIZNS1_3runEONS0_8TaskflowEEUlvE_EENS0_6FutureIvEES5_mOT_EUlvE_S6_EES8_S5_SA_OT0_EUlRNS0_7RuntimeEE_JSF_EENSt9enable_ifIX16is_invocable_r_vIS9_SC_DpT1_EES9_E4typeESD_DpOSJ_
   fun:_ZNSt17_Function_handlerIFvRN2tf7RuntimeEEZNS0_8Executor9run_untilIZNS4_5run_nIZNS4_3runEONS0_8TaskflowEEUlvE_EENS0_6FutureIvEES8_mOT_EUlvE_S9_EESB_S8_SD_OT0_EUlS2_E_E9_M_invokeERKSt9_Any_dataS2_
   fun:_ZNKSt8functionIFvRN2tf7RuntimeEEEclES2_
}
{
   <insert_a_suppression_name_here>
   Helgrind:Race
   fun:_ZNSt5dequeISt10shared_ptrIN2tf8TopologyEESaIS3_EE12emplace_backIJS3_EEERS3_DpOT_
   fun:_ZNSt5queueISt10shared_ptrIN2tf8TopologyEESt5dequeIS3_SaIS3_EEE7emplaceIJS3_EEEDcDpOT_
   fun:_ZN2tf8Taskflow14_fetch_enqueueESt10shared_ptrINS_8TopologyEE
   fun:_ZZN2tf8Executor9run_untilIZNS0_5run_nIZNS0_3runEONS_8TaskflowEEUlvE_EENS_6FutureIvEES4_mOT_EUlvE_S5_EES7_S4_S9_OT0_ENUlRNS_7RuntimeEE_clESE_
   fun:_ZSt13__invoke_implIvRZN2tf8Executor9run_untilIZNS1_5run_nIZNS1_3runEONS0_8TaskflowEEUlvE_EENS0_6FutureIvEES5_mOT_EUlvE_S6_EES8_S5_SA_OT0_EUlRNS0_7RuntimeEE_JSF_EES9_St14__invoke_otherSD_DpOT1_
   fun:_ZSt10__invoke_rIvRZN2tf8Executor9run_untilIZNS1_5run_nIZNS1_3runEONS0_8TaskflowEEUlvE_EENS0_6FutureIvEES5_mOT_EUlvE_S6_EES8_S5_SA_OT0_EUlRNS0_7RuntimeEE_JSF_EENSt9enable_ifIX16is_invocable_r_vIS9_SC_DpT1_EES9_E4typeESD_DpOSJ_
   fun:_ZNSt17_Function_handlerIFvRN2tf7RuntimeEEZNS0_8Executor9run_untilIZNS4_5run_nIZNS4_3runEONS0_8TaskflowEEUlvE_EENS0_6FutureIvEES8_mOT_EUlvE_S9_EESB_S8_SD_OT0_EUlS2_E_E9_M_invokeERKSt9_Any_dataS2_
   fun:_ZNKSt8functionIFvRN2tf7RuntimeEEEclES2_
   fun:_ZN2tf8Executor25_invoke_runtime_task_implERNS_6WorkerEPNS_4NodeERSt8functionIFvRNS_7RuntimeEEE
   fun:_ZN2tf8Executor18_invoke_async_taskERNS_6WorkerEPNS_4NodeE
   fun:_ZN2tf8Executor7_invokeERNS_6WorkerEPNS_4NodeE
   fun:_ZN2tf8Executor13_exploit_taskERNS_6WorkerERPNS_4NodeE
}
{
   <insert_a_suppression_name_here>
   Helgrind:Race
   fun:_ZNKSt12__shared_ptrIN2tf8TopologyELN9__gnu_cxx12_Lock_policyE2EE3getEv
   fun:_ZZN2tf8Executor9run_untilIZNS0_5run_nIZNS0_3runEONS_8TaskflowEEUlvE_EENS_6FutureIvEES4_mOT_EUlvE_S5_EES7_S4_S9_OT0_ENUlRNS_7RuntimeEE_clESE_
   fun:_ZSt13__invoke_implIvRZN2tf8Executor9run_untilIZNS1_5run_nIZNS1_3runEONS0_8TaskflowEEUlvE_EENS0_6FutureIvEES5_mOT_EUlvE_S6_EES8_S5_SA_OT0_EUlRNS0_7RuntimeEE_JSF_EES9_St14__invoke_otherSD_DpOT1_
   fun:_ZSt10__invoke_rIvRZN2tf8Executor9run_untilIZNS1_5run_nIZNS1_3runEONS0_8TaskflowEEUlvE_EENS0_6FutureIvEES5_mOT_EUlvE_S6_EES8_S5_SA_OT0_EUlRNS0_7RuntimeEE_JSF_EENSt9enable_ifIX16is_invocable_r_vIS9_SC_DpT1_EES9_E4typeESD_DpOSJ_
   fun:_ZNSt17_Function_handlerIFvRN2tf7RuntimeEEZNS0_8Executor9run_untilIZNS4_5run_nIZNS4_3runEONS0_8TaskflowEEUlvE_EENS0_6FutureIvEES8_mOT_EUlvE_S9_EESB_S8_SD_OT0_EUlS2_E_E9_M_invokeERKSt9_Any_dataS2_
   fun:_ZNKSt8functionIFvRN2tf7RuntimeEEEclES2_
   fun:_ZN2tf8Executor25_invoke_runtime_task_implERNS_6WorkerEPNS_4NodeERSt8functionIFvRNS_7RuntimeEEE
   fun:_ZN2tf8Executor18_invoke_async_taskERNS_6WorkerEPNS_4NodeE
   fun:_ZN2tf8Executor7_invokeERNS_6WorkerEPNS_4NodeE
   fun:_ZN2tf8Executor13_exploit_taskERNS_6WorkerERPNS_4NodeE
   fun:_ZZN2tf8Executor6_spawnEmSt10shared_ptrINS_15WorkerInterfaceEEENKUlvE_clEv
   fun:_ZSt13__invoke_implIvZN2tf8Executor6_spawnEmSt10shared_ptrINS0_15WorkerInterfaceEEEUlvE_JEET_St14__invoke_otherOT0_DpOT1_
}
{
   <insert_a_suppression_name_here>
   Helgrind:Race
   fun:_ZNKSt15__uniq_ptr_implIN2tf8TaskflowESt14default_deleteIS1_EE6_M_ptrEv
   fun:_ZNKSt10unique_ptrIN2tf8TaskflowESt14default_deleteIS1_EE3getEv
   fun:_ZNKSt10unique_ptrIN2tf8TaskflowESt14default_deleteIS1_EEptEv
   fun:_ZZN2tf8Executor9run_untilIZNS0_5run_nIZNS0_3runEONS_8TaskflowEEUlvE_EENS_6FutureIvEES4_mOT_EUlvE_S5_EES7_S4_S9_OT0_ENUlRNS_7RuntimeEE_clESE_
   fun:_ZSt13__invoke_implIvRZN2tf8Executor9run_untilIZNS1_5run_nIZNS1_3runEONS0_8TaskflowEEUlvE_EENS0_6FutureIvEES5_mOT_EUlvE_S6_EES8_S5_SA_OT0_EUlRNS0_7RuntimeEE_JSF_EES9_St14__invoke_otherSD_DpOT1_
   fun:_ZSt10__invoke_rIvRZN2tf8Executor9run_untilIZNS1_5run_nIZNS1_3runEONS0_8TaskflowEEUlvE_EENS0_6FutureIvEES5_mOT_EUlvE_S6_EES8_S5_SA_OT0_EUlRNS0_7RuntimeEE_JSF_EENSt9enable_ifIX16is_invocable_r_vIS9_SC_DpT1_EES9_E4typeESD_DpOSJ_
   fun:_ZNSt17_Function_handlerIFvRN2tf7RuntimeEEZNS0_8Executor9run_untilIZNS4_5run_nIZNS4_3runEONS0_8TaskflowEEUlvE_EENS0_6FutureIvEES8_mOT_EUlvE_S9_EESB_S8_SD_OT0_EUlS2_E_E9_M_invokeERKSt9_Any_dataS2_
   fun:_ZNKSt8functionIFvRN2tf7RuntimeEEEclES2_
   fun:_ZN2tf8Executor25_invoke_runtime_task_implERNS_6WorkerEPNS_4NodeERSt8functionIFvRNS_7RuntimeEEE
   fun:_ZN2tf8Executor18_invoke_async_taskERNS_6WorkerEPNS_4NodeE
   fun:_ZN2tf8Executor7_invokeERNS_6WorkerEPNS_4NodeE
   fun:_ZN2tf8Executor13_exploit_taskERNS_6WorkerERPNS_4NodeE
}
{
   <insert_a_suppression_name_here>
   Helgrind:Race
   fun:_ZN9__gnu_cxx17__normal_iteratorIPPN2tf4NodeESt6vectorIS3_SaIS3_EEEC1ERKS4_
   fun:_ZNSt6vectorIPN2tf4NodeESaIS2_EE5beginEv
   fun:_ZN2tf5Graph5beginEv
   fun:_ZN2tf8Executor13_set_up_graphERNS_5GraphEPNS_8TopologyEPNS_8NodeBaseE
   fun:_ZN2tf8Executor27_schedule_graph_with_parentERNS_6WorkerERNS_5GraphEPNS_8TopologyEPNS_8NodeBaseE
   fun:_ZZN2tf8Executor9run_untilIZNS0_5run_nIZNS0_3runEONS_8TaskflowEEUlvE_EENS_6FutureIvEES4_mOT_EUlvE_S5_EES7_S4_S9_OT0_ENUlRNS_7RuntimeEE_clESE_
   fun:_ZSt13__invoke_implIvRZN2tf8Executor9run_untilIZNS1_5run_nIZNS1_3runEONS0_8TaskflowEEUlvE_EENS0_6FutureIvEES5_mOT_EUlvE_S6_EES8_S5_SA_OT0_EUlRNS0_7RuntimeEE_JSF_EES9_St14__invoke_otherSD_DpOT1_
   fun:_ZSt10__invoke_rIvRZN2tf8Executor9run_untilIZNS1_5run_nIZNS1_3runEONS0_8TaskflowEEUlvE_EENS0_6FutureIvEES5_mOT_EUlvE_S6_EES8_S5_SA_OT0_EUlRNS0_7RuntimeEE_JSF_EENSt9enable_ifIX16is_invocable_r_vIS9_SC_DpT1_EES9_E4typeESD_DpOSJ_
   fun:_ZNSt17_Function_handlerIFvRN2tf7RuntimeEEZNS0_8Executor9run_untilIZNS4_5run_nIZNS4_3runEONS0_8TaskflowEEUlvE_EENS0_6FutureIvEES8_mOT_EUlvE_S9_EESB_S8_SD_OT0_EUlS2_E_E9_M_invokeERKSt9_Any_dataS2_
   fun:_ZNKSt8functionIFvRN2tf7RuntimeEEEclES2_
   fun:_ZN2tf8Executor25_invoke_runtime_task_implERNS_6WorkerEPNS_4NodeERSt8functionIFvRNS_7RuntimeEEE
   fun:_ZN2tf8Executor18_invoke_async_taskERNS_6WorkerEPNS_4NodeE
}
{
   <insert_a_suppression_name_here>
   Helgrind:Race
   fun:_ZN9__gnu_cxx17__normal_iteratorIPPN2tf4NodeESt6vectorIS3_SaIS3_EEEC1ERKS4_
   fun:_ZNSt6vectorIPN2tf4NodeESaIS2_EE3endEv
   fun:_ZN2tf5Graph3endEv
   fun:_ZN2tf8Executor13_set_up_graphERNS_5GraphEPNS_8TopologyEPNS_8NodeBaseE
   fun:_ZN2tf8Executor27_schedule_graph_with_parentERNS_6WorkerERNS_5GraphEPNS_8TopologyEPNS_8NodeBaseE
   fun:_ZZN2tf8Executor9run_untilIZNS0_5run_nIZNS0_3runEONS_8TaskflowEEUlvE_EENS_6FutureIvEES4_mOT_EUlvE_S5_EES7_S4_S9_OT0_ENUlRNS_7RuntimeEE_clESE_
   fun:_ZSt13__invoke_implIvRZN2tf8Executor9run_untilIZNS1_5run_nIZNS1_3runEONS0_8TaskflowEEUlvE_EENS0_6FutureIvEES5_mOT_EUlvE_S6_EES8_S5_SA_OT0_EUlRNS0_7RuntimeEE_JSF_EES9_St14__invoke_otherSD_DpOT1_
   fun:_ZSt10__invoke_rIvRZN2tf8Executor9run_untilIZNS1_5run_nIZNS1_3runEONS0_8TaskflowEEUlvE_EENS0_6FutureIvEES5_mOT_EUlvE_S6_EES8_S5_SA_OT0_EUlRNS0_7RuntimeEE_JSF_EENSt9enable_ifIX16is_invocable_r_vIS9_SC_DpT1_EES9_E4typeESD_DpOSJ_
   fun:_ZNSt17_Function_handlerIFvRN2tf7RuntimeEEZNS0_8Executor9run_untilIZNS4_5run_nIZNS4_3runEONS0_8TaskflowEEUlvE_EENS0_6FutureIvEES8_mOT_EUlvE_S9_EESB_S8_SD_OT0_EUlS2_E_E9_M_invokeERKSt9_Any_dataS2_
   fun:_ZNKSt8functionIFvRN2tf7RuntimeEEEclES2_
   fun:_ZN2tf8Executor25_invoke_runtime_task_implERNS_6WorkerEPNS_4NodeERSt8functionIFvRNS_7RuntimeEEE
   fun:_ZN2tf8Executor18_invoke_async_taskERNS_6WorkerEPNS_4NodeE
}
{
   <insert_a_suppression_name_here>
   Helgrind:Race
   fun:_ZN2tf8Executor13_set_up_graphERNS_5GraphEPNS_8TopologyEPNS_8NodeBaseE
   fun:_ZN2tf8Executor27_schedule_graph_with_parentERNS_6WorkerERNS_5GraphEPNS_8TopologyEPNS_8NodeBaseE
   fun:_ZZN2tf8Executor9run_untilIZNS0_5run_nIZNS0_3runEONS_8TaskflowEEUlvE_EENS_6FutureIvEES4_mOT_EUlvE_S5_EES7_S4_S9_OT0_ENUlRNS_7RuntimeEE_clESE_
   fun:_ZSt13__invoke_implIvRZN2tf8Executor9run_untilIZNS1_5run_nIZNS1_3runEONS0_8TaskflowEEUlvE_EENS0_6FutureIvEES5_mOT_EUlvE_S6_EES8_S5_SA_OT0_EUlRNS0_7RuntimeEE_JSF_EES9_St14__invoke_otherSD_DpOT1_
   fun:_ZSt10__invoke_rIvRZN2tf8Executor9run_untilIZNS1_5run_nIZNS1_3runEONS0_8TaskflowEEUlvE_EENS0_6FutureIvEES5_mOT_EUlvE_S6_EES8_S5_SA_OT0_EUlRNS0_7RuntimeEE_JSF_EENSt9enable_ifIX16is_invocable_r_vIS9_SC_DpT1_EES9_E4typeESD_DpOSJ_
   fun:_ZNSt17_Function_handlerIFvRN2tf7RuntimeEEZNS0_8Executor9run_untilIZNS4_5run_nIZNS4_3runEONS0_8TaskflowEEUlvE_EENS0_6FutureIvEES8_mOT_EUlvE_S9_EESB_S8_SD_OT0_EUlS2_E_E9_M_invokeERKSt9_Any_dataS2_
   fun:_ZNKSt8functionIFvRN2tf7RuntimeEEEclES2_
   fun:_ZN2tf8Executor25_invoke_runtime_task_implERNS_6WorkerEPNS_4NodeERSt8functionIFvRNS_7RuntimeEEE
   fun:_ZN2tf8Executor18_invoke_async_taskERNS_6WorkerEPNS_4NodeE
   fun:_ZN2tf8Executor7_invokeERNS_6WorkerEPNS_4NodeE
   fun:_ZN2tf8Executor13_exploit_taskERNS_6WorkerERPNS_4NodeE
   fun:_ZZN2tf8Executor6_spawnEmSt10shared_ptrINS_15WorkerInterfaceEEENKUlvE_clEv
}
{
   <insert_a_suppression_name_here>
   Helgrind:Race
   fun:_ZN2tf8Executor13_set_up_graphERNS_5GraphEPNS_8TopologyEPNS_8NodeBaseE
   fun:_ZN2tf8Executor27_schedule_graph_with_parentERNS_6WorkerERNS_5GraphEPNS_8TopologyEPNS_8NodeBaseE
   fun:_ZZN2tf8Executor9run_untilIZNS0_5run_nIZNS0_3runEONS_8TaskflowEEUlvE_EENS_6FutureIvEES4_mOT_EUlvE_S5_EES7_S4_S9_OT0_ENUlRNS_7RuntimeEE_clESE_
   fun:_ZSt13__invoke_implIvRZN2tf8Executor9run_untilIZNS1_5run_nIZNS1_3runEONS0_8TaskflowEEUlvE_EENS0_6FutureIvEES5_mOT_EUlvE_S6_EES8_S5_SA_OT0_EUlRNS0_7RuntimeEE_JSF_EES9_St14__invoke_otherSD_DpOT1_
   fun:_ZSt10__invoke_rIvRZN2tf8Executor9run_untilIZNS1_5run_nIZNS1_3runEONS0_8TaskflowEEUlvE_EENS0_6FutureIvEES5_mOT_EUlvE_S6_EES8_S5_SA_OT0_EUlRNS0_7RuntimeEE_JSF_EENSt9enable_ifIX16is_invocable_r_vIS9_SC_DpT1_EES9_E4typeESD_DpOSJ_
   fun:_ZNSt17_Function_handlerIFvRN2tf7RuntimeEEZNS0_8Executor9run_untilIZNS4_5run_nIZNS4_3runEONS0_8TaskflowEEUlvE_EENS0_6FutureIvEES8_mOT_EUlvE_S9_EESB_S8_SD_OT0_EUlS2_E_E9_M_invokeERKSt9_Any_dataS2_
   fun:_ZNKSt8functionIFvRN2tf7RuntimeEEEclES2_
   fun:_ZN2tf8Executor25_invoke_runtime_task_implERNS_6WorkerEPNS_4NodeERSt8functionIFvRNS_7RuntimeEEE
   fun:_ZN2tf8Executor18_invoke_async_taskERNS_6WorkerEPNS_4NodeE
   fun:_ZN2tf8Executor7_invokeERNS_6WorkerEPNS_4NodeE
   fun:_ZN2tf8Executor13_exploit_taskERNS_6WorkerERPNS_4NodeE
   fun:_ZZN2tf8Executor6_spawnEmSt10shared_ptrINS_15WorkerInterfaceEEENKUlvE_clEv
}
{
   <insert_a_suppression_name_here>
   Helgrind:Race
   fun:_ZN2tf8Executor13_set_up_graphERNS_5GraphEPNS_8TopologyEPNS_8NodeBaseE
   fun:_ZN2tf8Executor27_schedule_graph_with_parentERNS_6WorkerERNS_5GraphEPNS_8TopologyEPNS_8NodeBaseE
   fun:_ZZN2tf8Executor9run_untilIZNS0_5run_nIZNS0_3runEONS_8TaskflowEEUlvE_EENS_6FutureIvEES4_mOT_EUlvE_S5_EES7_S4_S9_OT0_ENUlRNS_7RuntimeEE_clESE_
   fun:_ZSt13__invoke_implIvRZN2tf8Executor9run_untilIZNS1_5run_nIZNS1_3runEONS0_8TaskflowEEUlvE_EENS0_6FutureIvEES5_mOT_EUlvE_S6_EES8_S5_SA_OT0_EUlRNS0_7RuntimeEE_JSF_EES9_St14__invoke_otherSD_DpOT1_
   fun:_ZSt10__invoke_rIvRZN2tf8Executor9run_untilIZNS1_5run_nIZNS1_3runEONS0_8TaskflowEEUlvE_EENS0_6FutureIvEES5_mOT_EUlvE_S6_EES8_S5_SA_OT0_EUlRNS0_7RuntimeEE_JSF_EENSt9enable_ifIX16is_invocable_r_vIS9_SC_DpT1_EES9_E4typeESD_DpOSJ_
   fun:_ZNSt17_Function_handlerIFvRN2tf7RuntimeEEZNS0_8Executor9run_untilIZNS4_5run_nIZNS4_3runEONS0_8TaskflowEEUlvE_EENS0_6FutureIvEES8_mOT_EUlvE_S9_EESB_S8_SD_OT0_EUlS2_E_E9_M_invokeERKSt9_Any_dataS2_
   fun:_ZNKSt8functionIFvRN2tf7RuntimeEEEclES2_
   fun:_ZN2tf8Executor25_invoke_runtime_task_implERNS_6WorkerEPNS_4NodeERSt8functionIFvRNS_7RuntimeEEE
   fun:_ZN2tf8Executor18_invoke_async_taskERNS_6WorkerEPNS_4NodeE
   fun:_ZN2tf8Executor7_invokeERNS_6WorkerEPNS_4NodeE
   fun:_ZN2tf8Executor13_exploit_taskERNS_6WorkerERPNS_4NodeE
   fun:_ZZN2tf8Executor6_spawnEmSt10shared_ptrINS_15WorkerInterfaceEEENKUlvE_clEv
}
{
   <insert_a_suppression_name_here>
   Helgrind:Race
   fun:_ZN2tf8Executor13_set_up_graphERNS_5GraphEPNS_8TopologyEPNS_8NodeBaseE
   fun:_ZN2tf8Executor27_schedule_graph_with_parentERNS_6WorkerERNS_5GraphEPNS_8TopologyEPNS_8NodeBaseE
   fun:_ZZN2tf8Executor9run_untilIZNS0_5run_nIZNS0_3runEONS_8TaskflowEEUlvE_EENS_6FutureIvEES4_mOT_EUlvE_S5_EES7_S4_S9_OT0_ENUlRNS_7RuntimeEE_clESE_
   fun:_ZSt13__invoke_implIvRZN2tf8Executor9run_untilIZNS1_5run_nIZNS1_3runEONS0_8TaskflowEEUlvE_EENS0_6FutureIvEES5_mOT_EUlvE_S6_EES8_S5_SA_OT0_EUlRNS0_7RuntimeEE_JSF_EES9_St14__invoke_otherSD_DpOT1_
   fun:_ZSt10__invoke_rIvRZN2tf8Executor9run_untilIZNS1_5run_nIZNS1_3runEONS0_8TaskflowEEUlvE_EENS0_6FutureIvEES5_mOT_EUlvE_S6_EES8_S5_SA_OT0_EUlRNS0_7RuntimeEE_JSF_EENSt9enable_ifIX16is_invocable_r_vIS9_SC_DpT1_EES9_E4typeESD_DpOSJ_
   fun:_ZNSt17_Function_handlerIFvRN2tf7RuntimeEEZNS0_8Executor9run_untilIZNS4_5run_nIZNS4_3runEONS0_8TaskflowEEUlvE_EENS0_6FutureIvEES8_mOT_EUlvE_S9_EESB_S8_SD_OT0_EUlS2_E_E9_M_invokeERKSt9_Any_dataS2_
   fun:_ZNKSt8functionIFvRN2tf7RuntimeEEEclES2_
   fun:_ZN2tf8Executor25_invoke_runtime_task_implERNS_6WorkerEPNS_4NodeERSt8functionIFvRNS_7RuntimeEEE
   fun:_ZN2tf8Executor18_invoke_async_taskERNS_6WorkerEPNS_4NodeE
   fun:_ZN2tf8Executor7_invokeERNS_6WorkerEPNS_4NodeE
   fun:_ZN2tf8Executor13_exploit_taskERNS_6WorkerERPNS_4NodeE
   fun:_ZZN2tf8Executor6_spawnEmSt10shared_ptrINS_15WorkerInterfaceEEENKUlvE_clEv
}
{
   <insert_a_suppression_name_here>
   Helgrind:Race
   fun:store
   fun:_ZN2tf8Executor13_set_up_graphERNS_5GraphEPNS_8TopologyEPNS_8NodeBaseE
   fun:_ZN2tf8Executor27_schedule_graph_with_parentERNS_6WorkerERNS_5GraphEPNS_8TopologyEPNS_8NodeBaseE
   fun:_ZZN2tf8Executor9run_untilIZNS0_5run_nIZNS0_3runEONS_8TaskflowEEUlvE_EENS_6FutureIvEES4_mOT_EUlvE_S5_EES7_S4_S9_OT0_ENUlRNS_7RuntimeEE_clESE_
   fun:_ZSt13__invoke_implIvRZN2tf8Executor9run_untilIZNS1_5run_nIZNS1_3runEONS0_8TaskflowEEUlvE_EENS0_6FutureIvEES5_mOT_EUlvE_S6_EES8_S5_SA_OT0_EUlRNS0_7RuntimeEE_JSF_EES9_St14__invoke_otherSD_DpOT1_
   fun:_ZSt10__invoke_rIvRZN2tf8Executor9run_untilIZNS1_5run_nIZNS1_3runEONS0_8TaskflowEEUlvE_EENS0_6FutureIvEES5_mOT_EUlvE_S6_EES8_S5_SA_OT0_EUlRNS0_7RuntimeEE_JSF_EENSt9enable_ifIX16is_invocable_r_vIS9_SC_DpT1_EES9_E4typeESD_DpOSJ_
   fun:_ZNSt17_Function_handlerIFvRN2tf7RuntimeEEZNS0_8Executor9run_untilIZNS4_5run_nIZNS4_3runEONS0_8TaskflowEEUlvE_EENS0_6FutureIvEES8_mOT_EUlvE_S9_EESB_S8_SD_OT0_EUlS2_E_E9_M_invokeERKSt9_Any_dataS2_
   fun:_ZNKSt8functionIFvRN2tf7RuntimeEEEclES2_
   fun:_ZN2tf8Executor25_invoke_runtime_task_implERNS_6WorkerEPNS_4NodeERSt8functionIFvRNS_7RuntimeEEE
   fun:_ZN2tf8Executor18_invoke_async_taskERNS_6WorkerEPNS_4NodeE
   fun:_ZN2tf8Executor7_invokeERNS_6WorkerEPNS_4NodeE
   fun:_ZN2tf8Executor13_exploit_taskERNS_6WorkerERPNS_4NodeE
   fun:_ZZN2tf8Executor6_spawnEmSt10shared_ptrINS_15WorkerInterfaceEEENKUlvE_clEv
}
{
   <insert_a_suppression_name_here>
   Helgrind:Race
   fun:_ZN2tf4Node20_set_up_join_counterEv
   fun:_ZN2tf8Executor13_set_up_graphERNS_5GraphEPNS_8TopologyEPNS_8NodeBaseE
   fun:_ZN2tf8Executor27_schedule_graph_with_parentERNS_6WorkerERNS_5GraphEPNS_8TopologyEPNS_8NodeBaseE
   fun:_ZZN2tf8Executor9run_untilIZNS0_5run_nIZNS0_3runEONS_8TaskflowEEUlvE_EENS_6FutureIvEES4_mOT_EUlvE_S5_EES7_S4_S9_OT0_ENUlRNS_7RuntimeEE_clESE_
   fun:_ZSt13__invoke_implIvRZN2tf8Executor9run_untilIZNS1_5run_nIZNS1_3runEONS0_8TaskflowEEUlvE_EENS0_6FutureIvEES5_mOT_EUlvE_S6_EES8_S5_SA_OT0_EUlRNS0_7RuntimeEE_JSF_EES9_St14__invoke_otherSD_DpOT1_
   fun:_ZSt10__invoke_rIvRZN2tf8Executor9run_untilIZNS1_5run_nIZNS1_3runEONS0_8TaskflowEEUlvE_EENS0_6FutureIvEES5_mOT_EUlvE_S6_EES8_S5_SA_OT0_EUlRNS0_7RuntimeEE_JSF_EENSt9enable_ifIX16is_invocable_r_vIS9_SC_DpT1_EES9_E4typeESD_DpOSJ_
   fun:_ZNSt17_Function_handlerIFvRN2tf7RuntimeEEZNS0_8Executor9run_untilIZNS4_5run_nIZNS4_3runEONS0_8TaskflowEEUlvE_EENS0_6FutureIvEES8_mOT_EUlvE_S9_EESB_S8_SD_OT0_EUlS2_E_E9_M_invokeERKSt9_Any_dataS2_
   fun:_ZNKSt8functionIFvRN2tf7RuntimeEEEclES2_
   fun:_ZN2tf8Executor25_invoke_runtime_task_implERNS_6WorkerEPNS_4NodeERSt8functionIFvRNS_7RuntimeEEE
   fun:_ZN2tf8Executor18_invoke_async_taskERNS_6WorkerEPNS_4NodeE
   fun:_ZN2tf8Executor7_invokeERNS_6WorkerEPNS_4NodeE
   fun:_ZN2tf8Executor13_exploit_taskERNS_6WorkerERPNS_4NodeE
}
{
   <insert_a_suppression_name_here>
   Helgrind:Race
   fun:_ZNK2tf25SmallVectorTemplateCommonIPNS_4NodeEvE3endEv
   fun:_ZNK2tf25SmallVectorTemplateCommonIPNS_4NodeEvE4sizeEv
   fun:_ZN2tf4Node20_set_up_join_counterEv
   fun:_ZN2tf8Executor13_set_up_graphERNS_5GraphEPNS_8TopologyEPNS_8NodeBaseE
   fun:_ZN2tf8Executor27_schedule_graph_with_parentERNS_6WorkerERNS_5GraphEPNS_8TopologyEPNS_8NodeBaseE
   fun:_ZZN2tf8Executor9run_untilIZNS0_5run_nIZNS0_3runEONS_8TaskflowEEUlvE_EENS_6FutureIvEES4_mOT_EUlvE_S5_EES7_S4_S9_OT0_ENUlRNS_7RuntimeEE_clESE_
   fun:_ZSt13__invoke_implIvRZN2tf8Executor9run_untilIZNS1_5run_nIZNS1_3runEONS0_8TaskflowEEUlvE_EENS0_6FutureIvEES5_mOT_EUlvE_S6_EES8_S5_SA_OT0_EUlRNS0_7RuntimeEE_JSF_EES9_St14__invoke_otherSD_DpOT1_
   fun:_ZSt10__invoke_rIvRZN2tf8Executor9run_untilIZNS1_5run_nIZNS1_3runEONS0_8TaskflowEEUlvE_EENS0_6FutureIvEES5_mOT_EUlvE_S6_EES8_S5_SA_OT0_EUlRNS0_7RuntimeEE_JSF_EENSt9enable_ifIX16is_invocable_r_vIS9_SC_DpT1_EES9_E4typeESD_DpOSJ_
   fun:_ZNSt17_Function_handlerIFvRN2tf7RuntimeEEZNS0_8Executor9run_untilIZNS4_5run_nIZNS4_3runEONS0_8TaskflowEEUlvE_EENS0_6FutureIvEES8_mOT_EUlvE_S9_EESB_S8_SD_OT0_EUlS2_E_E9_M_invokeERKSt9_Any_dataS2_
   fun:_ZNKSt8functionIFvRN2tf7RuntimeEEEclES2_
   fun:_ZN2tf8Executor25_invoke_runtime_task_implERNS_6WorkerEPNS_4NodeERSt8functionIFvRNS_7RuntimeEEE
   fun:_ZN2tf8Executor18_invoke_async_taskERNS_6WorkerEPNS_4NodeE
}
{
   <insert_a_suppression_name_here>
   Helgrind:Race
   fun:_ZNK2tf25SmallVectorTemplateCommonIPNS_4NodeEvE5beginEv
   fun:_ZNK2tf25SmallVectorTemplateCommonIPNS_4NodeEvE4sizeEv
   fun:_ZN2tf4Node20_set_up_join_counterEv
   fun:_ZN2tf8Executor13_set_up_graphERNS_5GraphEPNS_8TopologyEPNS_8NodeBaseE
   fun:_ZN2tf8Executor27_schedule_graph_with_parentERNS_6WorkerERNS_5GraphEPNS_8TopologyEPNS_8NodeBaseE
   fun:_ZZN2tf8Executor9run_untilIZNS0_5run_nIZNS0_3runEONS_8TaskflowEEUlvE_EENS_6FutureIvEES4_mOT_EUlvE_S5_EES7_S4_S9_OT0_ENUlRNS_7RuntimeEE_clESE_
   fun:_ZSt13__invoke_implIvRZN2tf8Executor9run_untilIZNS1_5run_nIZNS1_3runEONS0_8TaskflowEEUlvE_EENS0_6FutureIvEES5_mOT_EUlvE_S6_EES8_S5_SA_OT0_EUlRNS0_7RuntimeEE_JSF_EES9_St14__invoke_otherSD_DpOT1_
   fun:_ZSt10__invoke_rIvRZN2tf8Executor9run_untilIZNS1_5run_nIZNS1_3runEONS0_8TaskflowEEUlvE_EENS0_6FutureIvEES5_mOT_EUlvE_S6_EES8_S5_SA_OT0_EUlRNS0_7RuntimeEE_JSF_EENSt9enable_ifIX16is_invocable_r_vIS9_SC_DpT1_EES9_E4typeESD_DpOSJ_
   fun:_ZNSt17_Function_handlerIFvRN2tf7RuntimeEEZNS0_8Executor9run_untilIZNS4_5run_nIZNS4_3runEONS0_8TaskflowEEUlvE_EENS0_6FutureIvEES8_mOT_EUlvE_S9_EESB_S8_SD_OT0_EUlS2_E_E9_M_invokeERKSt9_Any_dataS2_
   fun:_ZNKSt8functionIFvRN2tf7RuntimeEEEclES2_
   fun:_ZN2tf8Executor25_invoke_runtime_task_implERNS_6WorkerEPNS_4NodeERSt8functionIFvRNS_7RuntimeEEE
   fun:_ZN2tf8Executor18_invoke_async_taskERNS_6WorkerEPNS_4NodeE
}
{
   <insert_a_suppression_name_here>
   Helgrind:Race
   fun:store
   fun:_ZN2tf4Node20_set_up_join_counterEv
   fun:_ZN2tf8Executor13_set_up_graphERNS_5GraphEPNS_8TopologyEPNS_8NodeBaseE
   fun:_ZN2tf8Executor27_schedule_graph_with_parentERNS_6WorkerERNS_5GraphEPNS_8TopologyEPNS_8NodeBaseE
   fun:_ZZN2tf8Executor9run_untilIZNS0_5run_nIZNS0_3runEONS_8TaskflowEEUlvE_EENS_6FutureIvEES4_mOT_EUlvE_S5_EES7_S4_S9_OT0_ENUlRNS_7RuntimeEE_clESE_
   fun:_ZSt13__invoke_implIvRZN2tf8Executor9run_untilIZNS1_5run_nIZNS1_3runEONS0_8TaskflowEEUlvE_EENS0_6FutureIvEES5_mOT_EUlvE_S6_EES8_S5_SA_OT0_EUlRNS0_7RuntimeEE_JSF_EES9_St14__invoke_otherSD_DpOT1_
   fun:_ZSt10__invoke_rIvRZN2tf8Executor9run_untilIZNS1_5run_nIZNS1_3runEONS0_8TaskflowEEUlvE_EENS0_6FutureIvEES5_mOT_EUlvE_S6_EES8_S5_SA_OT0_EUlRNS0_7RuntimeEE_JSF_EENSt9enable_ifIX16is_invocable_r_vIS9_SC_DpT1_EES9_E4typeESD_DpOSJ_
   fun:_ZNSt17_Function_handlerIFvRN2tf7RuntimeEEZNS0_8Executor9run_untilIZNS4_5run_nIZNS4_3runEONS0_8TaskflowEEUlvE_EENS0_6FutureIvEES8_mOT_EUlvE_S9_EESB_S8_SD_OT0_EUlS2_E_E9_M_invokeERKSt9_Any_dataS2_
   fun:_ZNKSt8functionIFvRN2tf7RuntimeEEEclES2_
   fun:_ZN2tf8Executor25_invoke_runtime_task_implERNS_6WorkerEPNS_4NodeERSt8functionIFvRNS_7RuntimeEEE
   fun:_ZN2tf8Executor18_invoke_async_taskERNS_6WorkerEPNS_4NodeE
   fun:_ZN2tf8Executor7_invokeERNS_6WorkerEPNS_4NodeE
   fun:_ZN2tf8Executor13_exploit_taskERNS_6WorkerERPNS_4NodeE
}
{
   <insert_a_suppression_name_here>
   Helgrind:Race
   fun:_ZNSt15__exception_ptr13exception_ptr4swapERS0_
   fun:_ZNSt15__exception_ptr13exception_ptraSEOS0_
   fun:_ZN2tf8Executor13_set_up_graphERNS_5GraphEPNS_8TopologyEPNS_8NodeBaseE
   fun:_ZN2tf8Executor27_schedule_graph_with_parentERNS_6WorkerERNS_5GraphEPNS_8TopologyEPNS_8NodeBaseE
   fun:_ZZN2tf8Executor9run_untilIZNS0_5run_nIZNS0_3runEONS_8TaskflowEEUlvE_EENS_6FutureIvEES4_mOT_EUlvE_S5_EES7_S4_S9_OT0_ENUlRNS_7RuntimeEE_clESE_
   fun:_ZSt13__invoke_implIvRZN2tf8Executor9run_untilIZNS1_5run_nIZNS1_3runEONS0_8TaskflowEEUlvE_EENS0_6FutureIvEES5_mOT_EUlvE_S6_EES8_S5_SA_OT0_EUlRNS0_7RuntimeEE_JSF_EES9_St14__invoke_otherSD_DpOT1_
   fun:_ZSt10__invoke_rIvRZN2tf8Executor9run_untilIZNS1_5run_nIZNS1_3runEONS0_8TaskflowEEUlvE_EENS0_6FutureIvEES5_mOT_EUlvE_S6_EES8_S5_SA_OT0_EUlRNS0_7RuntimeEE_JSF_EENSt9enable_ifIX16is_invocable_r_vIS9_SC_DpT1_EES9_E4typeESD_DpOSJ_
   fun:_ZNSt17_Function_handlerIFvRN2tf7RuntimeEEZNS0_8Executor9run_untilIZNS4_5run_nIZNS4_3runEONS0_8TaskflowEEUlvE_EENS0_6FutureIvEES8_mOT_EUlvE_S9_EESB_S8_SD_OT0_EUlS2_E_E9_M_invokeERKSt9_Any_dataS2_
   fun:_ZNKSt8functionIFvRN2tf7RuntimeEEEclES2_
   fun:_ZN2tf8Executor25_invoke_runtime_task_implERNS_6WorkerEPNS_4NodeERSt8functionIFvRNS_7RuntimeEEE
   fun:_ZN2tf8Executor18_invoke_async_taskERNS_6WorkerEPNS_4NodeE
   fun:_ZN2tf8Executor7_invokeERNS_6WorkerEPNS_4NodeE
}
{
   <insert_a_suppression_name_here>
   Helgrind:Race
   fun:_ZNSt15__exception_ptr13exception_ptr4swapERS0_
   fun:_ZNSt15__exception_ptr13exception_ptraSEOS0_
   fun:_ZN2tf8Executor13_set_up_graphERNS_5GraphEPNS_8TopologyEPNS_8NodeBaseE
   fun:_ZN2tf8Executor27_schedule_graph_with_parentERNS_6WorkerERNS_5GraphEPNS_8TopologyEPNS_8NodeBaseE
   fun:_ZZN2tf8Executor9run_untilIZNS0_5run_nIZNS0_3runEONS_8TaskflowEEUlvE_EENS_6FutureIvEES4_mOT_EUlvE_S5_EES7_S4_S9_OT0_ENUlRNS_7RuntimeEE_clESE_
   fun:_ZSt13__invoke_implIvRZN2tf8Executor9run_untilIZNS1_5run_nIZNS1_3runEONS0_8TaskflowEEUlvE_EENS0_6FutureIvEES5_mOT_EUlvE_S6_EES8_S5_SA_OT0_EUlRNS0_7RuntimeEE_JSF_EES9_St14__invoke_otherSD_DpOT1_
   fun:_ZSt10__invoke_rIvRZN2tf8Executor9run_untilIZNS1_5run_nIZNS1_3runEONS0_8TaskflowEEUlvE_EENS0_6FutureIvEES5_mOT_EUlvE_S6_EES8_S5_SA_OT0_EUlRNS0_7RuntimeEE_JSF_EENSt9enable_ifIX16is_invocable_r_vIS9_SC_DpT1_EES9_E4typeESD_DpOSJ_
   fun:_ZNSt17_Function_handlerIFvRN2tf7RuntimeEEZNS0_8Executor9run_untilIZNS4_5run_nIZNS4_3runEONS0_8TaskflowEEUlvE_EENS0_6FutureIvEES8_mOT_EUlvE_S9_EESB_S8_SD_OT0_EUlS2_E_E9_M_invokeERKSt9_Any_dataS2_
   fun:_ZNKSt8functionIFvRN2tf7RuntimeEEEclES2_
   fun:_ZN2tf8Executor25_invoke_runtime_task_implERNS_6WorkerEPNS_4NodeERSt8functionIFvRNS_7RuntimeEEE
   fun:_ZN2tf8Executor18_invoke_async_taskERNS_6WorkerEPNS_4NodeE
   fun:_ZN2tf8Executor7_invokeERNS_6WorkerEPNS_4NodeE
}
{
   <insert_a_suppression_name_here>
   Helgrind:Race
   fun:_ZSt4swapIPN2tf4NodeEENSt9enable_ifIXsrSt6__and_IJSt6__not_ISt15__is_tuple_likeIT_EESt21is_move_constructibleIS7_ESt18is_move_assignableIS7_EEE5valueEvE4typeERS7_SH_
   fun:_ZSt9iter_swapIN9__gnu_cxx17__normal_iteratorIPPN2tf4NodeESt6vectorIS4_SaIS4_EEEES9_EvT_T0_
   fun:_ZN2tf8Executor13_set_up_graphERNS_5GraphEPNS_8TopologyEPNS_8NodeBaseE
   fun:_ZN2tf8Executor27_schedule_graph_with_parentERNS_6WorkerERNS_5GraphEPNS_8TopologyEPNS_8NodeBaseE
   fun:_ZZN2tf8Executor9run_untilIZNS0_5run_nIZNS0_3runEONS_8TaskflowEEUlvE_EENS_6FutureIvEES4_mOT_EUlvE_S5_EES7_S4_S9_OT0_ENUlRNS_7RuntimeEE_clESE_
   fun:_ZSt13__invoke_implIvRZN2tf8Executor9run_untilIZNS1_5run_nIZNS1_3runEONS0_8TaskflowEEUlvE_EENS0_6FutureIvEES5_mOT_EUlvE_S6_EES8_S5_SA_OT0_EUlRNS0_7RuntimeEE_JSF_EES9_St14__invoke_otherSD_DpOT1_
   fun:_ZSt10__invoke_rIvRZN2tf8Executor9run_untilIZNS1_5run_nIZNS1_3runEONS0_8TaskflowEEUlvE_EENS0_6FutureIvEES5_mOT_EUlvE_S6_EES8_S5_SA_OT0_EUlRNS0_7RuntimeEE_JSF_EENSt9enable_ifIX16is_invocable_r_vIS9_SC_DpT1_EES9_E4typeESD_DpOSJ_
   fun:_ZNSt17_Function_handlerIFvRN2tf7RuntimeEEZNS0_8Executor9run_untilIZNS4_5run_nIZNS4_3runEONS0_8TaskflowEEUlvE_EENS0_6FutureIvEES8_mOT_EUlvE_S9_EESB_S8_SD_OT0_EUlS2_E_E9_M_invokeERKSt9_Any_dataS2_
   fun:_ZNKSt8functionIFvRN2tf7RuntimeEEEclES2_
   fun:_ZN2tf8Executor25_invoke_runtime_task_implERNS_6WorkerEPNS_4NodeERSt8functionIFvRNS_7RuntimeEEE
   fun:_ZN2tf8Executor18_invoke_async_taskERNS_6WorkerEPNS_4NodeE
   fun:_ZN2tf8Executor7_invokeERNS_6WorkerEPNS_4NodeE
}
{
   <insert_a_suppression_name_here>
   Helgrind:Race
   fun:fetch_add
   fun:_ZN2tf8Executor27_schedule_graph_with_parentERNS_6WorkerERNS_5GraphEPNS_8TopologyEPNS_8NodeBaseE
   fun:_ZZN2tf8Executor9run_untilIZNS0_5run_nIZNS0_3runEONS_8TaskflowEEUlvE_EENS_6FutureIvEES4_mOT_EUlvE_S5_EES7_S4_S9_OT0_ENUlRNS_7RuntimeEE_clESE_
   fun:_ZSt13__invoke_implIvRZN2tf8Executor9run_untilIZNS1_5run_nIZNS1_3runEONS0_8TaskflowEEUlvE_EENS0_6FutureIvEES5_mOT_EUlvE_S6_EES8_S5_SA_OT0_EUlRNS0_7RuntimeEE_JSF_EES9_St14__invoke_otherSD_DpOT1_
   fun:_ZSt10__invoke_rIvRZN2tf8Executor9run_untilIZNS1_5run_nIZNS1_3runEONS0_8TaskflowEEUlvE_EENS0_6FutureIvEES5_mOT_EUlvE_S6_EES8_S5_SA_OT0_EUlRNS0_7RuntimeEE_JSF_EENSt9enable_ifIX16is_invocable_r_vIS9_SC_DpT1_EES9_E4typeESD_DpOSJ_
   fun:_ZNSt17_Function_handlerIFvRN2tf7RuntimeEEZNS0_8Executor9run_untilIZNS4_5run_nIZNS4_3runEONS0_8TaskflowEEUlvE_EENS0_6FutureIvEES8_mOT_EUlvE_S9_EESB_S8_SD_OT0_EUlS2_E_E9_M_invokeERKSt9_Any_dataS2_
   fun:_ZNKSt8functionIFvRN2tf7RuntimeEEEclES2_
   fun:_ZN2tf8Executor25_invoke_runtime_task_implERNS_6WorkerEPNS_4NodeERSt8functionIFvRNS_7RuntimeEEE
   fun:_ZN2tf8Executor18_invoke_async_taskERNS_6WorkerEPNS_4NodeE
   fun:_ZN2tf8Executor7_invokeERNS_6WorkerEPNS_4NodeE
   fun:_ZN2tf8Executor13_exploit_taskERNS_6WorkerERPNS_4NodeE
   fun:_ZZN2tf8Executor6_spawnEmSt10shared_ptrINS_15WorkerInterfaceEEENKUlvE_clEv
   fun:_ZSt13__invoke_implIvZN2tf8Executor6_spawnEmSt10shared_ptrINS0_15WorkerInterfaceEEEUlvE_JEET_St14__invoke_otherOT0_DpOT1_
}
{
   <insert_a_suppression_name_here>
   Helgrind:Race
   fun:fetch_sub
   fun:_ZN2tf8Executor25_invoke_runtime_task_implERNS_6WorkerEPNS_4NodeERSt8functionIFvRNS_7RuntimeEEE
   fun:_ZN2tf8Executor18_invoke_async_taskERNS_6WorkerEPNS_4NodeE
   fun:_ZN2tf8Executor7_invokeERNS_6WorkerEPNS_4NodeE
   fun:_ZN2tf8Executor13_exploit_taskERNS_6WorkerERPNS_4NodeE
   fun:_ZZN2tf8Executor6_spawnEmSt10shared_ptrINS_15WorkerInterfaceEEENKUlvE_clEv
   fun:_ZSt13__invoke_implIvZN2tf8Executor6_spawnEmSt10shared_ptrINS0_15WorkerInterfaceEEEUlvE_JEET_St14__invoke_otherOT0_DpOT1_
   fun:_ZSt8__invokeIZN2tf8Executor6_spawnEmSt10shared_ptrINS0_15WorkerInterfaceEEEUlvE_JEENSt15__invoke_resultIT_JDpT0_EE4typeEOS7_DpOS8_
   fun:_ZNSt6thread8_InvokerISt5tupleIJZN2tf8Executor6_spawnEmSt10shared_ptrINS2_15WorkerInterfaceEEEUlvE_EEE9_M_invokeIJLm0EEEEvSt12_Index_tupleIJXspT_EEE
   fun:_ZNSt6thread8_InvokerISt5tupleIJZN2tf8Executor6_spawnEmSt10shared_ptrINS2_15WorkerInterfaceEEEUlvE_EEEclEv
   fun:_ZNSt6thread11_State_implINS_8_InvokerISt5tupleIJZN2tf8Executor6_spawnEmSt10shared_ptrINS3_15WorkerInterfaceEEEUlvE_EEEEE6_M_runEv
   obj:/usr/lib/x86_64-linux-gnu/libstdc++.so.6.0.33
   obj:/usr/libexec/valgrind/vgpreload_helgrind-amd64-linux.so
}
{
   <insert_a_suppression_name_here>
   Helgrind:Race
   fun:load
   fun:_ZNK2tf4Node20_is_parent_cancelledEv
   fun:_ZN2tf8Executor7_invokeERNS_6WorkerEPNS_4NodeE
   fun:_ZN2tf8Executor13_exploit_taskERNS_6WorkerERPNS_4NodeE
   fun:_ZZN2tf8Executor6_spawnEmSt10shared_ptrINS_15WorkerInterfaceEEENKUlvE_clEv
   fun:_ZSt13__invoke_implIvZN2tf8Executor6_spawnEmSt10shared_ptrINS0_15WorkerInterfaceEEEUlvE_JEET_St14__invoke_otherOT0_DpOT1_
   fun:_ZSt8__invokeIZN2tf8Executor6_spawnEmSt10shared_ptrINS0_15WorkerInterfaceEEEUlvE_JEENSt15__invoke_resultIT_JDpT0_EE4typeEOS7_DpOS8_
   fun:_ZNSt6thread8_InvokerISt5tupleIJZN2tf8Executor6_spawnEmSt10shared_ptrINS2_15WorkerInterfaceEEEUlvE_EEE9_M_invokeIJLm0EEEEvSt12_Index_tupleIJXspT_EEE
   fun:_ZNSt6thread8_InvokerISt5tupleIJZN2tf8Executor6_spawnEmSt10shared_ptrINS2_15WorkerInterfaceEEEUlvE_EEEclEv
   fun:_ZNSt6thread11_State_implINS_8_InvokerISt5tupleIJZN2tf8Executor6_spawnEmSt10shared_ptrINS3_15WorkerInterfaceEEEUlvE_EEEEE6_M_runEv
   obj:/usr/lib/x86_64-linux-gnu/libstdc++.so.6.0.33
   obj:/usr/libexec/valgrind/vgpreload_helgrind-amd64-linux.so
   fun:start_thread
}
{
   <insert_a_suppression_name_here>
   Helgrind:Race
   fun:_ZNKSt14_Function_base8_M_emptyEv
   fun:_ZNKSt8functionIFvvEEclEv
   fun:_ZN2tf8Executor19_invoke_static_taskERNS_6WorkerEPNS_4NodeE
   fun:_ZN2tf8Executor7_invokeERNS_6WorkerEPNS_4NodeE
   fun:_ZN2tf8Executor13_exploit_taskERNS_6WorkerERPNS_4NodeE
   fun:_ZZN2tf8Executor6_spawnEmSt10shared_ptrINS_15WorkerInterfaceEEENKUlvE_clEv
   fun:_ZSt13__invoke_implIvZN2tf8Executor6_spawnEmSt10shared_ptrINS0_15WorkerInterfaceEEEUlvE_JEET_St14__invoke_otherOT0_DpOT1_
   fun:_ZSt8__invokeIZN2tf8Executor6_spawnEmSt10shared_ptrINS0_15WorkerInterfaceEEEUlvE_JEENSt15__invoke_resultIT_JDpT0_EE4typeEOS7_DpOS8_
   fun:_ZNSt6thread8_InvokerISt5tupleIJZN2tf8Executor6_spawnEmSt10shared_ptrINS2_15WorkerInterfaceEEEUlvE_EEE9_M_invokeIJLm0EEEEvSt12_Index_tupleIJXspT_EEE
   fun:_ZNSt6thread8_InvokerISt5tupleIJZN2tf8Executor6_spawnEmSt10shared_ptrINS2_15WorkerInterfaceEEEUlvE_EEEclEv
   fun:_ZNSt6thread11_State_implINS_8_InvokerISt5tupleIJZN2tf8Executor6_spawnEmSt10shared_ptrINS3_15WorkerInterfaceEEEUlvE_EEEEE6_M_runEv
   obj:/usr/lib/x86_64-linux-gnu/libstdc++.so.6.0.33
}
{
   <insert_a_suppression_name_here>
   Helgrind:Race
   fun:_ZNKSt8functionIFvvEEclEv
   fun:_ZN2tf8Executor19_invoke_static_taskERNS_6WorkerEPNS_4NodeE
   fun:_ZN2tf8Executor7_invokeERNS_6WorkerEPNS_4NodeE
   fun:_ZN2tf8Executor13_exploit_taskERNS_6WorkerERPNS_4NodeE
   fun:_ZZN2tf8Executor6_spawnEmSt10shared_ptrINS_15WorkerInterfaceEEENKUlvE_clEv
   fun:_ZSt13__invoke_implIvZN2tf8Executor6_spawnEmSt10shared_ptrINS0_15WorkerInterfaceEEEUlvE_JEET_St14__invoke_otherOT0_DpOT1_
   fun:_ZSt8__invokeIZN2tf8Executor6_spawnEmSt10shared_ptrINS0_15WorkerInterfaceEEEUlvE_JEENSt15__invoke_resultIT_JDpT0_EE4typeEOS7_DpOS8_
   fun:_ZNSt6thread8_InvokerISt5tupleIJZN2tf8Executor6_spawnEmSt10shared_ptrINS2_15WorkerInterfaceEEEUlvE_EEE9_M_invokeIJLm0EEEEvSt12_Index_tupleIJXspT_EEE
   fun:_ZNSt6thread8_InvokerISt5tupleIJZN2tf8Executor6_spawnEmSt10shared_ptrINS2_15WorkerInterfaceEEEUlvE_EEEclEv
   fun:_ZNSt6thread11_State_implINS_8_InvokerISt5tupleIJZN2tf8Executor6_spawnEmSt10shared_ptrINS3_15WorkerInterfaceEEEUlvE_EEEEE6_M_runEv
   obj:/usr/lib/x86_64-linux-gnu/libstdc++.so.6.0.33
   obj:/usr/libexec/valgrind/vgpreload_helgrind-amd64-linux.so
}
{
   <insert_a_suppression_name_here>
   Helgrind:Race
   fun:_ZNSt14_Function_base13_Base_managerIZZN4mpcf2ph10RipserTaskIdE9run_asyncERNS1_8ExecutorEENKUlRKSt6vectorImSaImEEE_clESB_EUlvE_E14_M_get_pointerERKSt9_Any_data
   fun:_ZNSt17_Function_handlerIFvvEZZN4mpcf2ph10RipserTaskIdE9run_asyncERNS1_8ExecutorEENKUlRKSt6vectorImSaImEEE_clESB_EUlvE_E9_M_invokeERKSt9_Any_data
   fun:_ZNKSt8functionIFvvEEclEv
   fun:_ZN2tf8Executor19_invoke_static_taskERNS_6WorkerEPNS_4NodeE
   fun:_ZN2tf8Executor7_invokeERNS_6WorkerEPNS_4NodeE
   fun:_ZN2tf8Executor13_exploit_taskERNS_6WorkerERPNS_4NodeE
   fun:_ZZN2tf8Executor6_spawnEmSt10shared_ptrINS_15WorkerInterfaceEEENKUlvE_clEv
   fun:_ZSt13__invoke_implIvZN2tf8Executor6_spawnEmSt10shared_ptrINS0_15WorkerInterfaceEEEUlvE_JEET_St14__invoke_otherOT0_DpOT1_
   fun:_ZSt8__invokeIZN2tf8Executor6_spawnEmSt10shared_ptrINS0_15WorkerInterfaceEEEUlvE_JEENSt15__invoke_resultIT_JDpT0_EE4typeEOS7_DpOS8_
   fun:_ZNSt6thread8_InvokerISt5tupleIJZN2tf8Executor6_spawnEmSt10shared_ptrINS2_15WorkerInterfaceEEEUlvE_EEE9_M_invokeIJLm0EEEEvSt12_Index_tupleIJXspT_EEE
   fun:_ZNSt6thread8_InvokerISt5tupleIJZN2tf8Executor6_spawnEmSt10shared_ptrINS2_15WorkerInterfaceEEEUlvE_EEEclEv
   fun:_ZNSt6thread11_State_implINS_8_InvokerISt5tupleIJZN2tf8Executor6_spawnEmSt10shared_ptrINS3_15WorkerInterfaceEEEUlvE_EEEEE6_M_runEv
}
{
   <insert_a_suppression_name_here>
   Helgrind:Race
   fun:_ZZZN4mpcf2ph10RipserTaskIdE9run_asyncERNS_8ExecutorEENKUlRKSt6vectorImSaImEEE_clES9_ENKUlvE_clEv
   fun:_ZSt13__invoke_implIvRZZN4mpcf2ph10RipserTaskIdE9run_asyncERNS0_8ExecutorEENKUlRKSt6vectorImSaImEEE_clESA_EUlvE_JEET_St14__invoke_otherOT0_DpOT1_
   fun:_ZSt10__invoke_rIvRZZN4mpcf2ph10RipserTaskIdE9run_asyncERNS0_8ExecutorEENKUlRKSt6vectorImSaImEEE_clESA_EUlvE_JEENSt9enable_ifIX16is_invocable_r_vIT_T0_DpT1_EESF_E4typeEOSG_DpOSH_
   fun:_ZNSt17_Function_handlerIFvvEZZN4mpcf2ph10RipserTaskIdE9run_asyncERNS1_8ExecutorEENKUlRKSt6vectorImSaImEEE_clESB_EUlvE_E9_M_invokeERKSt9_Any_data
   fun:_ZNKSt8functionIFvvEEclEv
   fun:_ZN2tf8Executor19_invoke_static_taskERNS_6WorkerEPNS_4NodeE
   fun:_ZN2tf8Executor7_invokeERNS_6WorkerEPNS_4NodeE
   fun:_ZN2tf8Executor13_exploit_taskERNS_6WorkerERPNS_4NodeE
   fun:_ZZN2tf8Executor6_spawnEmSt10shared_ptrINS_15WorkerInterfaceEEENKUlvE_clEv
   fun:_ZSt13__invoke_implIvZN2tf8Executor6_spawnEmSt10shared_ptrINS0_15WorkerInterfaceEEEUlvE_JEET_St14__invoke_otherOT0_DpOT1_
   fun:_ZSt8__invokeIZN2tf8Executor6_spawnEmSt10shared_ptrINS0_15WorkerInterfaceEEEUlvE_JEENSt15__invoke_resultIT_JDpT0_EE4typeEOS7_DpOS8_
   fun:_ZNSt6thread8_InvokerISt5tupleIJZN2tf8Executor6_spawnEmSt10shared_ptrINS2_15WorkerInterfaceEEEUlvE_EEE9_M_invokeIJLm0EEEEvSt12_Index_tupleIJXspT_EEE
}
{
   <insert_a_suppression_name_here>
   Helgrind:Race
   fun:_ZN9__gnu_cxx17__normal_iteratorIPKmSt6vectorImSaImEEEC1ERKS2_
   fun:_ZNKSt6vectorImSaImEE3endEv
   fun:_ZNKSt6vectorImSaImEE4backEv
   fun:_ZN4mpcf2ph6detail41compute_persistence_euclidean_single_implIdEEvRKNS_6TensorINS3_IT_EEEERNS3_INS0_7BarcodeIS4_EEEEmRKSt6vectorImSaImEE
   fun:_ZZZN4mpcf2ph10RipserTaskIdE9run_asyncERNS_8ExecutorEENKUlRKSt6vectorImSaImEEE_clES9_ENKUlvE_clEv
   fun:_ZSt13__invoke_implIvRZZN4mpcf2ph10RipserTaskIdE9run_asyncERNS0_8ExecutorEENKUlRKSt6vectorImSaImEEE_clESA_EUlvE_JEET_St14__invoke_otherOT0_DpOT1_
   fun:_ZSt10__invoke_rIvRZZN4mpcf2ph10RipserTaskIdE9run_asyncERNS0_8ExecutorEENKUlRKSt6vectorImSaImEEE_clESA_EUlvE_JEENSt9enable_ifIX16is_invocable_r_vIT_T0_DpT1_EESF_E4typeEOSG_DpOSH_
   fun:_ZNSt17_Function_handlerIFvvEZZN4mpcf2ph10RipserTaskIdE9run_asyncERNS1_8ExecutorEENKUlRKSt6vectorImSaImEEE_clESB_EUlvE_E9_M_invokeERKSt9_Any_data
   fun:_ZNKSt8functionIFvvEEclEv
   fun:_ZN2tf8Executor19_invoke_static_taskERNS_6WorkerEPNS_4NodeE
   fun:_ZN2tf8Executor7_invokeERNS_6WorkerEPNS_4NodeE
   fun:_ZN2tf8Executor13_exploit_taskERNS_6WorkerERPNS_4NodeE
}
{
   <insert_a_suppression_name_here>
   Helgrind:Race
   fun:_ZN4mpcf2ph6detail41compute_persistence_euclidean_single_implIdEEvRKNS_6TensorINS3_IT_EEEERNS3_INS0_7BarcodeIS4_EEEEmRKSt6vectorImSaImEE
   fun:_ZZZN4mpcf2ph10RipserTaskIdE9run_asyncERNS_8ExecutorEENKUlRKSt6vectorImSaImEEE_clES9_ENKUlvE_clEv
   fun:_ZSt13__invoke_implIvRZZN4mpcf2ph10RipserTaskIdE9run_asyncERNS0_8ExecutorEENKUlRKSt6vectorImSaImEEE_clESA_EUlvE_JEET_St14__invoke_otherOT0_DpOT1_
   fun:_ZSt10__invoke_rIvRZZN4mpcf2ph10RipserTaskIdE9run_asyncERNS0_8ExecutorEENKUlRKSt6vectorImSaImEEE_clESA_EUlvE_JEENSt9enable_ifIX16is_invocable_r_vIT_T0_DpT1_EESF_E4typeEOSG_DpOSH_
   fun:_ZNSt17_Function_handlerIFvvEZZN4mpcf2ph10RipserTaskIdE9run_asyncERNS1_8ExecutorEENKUlRKSt6vectorImSaImEEE_clESB_EUlvE_E9_M_invokeERKSt9_Any_data
   fun:_ZNKSt8functionIFvvEEclEv
   fun:_ZN2tf8Executor19_invoke_static_taskERNS_6WorkerEPNS_4NodeE
   fun:_ZN2tf8Executor7_invokeERNS_6WorkerEPNS_4NodeE
   fun:_ZN2tf8Executor13_exploit_taskERNS_6WorkerERPNS_4NodeE
   fun:_ZZN2tf8Executor6_spawnEmSt10shared_ptrINS_15WorkerInterfaceEEENKUlvE_clEv
   fun:_ZSt13__invoke_implIvZN2tf8Executor6_spawnEmSt10shared_ptrINS0_15WorkerInterfaceEEEUlvE_JEET_St14__invoke_otherOT0_DpOT1_
   fun:_ZSt8__invokeIZN2tf8Executor6_spawnEmSt10shared_ptrINS0_15WorkerInterfaceEEEUlvE_JEENSt15__invoke_resultIT_JDpT0_EE4typeEOS7_DpOS8_
}
{
   <insert_a_suppression_name_here>
   Helgrind:Race
   fun:_ZN9__gnu_cxx17__normal_iteratorIPKmSt6vectorImSaImEEEC1ERKS2_
   fun:_ZNKSt6vectorImSaImEE5beginEv
   fun:_ZN4mpcf2ph6detail41compute_persistence_euclidean_single_implIdEEvRKNS_6TensorINS3_IT_EEEERNS3_INS0_7BarcodeIS4_EEEEmRKSt6vectorImSaImEE
   fun:_ZZZN4mpcf2ph10RipserTaskIdE9run_asyncERNS_8ExecutorEENKUlRKSt6vectorImSaImEEE_clES9_ENKUlvE_clEv
   fun:_ZSt13__invoke_implIvRZZN4mpcf2ph10RipserTaskIdE9run_asyncERNS0_8ExecutorEENKUlRKSt6vectorImSaImEEE_clESA_EUlvE_JEET_St14__invoke_otherOT0_DpOT1_
   fun:_ZSt10__invoke_rIvRZZN4mpcf2ph10RipserTaskIdE9run_asyncERNS0_8ExecutorEENKUlRKSt6vectorImSaImEEE_clESA_EUlvE_JEENSt9enable_ifIX16is_invocable_r_vIT_T0_DpT1_EESF_E4typeEOSG_DpOSH_
   fun:_ZNSt17_Function_handlerIFvvEZZN4mpcf2ph10RipserTaskIdE9run_asyncERNS1_8ExecutorEENKUlRKSt6vectorImSaImEEE_clESB_EUlvE_E9_M_invokeERKSt9_Any_data
   fun:_ZNKSt8functionIFvvEEclEv
   fun:_ZN2tf8Executor19_invoke_static_taskERNS_6WorkerEPNS_4NodeE
   fun:_ZN2tf8Executor7_invokeERNS_6WorkerEPNS_4NodeE
   fun:_ZN2tf8Executor13_exploit_taskERNS_6WorkerERPNS_4NodeE
   fun:_ZZN2tf8Executor6_spawnEmSt10shared_ptrINS_15WorkerInterfaceEEENKUlvE_clEv
}
{
   <insert_a_suppression_name_here>
   Helgrind:Race
   fun:_ZNSt11__copy_moveILb0ELb0ESt26random_access_iterator_tagE12__assign_oneImKmEEvPT_PT0_
   fun:_ZNSt11__copy_moveILb0ELb1ESt26random_access_iterator_tagE8__copy_mIKmmEEPT0_PT_S7_S5_
   fun:_ZSt14__copy_move_a2ILb0EPKmPmET1_T0_S4_S3_
   fun:_ZSt14__copy_move_a1ILb0EPKmPmET1_T0_S4_S3_
   fun:_ZSt13__copy_move_aILb0EN9__gnu_cxx17__normal_iteratorIPKmSt6vectorImSaImEEEEPmET1_T0_SA_S9_
   fun:_ZSt4copyIN9__gnu_cxx17__normal_iteratorIPKmSt6vectorImSaImEEEEPmET0_T_SA_S9_
   fun:_ZNSt20__uninitialized_copyILb1EE13__uninit_copyIN9__gnu_cxx17__normal_iteratorIPKmSt6vectorImSaImEEEEPmEET0_T_SC_SB_
   fun:_ZSt18uninitialized_copyIN9__gnu_cxx17__normal_iteratorIPKmSt6vectorImSaImEEEEPmET0_T_SA_S9_
   fun:_ZSt22__uninitialized_copy_aIN9__gnu_cxx17__normal_iteratorIPKmSt6vectorImSaImEEEEPmmET0_T_SA_S9_RSaIT1_E
   fun:_ZNSt6vectorImSaImEE19_M_range_initializeIN9__gnu_cxx17__normal_iteratorIPKmS1_EEEEvT_S8_St20forward_iterator_tag
   fun:_ZNSt6vectorImSaImEEC1IN9__gnu_cxx17__normal_iteratorIPKmS1_EEvEET_S8_RKS0_
   fun:_ZN4mpcf2ph6detail41compute_persistence_euclidean_single_implIdEEvRKNS_6TensorINS3_IT_EEEERNS3_INS0_7BarcodeIS4_EEEEmRKSt6vectorImSaImEE
}
{
   <insert_a_suppression_name_here>
   Helgrind:Race
   fun:_ZNKSt6vectorImSaImEE4sizeEv
   fun:_ZNSt6vectorImSaImEEC1ERKS1_
   fun:_ZN4mpcf2ph6detail41compute_persistence_euclidean_single_implIdEEvRKNS_6TensorINS3_IT_EEEERNS3_INS0_7BarcodeIS4_EEEEmRKSt6vectorImSaImEE
   fun:_ZZZN4mpcf2ph10RipserTaskIdE9run_asyncERNS_8ExecutorEENKUlRKSt6vectorImSaImEEE_clES9_ENKUlvE_clEv
   fun:_ZSt13__invoke_implIvRZZN4mpcf2ph10RipserTaskIdE9run_asyncERNS0_8ExecutorEENKUlRKSt6vectorImSaImEEE_clESA_EUlvE_JEET_St14__invoke_otherOT0_DpOT1_
   fun:_ZSt10__invoke_rIvRZZN4mpcf2ph10RipserTaskIdE9run_asyncERNS0_8ExecutorEENKUlRKSt6vectorImSaImEEE_clESA_EUlvE_JEENSt9enable_ifIX16is_invocable_r_vIT_T0_DpT1_EESF_E4typeEOSG_DpOSH_
   fun:_ZNSt17_Function_handlerIFvvEZZN4mpcf2ph10RipserTaskIdE9run_asyncERNS1_8ExecutorEENKUlRKSt6vectorImSaImEEE_clESB_EUlvE_E9_M_invokeERKSt9_Any_data
   fun:_ZNKSt8functionIFvvEEclEv
   fun:_ZN2tf8Executor19_invoke_static_taskERNS_6WorkerEPNS_4NodeE
   fun:_ZN2tf8Executor7_invokeERNS_6WorkerEPNS_4NodeE
   fun:_ZN2tf8Executor13_exploit_taskERNS_6WorkerERPNS_4NodeE
   fun:_ZZN2tf8Executor6_spawnEmSt10shared_ptrINS_15WorkerInterfaceEEENKUlvE_clEv
}
{
   <insert_a_suppression_name_here>
   Helgrind:Race
   fun:_ZNKSt6vectorImSaImEE4sizeEv
   fun:_ZNSt6vectorImSaImEEC1ERKS1_
   fun:_ZN4mpcf2ph6detail41compute_persistence_euclidean_single_implIdEEvRKNS_6TensorINS3_IT_EEEERNS3_INS0_7BarcodeIS4_EEEEmRKSt6vectorImSaImEE
   fun:_ZZZN4mpcf2ph10RipserTaskIdE9run_asyncERNS_8ExecutorEENKUlRKSt6vectorImSaImEEE_clES9_ENKUlvE_clEv
   fun:_ZSt13__invoke_implIvRZZN4mpcf2ph10RipserTaskIdE9run_asyncERNS0_8ExecutorEENKUlRKSt6vectorImSaImEEE_clESA_EUlvE_JEET_St14__invoke_otherOT0_DpOT1_
   fun:_ZSt10__invoke_rIvRZZN4mpcf2ph10RipserTaskIdE9run_asyncERNS0_8ExecutorEENKUlRKSt6vectorImSaImEEE_clESA_EUlvE_JEENSt9enable_ifIX16is_invocable_r_vIT_T0_DpT1_EESF_E4typeEOSG_DpOSH_
   fun:_ZNSt17_Function_handlerIFvvEZZN4mpcf2ph10RipserTaskIdE9run_asyncERNS1_8ExecutorEENKUlRKSt6vectorImSaImEEE_clESB_EUlvE_E9_M_invokeERKSt9_Any_data
   fun:_ZNKSt8functionIFvvEEclEv
   fun:_ZN2tf8Executor19_invoke_static_taskERNS_6WorkerEPNS_4NodeE
   fun:_ZN2tf8Executor7_invokeERNS_6WorkerEPNS_4NodeE
   fun:_ZN2tf8Executor13_exploit_taskERNS_6WorkerERPNS_4NodeE
   fun:_ZZN2tf8Executor6_spawnEmSt10shared_ptrINS_15WorkerInterfaceEEENKUlvE_clEv
}
{
   <insert_a_suppression_name_here>
   Helgrind:Race
   fun:memmove
   fun:_ZNSt11__copy_moveILb0ELb1ESt26random_access_iterator_tagE8__copy_mIKmmEEPT0_PT_S7_S5_
   fun:_ZSt14__copy_move_a2ILb0EPKmPmET1_T0_S4_S3_
   fun:_ZSt14__copy_move_a1ILb0EPKmPmET1_T0_S4_S3_
   fun:_ZSt13__copy_move_aILb0EN9__gnu_cxx17__normal_iteratorIPKmSt6vectorImSaImEEEEPmET1_T0_SA_S9_
   fun:_ZSt4copyIN9__gnu_cxx17__normal_iteratorIPKmSt6vectorImSaImEEEEPmET0_T_SA_S9_
   fun:_ZNSt20__uninitialized_copyILb1EE13__uninit_copyIN9__gnu_cxx17__normal_iteratorIPKmSt6vectorImSaImEEEEPmEET0_T_SC_SB_
   fun:_ZSt18uninitialized_copyIN9__gnu_cxx17__normal_iteratorIPKmSt6vectorImSaImEEEEPmET0_T_SA_S9_
   fun:_ZSt22__uninitialized_copy_aIN9__gnu_cxx17__normal_iteratorIPKmSt6vectorImSaImEEEEPmmET0_T_SA_S9_RSaIT1_E
   fun:_ZNSt6vectorImSaImEEC1ERKS1_
   fun:_ZN4mpcf2ph6detail41compute_persistence_euclidean_single_implIdEEvRKNS_6TensorINS3_IT_EEEERNS3_INS0_7BarcodeIS4_EEEEmRKSt6vectorImSaImEE
   fun:_ZZZN4mpcf2ph10RipserTaskIdE9run_asyncERNS_8ExecutorEENKUlRKSt6vectorImSaImEEE_clES9_ENKUlvE_clEv
}
{
   <insert_a_suppression_name_here>
   Helgrind:Race
   fun:_ZNK4mpcf6TensorINS_2ph7BarcodeIdEEE19index_to_data_indexERKSt6vectorImSaImEE
   fun:_ZN4mpcf6TensorINS_2ph7BarcodeIdEEE12index_to_refERKSt6vectorImSaImEE
   fun:_ZN4mpcf6TensorINS_2ph7BarcodeIdEEEclERKSt6vectorImSaImEE
   fun:_ZN4mpcf2ph6detail41compute_persistence_euclidean_single_implIdEEvRKNS_6TensorINS3_IT_EEEERNS3_INS0_7BarcodeIS4_EEEEmRKSt6vectorImSaImEE
   fun:_ZZZN4mpcf2ph10RipserTaskIdE9run_asyncERNS_8ExecutorEENKUlRKSt6vectorImSaImEEE_clES9_ENKUlvE_clEv
   fun:_ZSt13__invoke_implIvRZZN4mpcf2ph10RipserTaskIdE9run_asyncERNS0_8ExecutorEENKUlRKSt6vectorImSaImEEE_clESA_EUlvE_JEET_St14__invoke_otherOT0_DpOT1_
   fun:_ZSt10__invoke_rIvRZZN4mpcf2ph10RipserTaskIdE9run_asyncERNS0_8ExecutorEENKUlRKSt6vectorImSaImEEE_clESA_EUlvE_JEENSt9enable_ifIX16is_invocable_r_vIT_T0_DpT1_EESF_E4typeEOSG_DpOSH_
   fun:_ZNSt17_Function_handlerIFvvEZZN4mpcf2ph10RipserTaskIdE9run_asyncERNS1_8ExecutorEENKUlRKSt6vectorImSaImEEE_clESB_EUlvE_E9_M_invokeERKSt9_Any_data
   fun:_ZNKSt8functionIFvvEEclEv
   fun:_ZN2tf8Executor19_invoke_static_taskERNS_6WorkerEPNS_4NodeE
   fun:_ZN2tf8Executor7_invokeERNS_6WorkerEPNS_4NodeE
   fun:_ZN2tf8Executor13_exploit_taskERNS_6WorkerERPNS_4NodeE
}
{
   <insert_a_suppression_name_here>
   Helgrind:Race
   fun:_ZN9__gnu_cxx17__normal_iteratorIPKmSt6vectorImSaImEEEC1ERKS2_
   fun:_ZNKSt6vectorImSaImEE5beginEv
   fun:_ZNK4mpcf6TensorINS_2ph7BarcodeIdEEE19index_to_data_indexERKSt6vectorImSaImEE
   fun:_ZN4mpcf6TensorINS_2ph7BarcodeIdEEE12index_to_refERKSt6vectorImSaImEE
   fun:_ZN4mpcf6TensorINS_2ph7BarcodeIdEEEclERKSt6vectorImSaImEE
   fun:_ZN4mpcf2ph6detail41compute_persistence_euclidean_single_implIdEEvRKNS_6TensorINS3_IT_EEEERNS3_INS0_7BarcodeIS4_EEEEmRKSt6vectorImSaImEE
   fun:_ZZZN4mpcf2ph10RipserTaskIdE9run_asyncERNS_8ExecutorEENKUlRKSt6vectorImSaImEEE_clES9_ENKUlvE_clEv
   fun:_ZSt13__invoke_implIvRZZN4mpcf2ph10RipserTaskIdE9run_asyncERNS0_8ExecutorEENKUlRKSt6vectorImSaImEEE_clESA_EUlvE_JEET_St14__invoke_otherOT0_DpOT1_
   fun:_ZSt10__invoke_rIvRZZN4mpcf2ph10RipserTaskIdE9run_asyncERNS0_8ExecutorEENKUlRKSt6vectorImSaImEEE_clESA_EUlvE_JEENSt9enable_ifIX16is_invocable_r_vIT_T0_DpT1_EESF_E4typeEOSG_DpOSH_
   fun:_ZNSt17_Function_handlerIFvvEZZN4mpcf2ph10RipserTaskIdE9run_asyncERNS1_8ExecutorEENKUlRKSt6vectorImSaImEEE_clESB_EUlvE_E9_M_invokeERKSt9_Any_data
   fun:_ZNKSt8functionIFvvEEclEv
   fun:_ZN2tf8Executor19_invoke_static_taskERNS_6WorkerEPNS_4NodeE
}
{
   <insert_a_suppression_name_here>
   Helgrind:Race
   fun:_ZSt13inner_productIN9__gnu_cxx17__normal_iteratorIPKmSt6vectorImSaImEEEES7_mET1_T_S9_T0_S8_
   fun:_ZNK4mpcf6TensorINS_2ph7BarcodeIdEEE19index_to_data_indexERKSt6vectorImSaImEE
   fun:_ZN4mpcf6TensorINS_2ph7BarcodeIdEEE12index_to_refERKSt6vectorImSaImEE
   fun:_ZN4mpcf6TensorINS_2ph7BarcodeIdEEEclERKSt6vectorImSaImEE
   fun:_ZN4mpcf2ph6detail41compute_persistence_euclidean_single_implIdEEvRKNS_6TensorINS3_IT_EEEERNS3_INS0_7BarcodeIS4_EEEEmRKSt6vectorImSaImEE
   fun:_ZZZN4mpcf2ph10RipserTaskIdE9run_asyncERNS_8ExecutorEENKUlRKSt6vectorImSaImEEE_clES9_ENKUlvE_clEv
   fun:_ZSt13__invoke_implIvRZZN4mpcf2ph10RipserTaskIdE9run_asyncERNS0_8ExecutorEENKUlRKSt6vectorImSaImEEE_clESA_EUlvE_JEET_St14__invoke_otherOT0_DpOT1_
   fun:_ZSt10__invoke_rIvRZZN4mpcf2ph10RipserTaskIdE9run_asyncERNS0_8ExecutorEENKUlRKSt6vectorImSaImEEE_clESA_EUlvE_JEENSt9enable_ifIX16is_invocable_r_vIT_T0_DpT1_EESF_E4typeEOSG_DpOSH_
   fun:_ZNSt17_Function_handlerIFvvEZZN4mpcf2ph10RipserTaskIdE9run_asyncERNS1_8ExecutorEENKUlRKSt6vectorImSaImEEE_clESB_EUlvE_E9_M_invokeERKSt9_Any_data
   fun:_ZNKSt8functionIFvvEEclEv
   fun:_ZN2tf8Executor19_invoke_static_taskERNS_6WorkerEPNS_4NodeE
   fun:_ZN2tf8Executor7_invokeERNS_6WorkerEPNS_4NodeE
}
{
   <insert_a_suppression_name_here>
   Helgrind:Race
   fun:_ZNK4mpcf6TensorINS_2ph7BarcodeIdEEE19index_to_data_indexERKSt6vectorImSaImEE
   fun:_ZN4mpcf6TensorINS_2ph7BarcodeIdEEE12index_to_refERKSt6vectorImSaImEE
   fun:_ZN4mpcf6TensorINS_2ph7BarcodeIdEEEclERKSt6vectorImSaImEE
   fun:_ZN4mpcf2ph6detail41compute_persistence_euclidean_single_implIdEEvRKNS_6TensorINS3_IT_EEEERNS3_INS0_7BarcodeIS4_EEEEmRKSt6vectorImSaImEE
   fun:_ZZZN4mpcf2ph10RipserTaskIdE9run_asyncERNS_8ExecutorEENKUlRKSt6vectorImSaImEEE_clES9_ENKUlvE_clEv
   fun:_ZSt13__invoke_implIvRZZN4mpcf2ph10RipserTaskIdE9run_asyncERNS0_8ExecutorEENKUlRKSt6vectorImSaImEEE_clESA_EUlvE_JEET_St14__invoke_otherOT0_DpOT1_
   fun:_ZSt10__invoke_rIvRZZN4mpcf2ph10RipserTaskIdE9run_asyncERNS0_8ExecutorEENKUlRKSt6vectorImSaImEEE_clESA_EUlvE_JEENSt9enable_ifIX16is_invocable_r_vIT_T0_DpT1_EESF_E4typeEOSG_DpOSH_
   fun:_ZNSt17_Function_handlerIFvvEZZN4mpcf2ph10RipserTaskIdE9run_asyncERNS1_8ExecutorEENKUlRKSt6vectorImSaImEEE_clESB_EUlvE_E9_M_invokeERKSt9_Any_data
   fun:_ZNKSt8functionIFvvEEclEv
   fun:_ZN2tf8Executor19_invoke_static_taskERNS_6WorkerEPNS_4NodeE
   fun:_ZN2tf8Executor7_invokeERNS_6WorkerEPNS_4NodeE
   fun:_ZN2tf8Executor13_exploit_taskERNS_6WorkerERPNS_4NodeE
}
{
   <insert_a_suppression_name_here>
   Helgrind:Race
   fun:_ZNKSt12__shared_ptrIA_N4mpcf2ph7BarcodeIdEELN9__gnu_cxx12_Lock_policyE2EE3getEv
   fun:_ZNKSt19__shared_ptr_accessIA_N4mpcf2ph7BarcodeIdEELN9__gnu_cxx12_Lock_policyE2ELb1ELb0EE6_M_getEv
   fun:_ZNKSt19__shared_ptr_accessIA_N4mpcf2ph7BarcodeIdEELN9__gnu_cxx12_Lock_policyE2ELb1ELb0EEixEl
   fun:_ZN4mpcf6TensorINS_2ph7BarcodeIdEEE12index_to_refERKSt6vectorImSaImEE
   fun:_ZN4mpcf6TensorINS_2ph7BarcodeIdEEEclERKSt6vectorImSaImEE
   fun:_ZN4mpcf2ph6detail41compute_persistence_euclidean_single_implIdEEvRKNS_6TensorINS3_IT_EEEERNS3_INS0_7BarcodeIS4_EEEEmRKSt6vectorImSaImEE
   fun:_ZZZN4mpcf2ph10RipserTaskIdE9run_asyncERNS_8ExecutorEENKUlRKSt6vectorImSaImEEE_clES9_ENKUlvE_clEv
   fun:_ZSt13__invoke_implIvRZZN4mpcf2ph10RipserTaskIdE9run_asyncERNS0_8ExecutorEENKUlRKSt6vectorImSaImEEE_clESA_EUlvE_JEET_St14__invoke_otherOT0_DpOT1_
   fun:_ZSt10__invoke_rIvRZZN4mpcf2ph10RipserTaskIdE9run_asyncERNS0_8ExecutorEENKUlRKSt6vectorImSaImEEE_clESA_EUlvE_JEENSt9enable_ifIX16is_invocable_r_vIT_T0_DpT1_EESF_E4typeEOSG_DpOSH_
   fun:_ZNSt17_Function_handlerIFvvEZZN4mpcf2ph10RipserTaskIdE9run_asyncERNS1_8ExecutorEENKUlRKSt6vectorImSaImEEE_clESB_EUlvE_E9_M_invokeERKSt9_Any_data
   fun:_ZNKSt8functionIFvvEEclEv
   fun:_ZN2tf8Executor19_invoke_static_taskERNS_6WorkerEPNS_4NodeE
}
{
   <insert_a_suppression_name_here>
   Helgrind:Race
   fun:_ZNKSt6vectorIN4mpcf2ph15PersistencePairIdEESaIS3_EE8capacityEv
   fun:_ZNSt6vectorIN4mpcf2ph15PersistencePairIdEESaIS3_EEaSERKS5_
   fun:_ZN4mpcf2ph7BarcodeIdEaSERKSt6vectorINS0_15PersistencePairIdEESaIS5_EE
   fun:_ZN4mpcf2ph6detail41compute_persistence_euclidean_single_implIdEEvRKNS_6TensorINS3_IT_EEEERNS3_INS0_7BarcodeIS4_EEEEmRKSt6vectorImSaImEE
   fun:_ZZZN4mpcf2ph10RipserTaskIdE9run_asyncERNS_8ExecutorEENKUlRKSt6vectorImSaImEEE_clES9_ENKUlvE_clEv
   fun:_ZSt13__invoke_implIvRZZN4mpcf2ph10RipserTaskIdE9run_asyncERNS0_8ExecutorEENKUlRKSt6vectorImSaImEEE_clESA_EUlvE_JEET_St14__invoke_otherOT0_DpOT1_
   fun:_ZSt10__invoke_rIvRZZN4mpcf2ph10RipserTaskIdE9run_asyncERNS0_8ExecutorEENKUlRKSt6vectorImSaImEEE_clESA_EUlvE_JEENSt9enable_ifIX16is_invocable_r_vIT_T0_DpT1_EESF_E4typeEOSG_DpOSH_
   fun:_ZNSt17_Function_handlerIFvvEZZN4mpcf2ph10RipserTaskIdE9run_asyncERNS1_8ExecutorEENKUlRKSt6vectorImSaImEEE_clESB_EUlvE_E9_M_invokeERKSt9_Any_data
   fun:_ZNKSt8functionIFvvEEclEv
   fun:_ZN2tf8Executor19_invoke_static_taskERNS_6WorkerEPNS_4NodeE
   fun:_ZN2tf8Executor7_invokeERNS_6WorkerEPNS_4NodeE
   fun:_ZN2tf8Executor13_exploit_taskERNS_6WorkerERPNS_4NodeE
}
{
   <insert_a_suppression_name_here>
   Helgrind:Race
   fun:_ZNKSt6vectorIN4mpcf2ph15PersistencePairIdEESaIS3_EE8capacityEv
   fun:_ZNSt6vectorIN4mpcf2ph15PersistencePairIdEESaIS3_EEaSERKS5_
   fun:_ZN4mpcf2ph7BarcodeIdEaSERKSt6vectorINS0_15PersistencePairIdEESaIS5_EE
   fun:_ZN4mpcf2ph6detail41compute_persistence_euclidean_single_implIdEEvRKNS_6TensorINS3_IT_EEEERNS3_INS0_7BarcodeIS4_EEEEmRKSt6vectorImSaImEE
   fun:_ZZZN4mpcf2ph10RipserTaskIdE9run_asyncERNS_8ExecutorEENKUlRKSt6vectorImSaImEEE_clES9_ENKUlvE_clEv
   fun:_ZSt13__invoke_implIvRZZN4mpcf2ph10RipserTaskIdE9run_asyncERNS0_8ExecutorEENKUlRKSt6vectorImSaImEEE_clESA_EUlvE_JEET_St14__invoke_otherOT0_DpOT1_
   fun:_ZSt10__invoke_rIvRZZN4mpcf2ph10RipserTaskIdE9run_asyncERNS0_8ExecutorEENKUlRKSt6vectorImSaImEEE_clESA_EUlvE_JEENSt9enable_ifIX16is_invocable_r_vIT_T0_DpT1_EESF_E4typeEOSG_DpOSH_
   fun:_ZNSt17_Function_handlerIFvvEZZN4mpcf2ph10RipserTaskIdE9run_asyncERNS1_8ExecutorEENKUlRKSt6vectorImSaImEEE_clESB_EUlvE_E9_M_invokeERKSt9_Any_data
   fun:_ZNKSt8functionIFvvEEclEv
   fun:_ZN2tf8Executor19_invoke_static_taskERNS_6WorkerEPNS_4NodeE
   fun:_ZN2tf8Executor7_invokeERNS_6WorkerEPNS_4NodeE
   fun:_ZN2tf8Executor13_exploit_taskERNS_6WorkerERPNS_4NodeE
}
{
   <insert_a_suppression_name_here>
   Helgrind:Race
   fun:_ZNSt6vectorIN4mpcf2ph15PersistencePairIdEESaIS3_EEaSERKS5_
   fun:_ZN4mpcf2ph7BarcodeIdEaSERKSt6vectorINS0_15PersistencePairIdEESaIS5_EE
   fun:_ZN4mpcf2ph6detail41compute_persistence_euclidean_single_implIdEEvRKNS_6TensorINS3_IT_EEEERNS3_INS0_7BarcodeIS4_EEEEmRKSt6vectorImSaImEE
   fun:_ZZZN4mpcf2ph10RipserTaskIdE9run_asyncERNS_8ExecutorEENKUlRKSt6vectorImSaImEEE_clES9_ENKUlvE_clEv
   fun:_ZSt13__invoke_implIvRZZN4mpcf2ph10RipserTaskIdE9run_asyncERNS0_8ExecutorEENKUlRKSt6vectorImSaImEEE_clESA_EUlvE_JEET_St14__invoke_otherOT0_DpOT1_
   fun:_ZSt10__invoke_rIvRZZN4mpcf2ph10RipserTaskIdE9run_asyncERNS0_8ExecutorEENKUlRKSt6vectorImSaImEEE_clESA_EUlvE_JEENSt9enable_ifIX16is_invocable_r_vIT_T0_DpT1_EESF_E4typeEOSG_DpOSH_
   fun:_ZNSt17_Function_handlerIFvvEZZN4mpcf2ph10RipserTaskIdE9run_asyncERNS1_8ExecutorEENKUlRKSt6vectorImSaImEEE_clESB_EUlvE_E9_M_invokeERKSt9_Any_data
   fun:_ZNKSt8functionIFvvEEclEv
   fun:_ZN2tf8Executor19_invoke_static_taskERNS_6WorkerEPNS_4NodeE
   fun:_ZN2tf8Executor7_invokeERNS_6WorkerEPNS_4NodeE
   fun:_ZN2tf8Executor13_exploit_taskERNS_6WorkerERPNS_4NodeE
   fun:_ZZN2tf8Executor6_spawnEmSt10shared_ptrINS_15WorkerInterfaceEEENKUlvE_clEv
}
{
   <insert_a_suppression_name_here>
   Helgrind:Race
   fun:_ZNSt6vectorIN4mpcf2ph15PersistencePairIdEESaIS3_EEaSERKS5_
   fun:_ZN4mpcf2ph7BarcodeIdEaSERKSt6vectorINS0_15PersistencePairIdEESaIS5_EE
   fun:_ZN4mpcf2ph6detail41compute_persistence_euclidean_single_implIdEEvRKNS_6TensorINS3_IT_EEEERNS3_INS0_7BarcodeIS4_EEEEmRKSt6vectorImSaImEE
   fun:_ZZZN4mpcf2ph10RipserTaskIdE9run_asyncERNS_8ExecutorEENKUlRKSt6vectorImSaImEEE_clES9_ENKUlvE_clEv
   fun:_ZSt13__invoke_implIvRZZN4mpcf2ph10RipserTaskIdE9run_asyncERNS0_8ExecutorEENKUlRKSt6vectorImSaImEEE_clESA_EUlvE_JEET_St14__invoke_otherOT0_DpOT1_
   fun:_ZSt10__invoke_rIvRZZN4mpcf2ph10RipserTaskIdE9run_asyncERNS0_8ExecutorEENKUlRKSt6vectorImSaImEEE_clESA_EUlvE_JEENSt9enable_ifIX16is_invocable_r_vIT_T0_DpT1_EESF_E4typeEOSG_DpOSH_
   fun:_ZNSt17_Function_handlerIFvvEZZN4mpcf2ph10RipserTaskIdE9run_asyncERNS1_8ExecutorEENKUlRKSt6vectorImSaImEEE_clESB_EUlvE_E9_M_invokeERKSt9_Any_data
   fun:_ZNKSt8functionIFvvEEclEv
   fun:_ZN2tf8Executor19_invoke_static_taskERNS_6WorkerEPNS_4NodeE
   fun:_ZN2tf8Executor7_invokeERNS_6WorkerEPNS_4NodeE
   fun:_ZN2tf8Executor13_exploit_taskERNS_6WorkerERPNS_4NodeE
   fun:_ZZN2tf8Executor6_spawnEmSt10shared_ptrINS_15WorkerInterfaceEEENKUlvE_clEv
}
{
   <insert_a_suppression_name_here>
   Helgrind:Race
   fun:_ZNSt6vectorIN4mpcf2ph15PersistencePairIdEESaIS3_EEaSERKS5_
   fun:_ZN4mpcf2ph7BarcodeIdEaSERKSt6vectorINS0_15PersistencePairIdEESaIS5_EE
   fun:_ZN4mpcf2ph6detail41compute_persistence_euclidean_single_implIdEEvRKNS_6TensorINS3_IT_EEEERNS3_INS0_7BarcodeIS4_EEEEmRKSt6vectorImSaImEE
   fun:_ZZZN4mpcf2ph10RipserTaskIdE9run_asyncERNS_8ExecutorEENKUlRKSt6vectorImSaImEEE_clES9_ENKUlvE_clEv
   fun:_ZSt13__invoke_implIvRZZN4mpcf2ph10RipserTaskIdE9run_asyncERNS0_8ExecutorEENKUlRKSt6vectorImSaImEEE_clESA_EUlvE_JEET_St14__invoke_otherOT0_DpOT1_
   fun:_ZSt10__invoke_rIvRZZN4mpcf2ph10RipserTaskIdE9run_asyncERNS0_8ExecutorEENKUlRKSt6vectorImSaImEEE_clESA_EUlvE_JEENSt9enable_ifIX16is_invocable_r_vIT_T0_DpT1_EESF_E4typeEOSG_DpOSH_
   fun:_ZNSt17_Function_handlerIFvvEZZN4mpcf2ph10RipserTaskIdE9run_asyncERNS1_8ExecutorEENKUlRKSt6vectorImSaImEEE_clESB_EUlvE_E9_M_invokeERKSt9_Any_data
   fun:_ZNKSt8functionIFvvEEclEv
   fun:_ZN2tf8Executor19_invoke_static_taskERNS_6WorkerEPNS_4NodeE
   fun:_ZN2tf8Executor7_invokeERNS_6WorkerEPNS_4NodeE
   fun:_ZN2tf8Executor13_exploit_taskERNS_6WorkerERPNS_4NodeE
   fun:_ZZN2tf8Executor6_spawnEmSt10shared_ptrINS_15WorkerInterfaceEEENKUlvE_clEv
}
{
   <insert_a_suppression_name_here>
   Helgrind:Race
   fun:_ZNSt6vectorIN4mpcf2ph15PersistencePairIdEESaIS3_EEaSERKS5_
   fun:_ZN4mpcf2ph7BarcodeIdEaSERKSt6vectorINS0_15PersistencePairIdEESaIS5_EE
   fun:_ZN4mpcf2ph6detail41compute_persistence_euclidean_single_implIdEEvRKNS_6TensorINS3_IT_EEEERNS3_INS0_7BarcodeIS4_EEEEmRKSt6vectorImSaImEE
   fun:_ZZZN4mpcf2ph10RipserTaskIdE9run_asyncERNS_8ExecutorEENKUlRKSt6vectorImSaImEEE_clES9_ENKUlvE_clEv
   fun:_ZSt13__invoke_implIvRZZN4mpcf2ph10RipserTaskIdE9run_asyncERNS0_8ExecutorEENKUlRKSt6vectorImSaImEEE_clESA_EUlvE_JEET_St14__invoke_otherOT0_DpOT1_
   fun:_ZSt10__invoke_rIvRZZN4mpcf2ph10RipserTaskIdE9run_asyncERNS0_8ExecutorEENKUlRKSt6vectorImSaImEEE_clESA_EUlvE_JEENSt9enable_ifIX16is_invocable_r_vIT_T0_DpT1_EESF_E4typeEOSG_DpOSH_
   fun:_ZNSt17_Function_handlerIFvvEZZN4mpcf2ph10RipserTaskIdE9run_asyncERNS1_8ExecutorEENKUlRKSt6vectorImSaImEEE_clESB_EUlvE_E9_M_invokeERKSt9_Any_data
   fun:_ZNKSt8functionIFvvEEclEv
   fun:_ZN2tf8Executor19_invoke_static_taskERNS_6WorkerEPNS_4NodeE
   fun:_ZN2tf8Executor7_invokeERNS_6WorkerEPNS_4NodeE
   fun:_ZN2tf8Executor13_exploit_taskERNS_6WorkerERPNS_4NodeE
   fun:_ZZN2tf8Executor6_spawnEmSt10shared_ptrINS_15WorkerInterfaceEEENKUlvE_clEv
}
{
   <insert_a_suppression_name_here>
   Helgrind:Race
   fun:_ZNKSt6vectorIN4mpcf2ph15PersistencePairIdEESaIS3_EE4sizeEv
   fun:_ZNSt6vectorIN4mpcf2ph15PersistencePairIdEESaIS3_EEaSERKS5_
   fun:_ZN4mpcf2ph7BarcodeIdEaSERKSt6vectorINS0_15PersistencePairIdEESaIS5_EE
   fun:_ZN4mpcf2ph6detail41compute_persistence_euclidean_single_implIdEEvRKNS_6TensorINS3_IT_EEEERNS3_INS0_7BarcodeIS4_EEEEmRKSt6vectorImSaImEE
   fun:_ZZZN4mpcf2ph10RipserTaskIdE9run_asyncERNS_8ExecutorEENKUlRKSt6vectorImSaImEEE_clES9_ENKUlvE_clEv
   fun:_ZSt13__invoke_implIvRZZN4mpcf2ph10RipserTaskIdE9run_asyncERNS0_8ExecutorEENKUlRKSt6vectorImSaImEEE_clESA_EUlvE_JEET_St14__invoke_otherOT0_DpOT1_
   fun:_ZSt10__invoke_rIvRZZN4mpcf2ph10RipserTaskIdE9run_asyncERNS0_8ExecutorEENKUlRKSt6vectorImSaImEEE_clESA_EUlvE_JEENSt9enable_ifIX16is_invocable_r_vIT_T0_DpT1_EESF_E4typeEOSG_DpOSH_
   fun:_ZNSt17_Function_handlerIFvvEZZN4mpcf2ph10RipserTaskIdE9run_asyncERNS1_8ExecutorEENKUlRKSt6vectorImSaImEEE_clESB_EUlvE_E9_M_invokeERKSt9_Any_data
   fun:_ZNKSt8functionIFvvEEclEv
   fun:_ZN2tf8Executor19_invoke_static_taskERNS_6WorkerEPNS_4NodeE
   fun:_ZN2tf8Executor7_invokeERNS_6WorkerEPNS_4NodeE
   fun:_ZN2tf8Executor13_exploit_taskERNS_6WorkerERPNS_4NodeE
}
{
   <insert_a_suppression_name_here>
   Helgrind:Race
   fun:_ZZZN4mpcf2ph10RipserTaskIdE9run_asyncERNS_8ExecutorEENKUlRKSt6vectorImSaImEEE_clES9_ENKUlvE_clEv
   fun:_ZSt13__invoke_implIvRZZN4mpcf2ph10RipserTaskIdE9run_asyncERNS0_8ExecutorEENKUlRKSt6vectorImSaImEEE_clESA_EUlvE_JEET_St14__invoke_otherOT0_DpOT1_
   fun:_ZSt10__invoke_rIvRZZN4mpcf2ph10RipserTaskIdE9run_asyncERNS0_8ExecutorEENKUlRKSt6vectorImSaImEEE_clESA_EUlvE_JEENSt9enable_ifIX16is_invocable_r_vIT_T0_DpT1_EESF_E4typeEOSG_DpOSH_
   fun:_ZNSt17_Function_handlerIFvvEZZN4mpcf2ph10RipserTaskIdE9run_asyncERNS1_8ExecutorEENKUlRKSt6vectorImSaImEEE_clESB_EUlvE_E9_M_invokeERKSt9_Any_data
   fun:_ZNKSt8functionIFvvEEclEv
   fun:_ZN2tf8Executor19_invoke_static_taskERNS_6WorkerEPNS_4NodeE
   fun:_ZN2tf8Executor7_invokeERNS_6WorkerEPNS_4NodeE
   fun:_ZN2tf8Executor13_exploit_taskERNS_6WorkerERPNS_4NodeE
   fun:_ZZN2tf8Executor6_spawnEmSt10shared_ptrINS_15WorkerInterfaceEEENKUlvE_clEv
   fun:_ZSt13__invoke_implIvZN2tf8Executor6_spawnEmSt10shared_ptrINS0_15WorkerInterfaceEEEUlvE_JEET_St14__invoke_otherOT0_DpOT1_
   fun:_ZSt8__invokeIZN2tf8Executor6_spawnEmSt10shared_ptrINS0_15WorkerInterfaceEEEUlvE_JEENSt15__invoke_resultIT_JDpT0_EE4typeEOS7_DpOS8_
   fun:_ZNSt6thread8_InvokerISt5tupleIJZN2tf8Executor6_spawnEmSt10shared_ptrINS2_15WorkerInterfaceEEEUlvE_EEE9_M_invokeIJLm0EEEEvSt12_Index_tupleIJXspT_EEE
}
{
   <insert_a_suppression_name_here>
   Helgrind:Race
   fun:_ZNKSt15__uniq_ptr_implIN2tf4Node10SemaphoresESt14default_deleteIS2_EE6_M_ptrEv
   fun:_ZNKSt10unique_ptrIN2tf4Node10SemaphoresESt14default_deleteIS2_EE3getEv
   fun:_ZNKSt10unique_ptrIN2tf4Node10SemaphoresESt14default_deleteIS2_EEcvbEv
   fun:_ZN2tf8Executor7_invokeERNS_6WorkerEPNS_4NodeE
   fun:_ZN2tf8Executor13_exploit_taskERNS_6WorkerERPNS_4NodeE
   fun:_ZZN2tf8Executor6_spawnEmSt10shared_ptrINS_15WorkerInterfaceEEENKUlvE_clEv
   fun:_ZSt13__invoke_implIvZN2tf8Executor6_spawnEmSt10shared_ptrINS0_15WorkerInterfaceEEEUlvE_JEET_St14__invoke_otherOT0_DpOT1_
   fun:_ZSt8__invokeIZN2tf8Executor6_spawnEmSt10shared_ptrINS0_15WorkerInterfaceEEEUlvE_JEENSt15__invoke_resultIT_JDpT0_EE4typeEOS7_DpOS8_
   fun:_ZNSt6thread8_InvokerISt5tupleIJZN2tf8Executor6_spawnEmSt10shared_ptrINS2_15WorkerInterfaceEEEUlvE_EEE9_M_invokeIJLm0EEEEvSt12_Index_tupleIJXspT_EEE
   fun:_ZNSt6thread8_InvokerISt5tupleIJZN2tf8Executor6_spawnEmSt10shared_ptrINS2_15WorkerInterfaceEEEUlvE_EEEclEv
   fun:_ZNSt6thread11_State_implINS_8_InvokerISt5tupleIJZN2tf8Executor6_spawnEmSt10shared_ptrINS3_15WorkerInterfaceEEEUlvE_EEEEE6_M_runEv
   obj:/usr/lib/x86_64-linux-gnu/libstdc++.so.6.0.33
}
{
   <insert_a_suppression_name_here>
   Helgrind:Race
   fun:_ZNK2tf25SmallVectorTemplateCommonIPNS_4NodeEvE3endEv
   fun:_ZNK2tf25SmallVectorTemplateCommonIPNS_4NodeEvE4sizeEv
   fun:_ZNK2tf4Node16num_predecessorsEv
   fun:_ZN2tf8Executor7_invokeERNS_6WorkerEPNS_4NodeE
   fun:_ZN2tf8Executor13_exploit_taskERNS_6WorkerERPNS_4NodeE
   fun:_ZZN2tf8Executor6_spawnEmSt10shared_ptrINS_15WorkerInterfaceEEENKUlvE_clEv
   fun:_ZSt13__invoke_implIvZN2tf8Executor6_spawnEmSt10shared_ptrINS0_15WorkerInterfaceEEEUlvE_JEET_St14__invoke_otherOT0_DpOT1_
   fun:_ZSt8__invokeIZN2tf8Executor6_spawnEmSt10shared_ptrINS0_15WorkerInterfaceEEEUlvE_JEENSt15__invoke_resultIT_JDpT0_EE4typeEOS7_DpOS8_
   fun:_ZNSt6thread8_InvokerISt5tupleIJZN2tf8Executor6_spawnEmSt10shared_ptrINS2_15WorkerInterfaceEEEUlvE_EEE9_M_invokeIJLm0EEEEvSt12_Index_tupleIJXspT_EEE
   fun:_ZNSt6thread8_InvokerISt5tupleIJZN2tf8Executor6_spawnEmSt10shared_ptrINS2_15WorkerInterfaceEEEUlvE_EEEclEv
   fun:_ZNSt6thread11_State_implINS_8_InvokerISt5tupleIJZN2tf8Executor6_spawnEmSt10shared_ptrINS3_15WorkerInterfaceEEEUlvE_EEEEE6_M_runEv
   obj:/usr/lib/x86_64-linux-gnu/libstdc++.so.6.0.33
}
{
   <insert_a_suppression_name_here>
   Helgrind:Race
   fun:_ZNK2tf25SmallVectorTemplateCommonIPNS_4NodeEvE5beginEv
   fun:_ZNK2tf25SmallVectorTemplateCommonIPNS_4NodeEvE4sizeEv
   fun:_ZNK2tf4Node16num_predecessorsEv
   fun:_ZN2tf8Executor7_invokeERNS_6WorkerEPNS_4NodeE
   fun:_ZN2tf8Executor13_exploit_taskERNS_6WorkerERPNS_4NodeE
   fun:_ZZN2tf8Executor6_spawnEmSt10shared_ptrINS_15WorkerInterfaceEEENKUlvE_clEv
   fun:_ZSt13__invoke_implIvZN2tf8Executor6_spawnEmSt10shared_ptrINS0_15WorkerInterfaceEEEUlvE_JEET_St14__invoke_otherOT0_DpOT1_
   fun:_ZSt8__invokeIZN2tf8Executor6_spawnEmSt10shared_ptrINS0_15WorkerInterfaceEEEUlvE_JEENSt15__invoke_resultIT_JDpT0_EE4typeEOS7_DpOS8_
   fun:_ZNSt6thread8_InvokerISt5tupleIJZN2tf8Executor6_spawnEmSt10shared_ptrINS2_15WorkerInterfaceEEEUlvE_EEE9_M_invokeIJLm0EEEEvSt12_Index_tupleIJXspT_EEE
   fun:_ZNSt6thread8_InvokerISt5tupleIJZN2tf8Executor6_spawnEmSt10shared_ptrINS2_15WorkerInterfaceEEEUlvE_EEEclEv
   fun:_ZNSt6thread11_State_implINS_8_InvokerISt5tupleIJZN2tf8Executor6_spawnEmSt10shared_ptrINS3_15WorkerInterfaceEEEUlvE_EEEEE6_M_runEv
   obj:/usr/lib/x86_64-linux-gnu/libstdc++.so.6.0.33
}
{
   <insert_a_suppression_name_here>
   Helgrind:Race
   fun:_ZNK2tf4Node16num_predecessorsEv
   fun:_ZN2tf8Executor7_invokeERNS_6WorkerEPNS_4NodeE
   fun:_ZN2tf8Executor13_exploit_taskERNS_6WorkerERPNS_4NodeE
   fun:_ZZN2tf8Executor6_spawnEmSt10shared_ptrINS_15WorkerInterfaceEEENKUlvE_clEv
   fun:_ZSt13__invoke_implIvZN2tf8Executor6_spawnEmSt10shared_ptrINS0_15WorkerInterfaceEEEUlvE_JEET_St14__invoke_otherOT0_DpOT1_
   fun:_ZSt8__invokeIZN2tf8Executor6_spawnEmSt10shared_ptrINS0_15WorkerInterfaceEEEUlvE_JEENSt15__invoke_resultIT_JDpT0_EE4typeEOS7_DpOS8_
   fun:_ZNSt6thread8_InvokerISt5tupleIJZN2tf8Executor6_spawnEmSt10shared_ptrINS2_15WorkerInterfaceEEEUlvE_EEE9_M_invokeIJLm0EEEEvSt12_Index_tupleIJXspT_EEE
   fun:_ZNSt6thread8_InvokerISt5tupleIJZN2tf8Executor6_spawnEmSt10shared_ptrINS2_15WorkerInterfaceEEEUlvE_EEEclEv
   fun:_ZNSt6thread11_State_implINS_8_InvokerISt5tupleIJZN2tf8Executor6_spawnEmSt10shared_ptrINS3_15WorkerInterfaceEEEUlvE_EEEEE6_M_runEv
   obj:/usr/lib/x86_64-linux-gnu/libstdc++.so.6.0.33
   obj:/usr/libexec/valgrind/vgpreload_helgrind-amd64-linux.so
   fun:start_thread
}
{
   <insert_a_suppression_name_here>
   Helgrind:Race
   fun:_ZN2tf8Executor7_invokeERNS_6WorkerEPNS_4NodeE
   fun:_ZN2tf8Executor13_exploit_taskERNS_6WorkerERPNS_4NodeE
   fun:_ZZN2tf8Executor6_spawnEmSt10shared_ptrINS_15WorkerInterfaceEEENKUlvE_clEv
   fun:_ZSt13__invoke_implIvZN2tf8Executor6_spawnEmSt10shared_ptrINS0_15WorkerInterfaceEEEUlvE_JEET_St14__invoke_otherOT0_DpOT1_
   fun:_ZSt8__invokeIZN2tf8Executor6_spawnEmSt10shared_ptrINS0_15WorkerInterfaceEEEUlvE_JEENSt15__invoke_resultIT_JDpT0_EE4typeEOS7_DpOS8_
   fun:_ZNSt6thread8_InvokerISt5tupleIJZN2tf8Executor6_spawnEmSt10shared_ptrINS2_15WorkerInterfaceEEEUlvE_EEE9_M_invokeIJLm0EEEEvSt12_Index_tupleIJXspT_EEE
   fun:_ZNSt6thread8_InvokerISt5tupleIJZN2tf8Executor6_spawnEmSt10shared_ptrINS2_15WorkerInterfaceEEEUlvE_EEEclEv
   fun:_ZNSt6thread11_State_implINS_8_InvokerISt5tupleIJZN2tf8Executor6_spawnEmSt10shared_ptrINS3_15WorkerInterfaceEEEUlvE_EEEEE6_M_runEv
   obj:/usr/lib/x86_64-linux-gnu/libstdc++.so.6.0.33
   obj:/usr/libexec/valgrind/vgpreload_helgrind-amd64-linux.so
   fun:start_thread
   fun:clone
}
{
   <insert_a_suppression_name_here>
   Helgrind:Race
   fun:fetch_add
   fun:_ZN2tf8Executor7_invokeERNS_6WorkerEPNS_4NodeE
   fun:_ZN2tf8Executor13_exploit_taskERNS_6WorkerERPNS_4NodeE
   fun:_ZZN2tf8Executor6_spawnEmSt10shared_ptrINS_15WorkerInterfaceEEENKUlvE_clEv
   fun:_ZSt13__invoke_implIvZN2tf8Executor6_spawnEmSt10shared_ptrINS0_15WorkerInterfaceEEEUlvE_JEET_St14__invoke_otherOT0_DpOT1_
   fun:_ZSt8__invokeIZN2tf8Executor6_spawnEmSt10shared_ptrINS0_15WorkerInterfaceEEEUlvE_JEENSt15__invoke_resultIT_JDpT0_EE4typeEOS7_DpOS8_
   fun:_ZNSt6thread8_InvokerISt5tupleIJZN2tf8Executor6_spawnEmSt10shared_ptrINS2_15WorkerInterfaceEEEUlvE_EEE9_M_invokeIJLm0EEEEvSt12_Index_tupleIJXspT_EEE
   fun:_ZNSt6thread8_InvokerISt5tupleIJZN2tf8Executor6_spawnEmSt10shared_ptrINS2_15WorkerInterfaceEEEUlvE_EEEclEv
   fun:_ZNSt6thread11_State_implINS_8_InvokerISt5tupleIJZN2tf8Executor6_spawnEmSt10shared_ptrINS3_15WorkerInterfaceEEEUlvE_EEEEE6_M_runEv
   obj:/usr/lib/x86_64-linux-gnu/libstdc++.so.6.0.33
   obj:/usr/libexec/valgrind/vgpreload_helgrind-amd64-linux.so
   fun:start_thread
   fun:clone
}
{
   <insert_a_suppression_name_here>
   Helgrind:Race
   fun:_ZNKSt7variantIJSt9monostateN2tf4Node6StaticENS2_7RuntimeENS2_20NonpreemptiveRuntimeENS2_7SubflowENS2_9ConditionENS2_14MultiConditionENS2_6ModuleENS2_5AsyncENS2_14DependentAsyncEEE5indexEv
   fun:_ZN2tf8Executor7_invokeERNS_6WorkerEPNS_4NodeE
   fun:_ZN2tf8Executor13_exploit_taskERNS_6WorkerERPNS_4NodeE
   fun:_ZZN2tf8Executor6_spawnEmSt10shared_ptrINS_15WorkerInterfaceEEENKUlvE_clEv
   fun:_ZSt13__invoke_implIvZN2tf8Executor6_spawnEmSt10shared_ptrINS0_15WorkerInterfaceEEEUlvE_JEET_St14__invoke_otherOT0_DpOT1_
   fun:_ZSt8__invokeIZN2tf8Executor6_spawnEmSt10shared_ptrINS0_15WorkerInterfaceEEEUlvE_JEENSt15__invoke_resultIT_JDpT0_EE4typeEOS7_DpOS8_
   fun:_ZNSt6thread8_InvokerISt5tupleIJZN2tf8Executor6_spawnEmSt10shared_ptrINS2_15WorkerInterfaceEEEUlvE_EEE9_M_invokeIJLm0EEEEvSt12_Index_tupleIJXspT_EEE
   fun:_ZNSt6thread8_InvokerISt5tupleIJZN2tf8Executor6_spawnEmSt10shared_ptrINS2_15WorkerInterfaceEEEUlvE_EEEclEv
   fun:_ZNSt6thread11_State_implINS_8_InvokerISt5tupleIJZN2tf8Executor6_spawnEmSt10shared_ptrINS3_15WorkerInterfaceEEEUlvE_EEEEE6_M_runEv
   obj:/usr/lib/x86_64-linux-gnu/libstdc++.so.6.0.33
   obj:/usr/libexec/valgrind/vgpreload_helgrind-amd64-linux.so
   fun:start_thread
}
{
   <insert_a_suppression_name_here>
   Helgrind:Race
   fun:_ZN2tf8Executor19_tear_down_nonasyncERNS_6WorkerEPNS_4NodeERS4_
   fun:_ZN2tf8Executor7_invokeERNS_6WorkerEPNS_4NodeE
   fun:_ZN2tf8Executor13_exploit_taskERNS_6WorkerERPNS_4NodeE
   fun:_ZZN2tf8Executor6_spawnEmSt10shared_ptrINS_15WorkerInterfaceEEENKUlvE_clEv
   fun:_ZSt13__invoke_implIvZN2tf8Executor6_spawnEmSt10shared_ptrINS0_15WorkerInterfaceEEEUlvE_JEET_St14__invoke_otherOT0_DpOT1_
   fun:_ZSt8__invokeIZN2tf8Executor6_spawnEmSt10shared_ptrINS0_15WorkerInterfaceEEEUlvE_JEENSt15__invoke_resultIT_JDpT0_EE4typeEOS7_DpOS8_
   fun:_ZNSt6thread8_InvokerISt5tupleIJZN2tf8Executor6_spawnEmSt10shared_ptrINS2_15WorkerInterfaceEEEUlvE_EEE9_M_invokeIJLm0EEEEvSt12_Index_tupleIJXspT_EEE
   fun:_ZNSt6thread8_InvokerISt5tupleIJZN2tf8Executor6_spawnEmSt10shared_ptrINS2_15WorkerInterfaceEEEUlvE_EEEclEv
   fun:_ZNSt6thread11_State_implINS_8_InvokerISt5tupleIJZN2tf8Executor6_spawnEmSt10shared_ptrINS3_15WorkerInterfaceEEEUlvE_EEEEE6_M_runEv
   obj:/usr/lib/x86_64-linux-gnu/libstdc++.so.6.0.33
   obj:/usr/libexec/valgrind/vgpreload_helgrind-amd64-linux.so
   fun:start_thread
}
{
   <insert_a_suppression_name_here>
   Helgrind:Race
   fun:_ZN2tf8Executor19_tear_down_nonasyncERNS_6WorkerEPNS_4NodeERS4_
   fun:_ZN2tf8Executor7_invokeERNS_6WorkerEPNS_4NodeE
   fun:_ZN2tf8Executor13_exploit_taskERNS_6WorkerERPNS_4NodeE
   fun:_ZZN2tf8Executor6_spawnEmSt10shared_ptrINS_15WorkerInterfaceEEENKUlvE_clEv
   fun:_ZSt13__invoke_implIvZN2tf8Executor6_spawnEmSt10shared_ptrINS0_15WorkerInterfaceEEEUlvE_JEET_St14__invoke_otherOT0_DpOT1_
   fun:_ZSt8__invokeIZN2tf8Executor6_spawnEmSt10shared_ptrINS0_15WorkerInterfaceEEEUlvE_JEENSt15__invoke_resultIT_JDpT0_EE4typeEOS7_DpOS8_
   fun:_ZNSt6thread8_InvokerISt5tupleIJZN2tf8Executor6_spawnEmSt10shared_ptrINS2_15WorkerInterfaceEEEUlvE_EEE9_M_invokeIJLm0EEEEvSt12_Index_tupleIJXspT_EEE
   fun:_ZNSt6thread8_InvokerISt5tupleIJZN2tf8Executor6_spawnEmSt10shared_ptrINS2_15WorkerInterfaceEEEUlvE_EEEclEv
   fun:_ZNSt6thread11_State_implINS_8_InvokerISt5tupleIJZN2tf8Executor6_spawnEmSt10shared_ptrINS3_15WorkerInterfaceEEEUlvE_EEEEE6_M_runEv
   obj:/usr/lib/x86_64-linux-gnu/libstdc++.so.6.0.33
   obj:/usr/libexec/valgrind/vgpreload_helgrind-amd64-linux.so
   fun:start_thread
}
{
   <insert_a_suppression_name_here>
   Helgrind:Race
   fun:_ZN2tf8Executor19_tear_down_topologyERNS_6WorkerEPNS_8TopologyERPNS_4NodeE
   fun:_ZN2tf8Executor19_tear_down_nonasyncERNS_6WorkerEPNS_4NodeERS4_
   fun:_ZN2tf8Executor7_invokeERNS_6WorkerEPNS_4NodeE
   fun:_ZN2tf8Executor13_exploit_taskERNS_6WorkerERPNS_4NodeE
   fun:_ZZN2tf8Executor6_spawnEmSt10shared_ptrINS_15WorkerInterfaceEEENKUlvE_clEv
   fun:_ZSt13__invoke_implIvZN2tf8Executor6_spawnEmSt10shared_ptrINS0_15WorkerInterfaceEEEUlvE_JEET_St14__invoke_otherOT0_DpOT1_
   fun:_ZSt8__invokeIZN2tf8Executor6_spawnEmSt10shared_ptrINS0_15WorkerInterfaceEEEUlvE_JEENSt15__invoke_resultIT_JDpT0_EE4typeEOS7_DpOS8_
   fun:_ZNSt6thread8_InvokerISt5tupleIJZN2tf8Executor6_spawnEmSt10shared_ptrINS2_15WorkerInterfaceEEEUlvE_EEE9_M_invokeIJLm0EEEEvSt12_Index_tupleIJXspT_EEE
   fun:_ZNSt6thread8_InvokerISt5tupleIJZN2tf8Executor6_spawnEmSt10shared_ptrINS2_15WorkerInterfaceEEEUlvE_EEEclEv
   fun:_ZNSt6thread11_State_implINS_8_InvokerISt5tupleIJZN2tf8Executor6_spawnEmSt10shared_ptrINS3_15WorkerInterfaceEEEUlvE_EEEEE6_M_runEv
   obj:/usr/lib/x86_64-linux-gnu/libstdc++.so.6.0.33
   obj:/usr/libexec/valgrind/vgpreload_helgrind-amd64-linux.so
}
{
   <insert_a_suppression_name_here>
   Helgrind:Race
   fun:_ZNKSt14_Function_base8_M_emptyEv
   fun:_ZNKSt8functionIFbvEEclEv
   fun:_ZN2tf8Executor19_tear_down_topologyERNS_6WorkerEPNS_8TopologyERPNS_4NodeE
   fun:_ZN2tf8Executor19_tear_down_nonasyncERNS_6WorkerEPNS_4NodeERS4_
   fun:_ZN2tf8Executor7_invokeERNS_6WorkerEPNS_4NodeE
   fun:_ZN2tf8Executor13_exploit_taskERNS_6WorkerERPNS_4NodeE
   fun:_ZZN2tf8Executor6_spawnEmSt10shared_ptrINS_15WorkerInterfaceEEENKUlvE_clEv
   fun:_ZSt13__invoke_implIvZN2tf8Executor6_spawnEmSt10shared_ptrINS0_15WorkerInterfaceEEEUlvE_JEET_St14__invoke_otherOT0_DpOT1_
   fun:_ZSt8__invokeIZN2tf8Executor6_spawnEmSt10shared_ptrINS0_15WorkerInterfaceEEEUlvE_JEENSt15__invoke_resultIT_JDpT0_EE4typeEOS7_DpOS8_
   fun:_ZNSt6thread8_InvokerISt5tupleIJZN2tf8Executor6_spawnEmSt10shared_ptrINS2_15WorkerInterfaceEEEUlvE_EEE9_M_invokeIJLm0EEEEvSt12_Index_tupleIJXspT_EEE
   fun:_ZNSt6thread8_InvokerISt5tupleIJZN2tf8Executor6_spawnEmSt10shared_ptrINS2_15WorkerInterfaceEEEUlvE_EEEclEv
   fun:_ZNSt6thread11_State_implINS_8_InvokerISt5tupleIJZN2tf8Executor6_spawnEmSt10shared_ptrINS3_15WorkerInterfaceEEEUlvE_EEEEE6_M_runEv
}
{
   <insert_a_suppression_name_here>
   Helgrind:Race
   fun:_ZNKSt8functionIFbvEEclEv
   fun:_ZN2tf8Executor19_tear_down_topologyERNS_6WorkerEPNS_8TopologyERPNS_4NodeE
   fun:_ZN2tf8Executor19_tear_down_nonasyncERNS_6WorkerEPNS_4NodeERS4_
   fun:_ZN2tf8Executor7_invokeERNS_6WorkerEPNS_4NodeE
   fun:_ZN2tf8Executor13_exploit_taskERNS_6WorkerERPNS_4NodeE
   fun:_ZZN2tf8Executor6_spawnEmSt10shared_ptrINS_15WorkerInterfaceEEENKUlvE_clEv
   fun:_ZSt13__invoke_implIvZN2tf8Executor6_spawnEmSt10shared_ptrINS0_15WorkerInterfaceEEEUlvE_JEET_St14__invoke_otherOT0_DpOT1_
   fun:_ZSt8__invokeIZN2tf8Executor6_spawnEmSt10shared_ptrINS0_15WorkerInterfaceEEEUlvE_JEENSt15__invoke_resultIT_JDpT0_EE4typeEOS7_DpOS8_
   fun:_ZNSt6thread8_InvokerISt5tupleIJZN2tf8Executor6_spawnEmSt10shared_ptrINS2_15WorkerInterfaceEEEUlvE_EEE9_M_invokeIJLm0EEEEvSt12_Index_tupleIJXspT_EEE
   fun:_ZNSt6thread8_InvokerISt5tupleIJZN2tf8Executor6_spawnEmSt10shared_ptrINS2_15WorkerInterfaceEEEUlvE_EEEclEv
   fun:_ZNSt6thread11_State_implINS_8_InvokerISt5tupleIJZN2tf8Executor6_spawnEmSt10shared_ptrINS3_15WorkerInterfaceEEEUlvE_EEEEE6_M_runEv
   obj:/usr/lib/x86_64-linux-gnu/libstdc++.so.6.0.33
}
{
   <insert_a_suppression_name_here>
   Helgrind:Race
   fun:_ZZN2tf8Executor5run_nIZNS0_3runEONS_8TaskflowEEUlvE_EENS_6FutureIvEES3_mOT_ENUlvE_clEv
   fun:_ZSt13__invoke_implIbRZN2tf8Executor5run_nIZNS1_3runEONS0_8TaskflowEEUlvE_EENS0_6FutureIvEES4_mOT_EUlvE_JEES8_St14__invoke_otherOT0_DpOT1_
   fun:_ZSt10__invoke_rIbRZN2tf8Executor5run_nIZNS1_3runEONS0_8TaskflowEEUlvE_EENS0_6FutureIvEES4_mOT_EUlvE_JEENSt9enable_ifIX16is_invocable_r_vIS8_T0_DpT1_EES8_E4typeEOSD_DpOSE_
   fun:_ZNSt17_Function_handlerIFbvEZN2tf8Executor5run_nIZNS2_3runEONS1_8TaskflowEEUlvE_EENS1_6FutureIvEES5_mOT_EUlvE_E9_M_invokeERKSt9_Any_data
   fun:_ZNKSt8functionIFbvEEclEv
   fun:_ZN2tf8Executor19_tear_down_topologyERNS_6WorkerEPNS_8TopologyERPNS_4NodeE
   fun:_ZN2tf8Executor19_tear_down_nonasyncERNS_6WorkerEPNS_4NodeERS4_
   fun:_ZN2tf8Executor7_invokeERNS_6WorkerEPNS_4NodeE
   fun:_ZN2tf8Executor13_exploit_taskERNS_6WorkerERPNS_4NodeE
   fun:_ZZN2tf8Executor6_spawnEmSt10shared_ptrINS_15WorkerInterfaceEEENKUlvE_clEv
   fun:_ZSt13__invoke_implIvZN2tf8Executor6_spawnEmSt10shared_ptrINS0_15WorkerInterfaceEEEUlvE_JEET_St14__invoke_otherOT0_DpOT1_
   fun:_ZSt8__invokeIZN2tf8Executor6_spawnEmSt10shared_ptrINS0_15WorkerInterfaceEEEUlvE_JEENSt15__invoke_resultIT_JDpT0_EE4typeEOS7_DpOS8_
}
{
   <insert_a_suppression_name_here>
   Helgrind:Race
   fun:_ZZN2tf8Executor5run_nIZNS0_3runEONS_8TaskflowEEUlvE_EENS_6FutureIvEES3_mOT_ENUlvE_clEv
   fun:_ZSt13__invoke_implIbRZN2tf8Executor5run_nIZNS1_3runEONS0_8TaskflowEEUlvE_EENS0_6FutureIvEES4_mOT_EUlvE_JEES8_St14__invoke_otherOT0_DpOT1_
   fun:_ZSt10__invoke_rIbRZN2tf8Executor5run_nIZNS1_3runEONS0_8TaskflowEEUlvE_EENS0_6FutureIvEES4_mOT_EUlvE_JEENSt9enable_ifIX16is_invocable_r_vIS8_T0_DpT1_EES8_E4typeEOSD_DpOSE_
   fun:_ZNSt17_Function_handlerIFbvEZN2tf8Executor5run_nIZNS2_3runEONS1_8TaskflowEEUlvE_EENS1_6FutureIvEES5_mOT_EUlvE_E9_M_invokeERKSt9_Any_data
   fun:_ZNKSt8functionIFbvEEclEv
   fun:_ZN2tf8Executor19_tear_down_topologyERNS_6WorkerEPNS_8TopologyERPNS_4NodeE
   fun:_ZN2tf8Executor19_tear_down_nonasyncERNS_6WorkerEPNS_4NodeERS4_
   fun:_ZN2tf8Executor7_invokeERNS_6WorkerEPNS_4NodeE
   fun:_ZN2tf8Executor13_exploit_taskERNS_6WorkerERPNS_4NodeE
   fun:_ZZN2tf8Executor6_spawnEmSt10shared_ptrINS_15WorkerInterfaceEEENKUlvE_clEv
   fun:_ZSt13__invoke_implIvZN2tf8Executor6_spawnEmSt10shared_ptrINS0_15WorkerInterfaceEEEUlvE_JEET_St14__invoke_otherOT0_DpOT1_
   fun:_ZSt8__invokeIZN2tf8Executor6_spawnEmSt10shared_ptrINS0_15WorkerInterfaceEEEUlvE_JEENSt15__invoke_resultIT_JDpT0_EE4typeEOS7_DpOS8_
}
{
   <insert_a_suppression_name_here>
   Helgrind:Race
   fun:_ZNKSt14_Function_base8_M_emptyEv
   fun:_ZNKSt8functionIFvvEEclEv
   fun:_ZN2tf8Executor19_tear_down_topologyERNS_6WorkerEPNS_8TopologyERPNS_4NodeE
   fun:_ZN2tf8Executor19_tear_down_nonasyncERNS_6WorkerEPNS_4NodeERS4_
   fun:_ZN2tf8Executor7_invokeERNS_6WorkerEPNS_4NodeE
   fun:_ZN2tf8Executor13_exploit_taskERNS_6WorkerERPNS_4NodeE
   fun:_ZZN2tf8Executor6_spawnEmSt10shared_ptrINS_15WorkerInterfaceEEENKUlvE_clEv
   fun:_ZSt13__invoke_implIvZN2tf8Executor6_spawnEmSt10shared_ptrINS0_15WorkerInterfaceEEEUlvE_JEET_St14__invoke_otherOT0_DpOT1_
   fun:_ZSt8__invokeIZN2tf8Executor6_spawnEmSt10shared_ptrINS0_15WorkerInterfaceEEEUlvE_JEENSt15__invoke_resultIT_JDpT0_EE4typeEOS7_DpOS8_
   fun:_ZNSt6thread8_InvokerISt5tupleIJZN2tf8Executor6_spawnEmSt10shared_ptrINS2_15WorkerInterfaceEEEUlvE_EEE9_M_invokeIJLm0EEEEvSt12_Index_tupleIJXspT_EEE
   fun:_ZNSt6thread8_InvokerISt5tupleIJZN2tf8Executor6_spawnEmSt10shared_ptrINS2_15WorkerInterfaceEEEUlvE_EEEclEv
   fun:_ZNSt6thread11_State_implINS_8_InvokerISt5tupleIJZN2tf8Executor6_spawnEmSt10shared_ptrINS3_15WorkerInterfaceEEEUlvE_EEEEE6_M_runEv
}
{
   <insert_a_suppression_name_here>
   Helgrind:Race
   fun:_ZNKSt8functionIFvvEEclEv
   fun:_ZN2tf8Executor19_tear_down_topologyERNS_6WorkerEPNS_8TopologyERPNS_4NodeE
   fun:_ZN2tf8Executor19_tear_down_nonasyncERNS_6WorkerEPNS_4NodeERS4_
   fun:_ZN2tf8Executor7_invokeERNS_6WorkerEPNS_4NodeE
   fun:_ZN2tf8Executor13_exploit_taskERNS_6WorkerERPNS_4NodeE
   fun:_ZZN2tf8Executor6_spawnEmSt10shared_ptrINS_15WorkerInterfaceEEENKUlvE_clEv
   fun:_ZSt13__invoke_implIvZN2tf8Executor6_spawnEmSt10shared_ptrINS0_15WorkerInterfaceEEEUlvE_JEET_St14__invoke_otherOT0_DpOT1_
   fun:_ZSt8__invokeIZN2tf8Executor6_spawnEmSt10shared_ptrINS0_15WorkerInterfaceEEEUlvE_JEENSt15__invoke_resultIT_JDpT0_EE4typeEOS7_DpOS8_
   fun:_ZNSt6thread8_InvokerISt5tupleIJZN2tf8Executor6_spawnEmSt10shared_ptrINS2_15WorkerInterfaceEEEUlvE_EEE9_M_invokeIJLm0EEEEvSt12_Index_tupleIJXspT_EEE
   fun:_ZNSt6thread8_InvokerISt5tupleIJZN2tf8Executor6_spawnEmSt10shared_ptrINS2_15WorkerInterfaceEEEUlvE_EEEclEv
   fun:_ZNSt6thread11_State_implINS_8_InvokerISt5tupleIJZN2tf8Executor6_spawnEmSt10shared_ptrINS3_15WorkerInterfaceEEEUlvE_EEEEE6_M_runEv
   obj:/usr/lib/x86_64-linux-gnu/libstdc++.so.6.0.33
}
{
   <insert_a_suppression_name_here>
   Helgrind:Race
   fun:_ZStmiRKSt15_Deque_iteratorISt10shared_ptrIN2tf8TopologyEERS3_PS3_ES8_
   fun:_ZNKSt5dequeISt10shared_ptrIN2tf8TopologyEESaIS3_EE4sizeEv
   fun:_ZNKSt5queueISt10shared_ptrIN2tf8TopologyEESt5dequeIS3_SaIS3_EEE4sizeEv
   fun:_ZN2tf8Executor19_tear_down_topologyERNS_6WorkerEPNS_8TopologyERPNS_4NodeE
   fun:_ZN2tf8Executor19_tear_down_nonasyncERNS_6WorkerEPNS_4NodeERS4_
   fun:_ZN2tf8Executor7_invokeERNS_6WorkerEPNS_4NodeE
   fun:_ZN2tf8Executor13_exploit_taskERNS_6WorkerERPNS_4NodeE
   fun:_ZZN2tf8Executor6_spawnEmSt10shared_ptrINS_15WorkerInterfaceEEENKUlvE_clEv
   fun:_ZSt13__invoke_implIvZN2tf8Executor6_spawnEmSt10shared_ptrINS0_15WorkerInterfaceEEEUlvE_JEET_St14__invoke_otherOT0_DpOT1_
   fun:_ZSt8__invokeIZN2tf8Executor6_spawnEmSt10shared_ptrINS0_15WorkerInterfaceEEEUlvE_JEENSt15__invoke_resultIT_JDpT0_EE4typeEOS7_DpOS8_
   fun:_ZNSt6thread8_InvokerISt5tupleIJZN2tf8Executor6_spawnEmSt10shared_ptrINS2_15WorkerInterfaceEEEUlvE_EEE9_M_invokeIJLm0EEEEvSt12_Index_tupleIJXspT_EEE
   fun:_ZNSt6thread8_InvokerISt5tupleIJZN2tf8Executor6_spawnEmSt10shared_ptrINS2_15WorkerInterfaceEEEUlvE_EEEclEv
}
{
   <insert_a_suppression_name_here>
   Helgrind:Race
   fun:_ZStmiRKSt15_Deque_iteratorISt10shared_ptrIN2tf8TopologyEERS3_PS3_ES8_
   fun:_ZNKSt5dequeISt10shared_ptrIN2tf8TopologyEESaIS3_EE4sizeEv
   fun:_ZNKSt5queueISt10shared_ptrIN2tf8TopologyEESt5dequeIS3_SaIS3_EEE4sizeEv
   fun:_ZN2tf8Executor19_tear_down_topologyERNS_6WorkerEPNS_8TopologyERPNS_4NodeE
   fun:_ZN2tf8Executor19_tear_down_nonasyncERNS_6WorkerEPNS_4NodeERS4_
   fun:_ZN2tf8Executor7_invokeERNS_6WorkerEPNS_4NodeE
   fun:_ZN2tf8Executor13_exploit_taskERNS_6WorkerERPNS_4NodeE
   fun:_ZZN2tf8Executor6_spawnEmSt10shared_ptrINS_15WorkerInterfaceEEENKUlvE_clEv
   fun:_ZSt13__invoke_implIvZN2tf8Executor6_spawnEmSt10shared_ptrINS0_15WorkerInterfaceEEEUlvE_JEET_St14__invoke_otherOT0_DpOT1_
   fun:_ZSt8__invokeIZN2tf8Executor6_spawnEmSt10shared_ptrINS0_15WorkerInterfaceEEEUlvE_JEENSt15__invoke_resultIT_JDpT0_EE4typeEOS7_DpOS8_
   fun:_ZNSt6thread8_InvokerISt5tupleIJZN2tf8Executor6_spawnEmSt10shared_ptrINS2_15WorkerInterfaceEEEUlvE_EEE9_M_invokeIJLm0EEEEvSt12_Index_tupleIJXspT_EEE
   fun:_ZNSt6thread8_InvokerISt5tupleIJZN2tf8Executor6_spawnEmSt10shared_ptrINS2_15WorkerInterfaceEEEUlvE_EEEclEv
}
{
   <insert_a_suppression_name_here>
   Helgrind:Race
   fun:_ZStmiRKSt15_Deque_iteratorISt10shared_ptrIN2tf8TopologyEERS3_PS3_ES8_
   fun:_ZNKSt5dequeISt10shared_ptrIN2tf8TopologyEESaIS3_EE4sizeEv
   fun:_ZNKSt5queueISt10shared_ptrIN2tf8TopologyEESt5dequeIS3_SaIS3_EEE4sizeEv
   fun:_ZN2tf8Executor19_tear_down_topologyERNS_6WorkerEPNS_8TopologyERPNS_4NodeE
   fun:_ZN2tf8Executor19_tear_down_nonasyncERNS_6WorkerEPNS_4NodeERS4_
   fun:_ZN2tf8Executor7_invokeERNS_6WorkerEPNS_4NodeE
   fun:_ZN2tf8Executor13_exploit_taskERNS_6WorkerERPNS_4NodeE
   fun:_ZZN2tf8Executor6_spawnEmSt10shared_ptrINS_15WorkerInterfaceEEENKUlvE_clEv
   fun:_ZSt13__invoke_implIvZN2tf8Executor6_spawnEmSt10shared_ptrINS0_15WorkerInterfaceEEEUlvE_JEET_St14__invoke_otherOT0_DpOT1_
   fun:_ZSt8__invokeIZN2tf8Executor6_spawnEmSt10shared_ptrINS0_15WorkerInterfaceEEEUlvE_JEENSt15__invoke_resultIT_JDpT0_EE4typeEOS7_DpOS8_
   fun:_ZNSt6thread8_InvokerISt5tupleIJZN2tf8Executor6_spawnEmSt10shared_ptrINS2_15WorkerInterfaceEEEUlvE_EEE9_M_invokeIJLm0EEEEvSt12_Index_tupleIJXspT_EEE
   fun:_ZNSt6thread8_InvokerISt5tupleIJZN2tf8Executor6_spawnEmSt10shared_ptrINS2_15WorkerInterfaceEEEUlvE_EEEclEv
}
{
   <insert_a_suppression_name_here>
   Helgrind:Race
   fun:_ZStmiRKSt15_Deque_iteratorISt10shared_ptrIN2tf8TopologyEERS3_PS3_ES8_
   fun:_ZNKSt5dequeISt10shared_ptrIN2tf8TopologyEESaIS3_EE4sizeEv
   fun:_ZNKSt5queueISt10shared_ptrIN2tf8TopologyEESt5dequeIS3_SaIS3_EEE4sizeEv
   fun:_ZN2tf8Executor19_tear_down_topologyERNS_6WorkerEPNS_8TopologyERPNS_4NodeE
   fun:_ZN2tf8Executor19_tear_down_nonasyncERNS_6WorkerEPNS_4NodeERS4_
   fun:_ZN2tf8Executor7_invokeERNS_6WorkerEPNS_4NodeE
   fun:_ZN2tf8Executor13_exploit_taskERNS_6WorkerERPNS_4NodeE
   fun:_ZZN2tf8Executor6_spawnEmSt10shared_ptrINS_15WorkerInterfaceEEENKUlvE_clEv
   fun:_ZSt13__invoke_implIvZN2tf8Executor6_spawnEmSt10shared_ptrINS0_15WorkerInterfaceEEEUlvE_JEET_St14__invoke_otherOT0_DpOT1_
   fun:_ZSt8__invokeIZN2tf8Executor6_spawnEmSt10shared_ptrINS0_15WorkerInterfaceEEEUlvE_JEENSt15__invoke_resultIT_JDpT0_EE4typeEOS7_DpOS8_
   fun:_ZNSt6thread8_InvokerISt5tupleIJZN2tf8Executor6_spawnEmSt10shared_ptrINS2_15WorkerInterfaceEEEUlvE_EEE9_M_invokeIJLm0EEEEvSt12_Index_tupleIJXspT_EEE
   fun:_ZNSt6thread8_InvokerISt5tupleIJZN2tf8Executor6_spawnEmSt10shared_ptrINS2_15WorkerInterfaceEEEUlvE_EEEclEv
}
{
   <insert_a_suppression_name_here>
   Helgrind:Race
   fun:_ZStmiRKSt15_Deque_iteratorISt10shared_ptrIN2tf8TopologyEERS3_PS3_ES8_
   fun:_ZNKSt5dequeISt10shared_ptrIN2tf8TopologyEESaIS3_EE4sizeEv
   fun:_ZNKSt5queueISt10shared_ptrIN2tf8TopologyEESt5dequeIS3_SaIS3_EEE4sizeEv
   fun:_ZN2tf8Executor19_tear_down_topologyERNS_6WorkerEPNS_8TopologyERPNS_4NodeE
   fun:_ZN2tf8Executor19_tear_down_nonasyncERNS_6WorkerEPNS_4NodeERS4_
   fun:_ZN2tf8Executor7_invokeERNS_6WorkerEPNS_4NodeE
   fun:_ZN2tf8Executor13_exploit_taskERNS_6WorkerERPNS_4NodeE
   fun:_ZZN2tf8Executor6_spawnEmSt10shared_ptrINS_15WorkerInterfaceEEENKUlvE_clEv
   fun:_ZSt13__invoke_implIvZN2tf8Executor6_spawnEmSt10shared_ptrINS0_15WorkerInterfaceEEEUlvE_JEET_St14__invoke_otherOT0_DpOT1_
   fun:_ZSt8__invokeIZN2tf8Executor6_spawnEmSt10shared_ptrINS0_15WorkerInterfaceEEEUlvE_JEENSt15__invoke_resultIT_JDpT0_EE4typeEOS7_DpOS8_
   fun:_ZNSt6thread8_InvokerISt5tupleIJZN2tf8Executor6_spawnEmSt10shared_ptrINS2_15WorkerInterfaceEEEUlvE_EEE9_M_invokeIJLm0EEEEvSt12_Index_tupleIJXspT_EEE
   fun:_ZNSt6thread8_InvokerISt5tupleIJZN2tf8Executor6_spawnEmSt10shared_ptrINS2_15WorkerInterfaceEEEUlvE_EEEclEv
}
{
   <insert_a_suppression_name_here>
   Helgrind:Race
   fun:_ZStmiRKSt15_Deque_iteratorISt10shared_ptrIN2tf8TopologyEERS3_PS3_ES8_
   fun:_ZNKSt5dequeISt10shared_ptrIN2tf8TopologyEESaIS3_EE4sizeEv
   fun:_ZNKSt5queueISt10shared_ptrIN2tf8TopologyEESt5dequeIS3_SaIS3_EEE4sizeEv
   fun:_ZN2tf8Executor19_tear_down_topologyERNS_6WorkerEPNS_8TopologyERPNS_4NodeE
   fun:_ZN2tf8Executor19_tear_down_nonasyncERNS_6WorkerEPNS_4NodeERS4_
   fun:_ZN2tf8Executor7_invokeERNS_6WorkerEPNS_4NodeE
   fun:_ZN2tf8Executor13_exploit_taskERNS_6WorkerERPNS_4NodeE
   fun:_ZZN2tf8Executor6_spawnEmSt10shared_ptrINS_15WorkerInterfaceEEENKUlvE_clEv
   fun:_ZSt13__invoke_implIvZN2tf8Executor6_spawnEmSt10shared_ptrINS0_15WorkerInterfaceEEEUlvE_JEET_St14__invoke_otherOT0_DpOT1_
   fun:_ZSt8__invokeIZN2tf8Executor6_spawnEmSt10shared_ptrINS0_15WorkerInterfaceEEEUlvE_JEENSt15__invoke_resultIT_JDpT0_EE4typeEOS7_DpOS8_
   fun:_ZNSt6thread8_InvokerISt5tupleIJZN2tf8Executor6_spawnEmSt10shared_ptrINS2_15WorkerInterfaceEEEUlvE_EEE9_M_invokeIJLm0EEEEvSt12_Index_tupleIJXspT_EEE
   fun:_ZNSt6thread8_InvokerISt5tupleIJZN2tf8Executor6_spawnEmSt10shared_ptrINS2_15WorkerInterfaceEEEUlvE_EEEclEv
}
{
   <insert_a_suppression_name_here>
   Helgrind:Race
   fun:_ZNSt15_Deque_iteratorISt10shared_ptrIN2tf8TopologyEERS3_PS3_EC1ERKS6_
   fun:_ZNSt5dequeISt10shared_ptrIN2tf8TopologyEESaIS3_EE5beginEv
   fun:_ZNSt5dequeISt10shared_ptrIN2tf8TopologyEESaIS3_EE5frontEv
   fun:_ZNSt5queueISt10shared_ptrIN2tf8TopologyEESt5dequeIS3_SaIS3_EEE5frontEv
   fun:_ZN2tf8Executor19_tear_down_topologyERNS_6WorkerEPNS_8TopologyERPNS_4NodeE
   fun:_ZN2tf8Executor19_tear_down_nonasyncERNS_6WorkerEPNS_4NodeERS4_
   fun:_ZN2tf8Executor7_invokeERNS_6WorkerEPNS_4NodeE
   fun:_ZN2tf8Executor13_exploit_taskERNS_6WorkerERPNS_4NodeE
   fun:_ZZN2tf8Executor6_spawnEmSt10shared_ptrINS_15WorkerInterfaceEEENKUlvE_clEv
   fun:_ZSt13__invoke_implIvZN2tf8Executor6_spawnEmSt10shared_ptrINS0_15WorkerInterfaceEEEUlvE_JEET_St14__invoke_otherOT0_DpOT1_
   fun:_ZSt8__invokeIZN2tf8Executor6_spawnEmSt10shared_ptrINS0_15WorkerInterfaceEEEUlvE_JEENSt15__invoke_resultIT_JDpT0_EE4typeEOS7_DpOS8_
   fun:_ZNSt6thread8_InvokerISt5tupleIJZN2tf8Executor6_spawnEmSt10shared_ptrINS2_15WorkerInterfaceEEEUlvE_EEE9_M_invokeIJLm0EEEEvSt12_Index_tupleIJXspT_EEE
}
{
   <insert_a_suppression_name_here>
   Helgrind:Race
   fun:_ZNSt12__shared_ptrIN2tf8TopologyELN9__gnu_cxx12_Lock_policyE2EEC1EOS4_
   fun:_ZNSt10shared_ptrIN2tf8TopologyEEC1EOS2_
   fun:_ZN2tf8Executor19_tear_down_topologyERNS_6WorkerEPNS_8TopologyERPNS_4NodeE
   fun:_ZN2tf8Executor19_tear_down_nonasyncERNS_6WorkerEPNS_4NodeERS4_
   fun:_ZN2tf8Executor7_invokeERNS_6WorkerEPNS_4NodeE
   fun:_ZN2tf8Executor13_exploit_taskERNS_6WorkerERPNS_4NodeE
   fun:_ZZN2tf8Executor6_spawnEmSt10shared_ptrINS_15WorkerInterfaceEEENKUlvE_clEv
   fun:_ZSt13__invoke_implIvZN2tf8Executor6_spawnEmSt10shared_ptrINS0_15WorkerInterfaceEEEUlvE_JEET_St14__invoke_otherOT0_DpOT1_
   fun:_ZSt8__invokeIZN2tf8Executor6_spawnEmSt10shared_ptrINS0_15WorkerInterfaceEEEUlvE_JEENSt15__invoke_resultIT_JDpT0_EE4typeEOS7_DpOS8_
   fun:_ZNSt6thread8_InvokerISt5tupleIJZN2tf8Executor6_spawnEmSt10shared_ptrINS2_15WorkerInterfaceEEEUlvE_EEE9_M_invokeIJLm0EEEEvSt12_Index_tupleIJXspT_EEE
   fun:_ZNSt6thread8_InvokerISt5tupleIJZN2tf8Executor6_spawnEmSt10shared_ptrINS2_15WorkerInterfaceEEEUlvE_EEEclEv
   fun:_ZNSt6thread11_State_implINS_8_InvokerISt5tupleIJZN2tf8Executor6_spawnEmSt10shared_ptrINS3_15WorkerInterfaceEEEUlvE_EEEEE6_M_runEv
}
{
   <insert_a_suppression_name_here>
   Helgrind:Race
   fun:_ZNSt14__shared_countILN9__gnu_cxx12_Lock_policyE2EE7_M_swapERS2_
   fun:_ZNSt12__shared_ptrIN2tf8TopologyELN9__gnu_cxx12_Lock_policyE2EEC1EOS4_
   fun:_ZNSt10shared_ptrIN2tf8TopologyEEC1EOS2_
   fun:_ZN2tf8Executor19_tear_down_topologyERNS_6WorkerEPNS_8TopologyERPNS_4NodeE
   fun:_ZN2tf8Executor19_tear_down_nonasyncERNS_6WorkerEPNS_4NodeERS4_
   fun:_ZN2tf8Executor7_invokeERNS_6WorkerEPNS_4NodeE
   fun:_ZN2tf8Executor13_exploit_taskERNS_6WorkerERPNS_4NodeE
   fun:_ZZN2tf8Executor6_spawnEmSt10shared_ptrINS_15WorkerInterfaceEEENKUlvE_clEv
   fun:_ZSt13__invoke_implIvZN2tf8Executor6_spawnEmSt10shared_ptrINS0_15WorkerInterfaceEEEUlvE_JEET_St14__invoke_otherOT0_DpOT1_
   fun:_ZSt8__invokeIZN2tf8Executor6_spawnEmSt10shared_ptrINS0_15WorkerInterfaceEEEUlvE_JEENSt15__invoke_resultIT_JDpT0_EE4typeEOS7_DpOS8_
   fun:_ZNSt6thread8_InvokerISt5tupleIJZN2tf8Executor6_spawnEmSt10shared_ptrINS2_15WorkerInterfaceEEEUlvE_EEE9_M_invokeIJLm0EEEEvSt12_Index_tupleIJXspT_EEE
   fun:_ZNSt6thread8_InvokerISt5tupleIJZN2tf8Executor6_spawnEmSt10shared_ptrINS2_15WorkerInterfaceEEEUlvE_EEEclEv
}
{
   <insert_a_suppression_name_here>
   Helgrind:Race
   fun:_ZNSt14__shared_countILN9__gnu_cxx12_Lock_policyE2EE7_M_swapERS2_
   fun:_ZNSt12__shared_ptrIN2tf8TopologyELN9__gnu_cxx12_Lock_policyE2EEC1EOS4_
   fun:_ZNSt10shared_ptrIN2tf8TopologyEEC1EOS2_
   fun:_ZN2tf8Executor19_tear_down_topologyERNS_6WorkerEPNS_8TopologyERPNS_4NodeE
   fun:_ZN2tf8Executor19_tear_down_nonasyncERNS_6WorkerEPNS_4NodeERS4_
   fun:_ZN2tf8Executor7_invokeERNS_6WorkerEPNS_4NodeE
   fun:_ZN2tf8Executor13_exploit_taskERNS_6WorkerERPNS_4NodeE
   fun:_ZZN2tf8Executor6_spawnEmSt10shared_ptrINS_15WorkerInterfaceEEENKUlvE_clEv
   fun:_ZSt13__invoke_implIvZN2tf8Executor6_spawnEmSt10shared_ptrINS0_15WorkerInterfaceEEEUlvE_JEET_St14__invoke_otherOT0_DpOT1_
   fun:_ZSt8__invokeIZN2tf8Executor6_spawnEmSt10shared_ptrINS0_15WorkerInterfaceEEEUlvE_JEENSt15__invoke_resultIT_JDpT0_EE4typeEOS7_DpOS8_
   fun:_ZNSt6thread8_InvokerISt5tupleIJZN2tf8Executor6_spawnEmSt10shared_ptrINS2_15WorkerInterfaceEEEUlvE_EEE9_M_invokeIJLm0EEEEvSt12_Index_tupleIJXspT_EEE
   fun:_ZNSt6thread8_InvokerISt5tupleIJZN2tf8Executor6_spawnEmSt10shared_ptrINS2_15WorkerInterfaceEEEUlvE_EEEclEv
}
{
   <insert_a_suppression_name_here>
   Helgrind:Race
   fun:_ZNSt12__shared_ptrIN2tf8TopologyELN9__gnu_cxx12_Lock_policyE2EEC1EOS4_
   fun:_ZNSt10shared_ptrIN2tf8TopologyEEC1EOS2_
   fun:_ZN2tf8Executor19_tear_down_topologyERNS_6WorkerEPNS_8TopologyERPNS_4NodeE
   fun:_ZN2tf8Executor19_tear_down_nonasyncERNS_6WorkerEPNS_4NodeERS4_
   fun:_ZN2tf8Executor7_invokeERNS_6WorkerEPNS_4NodeE
   fun:_ZN2tf8Executor13_exploit_taskERNS_6WorkerERPNS_4NodeE
   fun:_ZZN2tf8Executor6_spawnEmSt10shared_ptrINS_15WorkerInterfaceEEENKUlvE_clEv
   fun:_ZSt13__invoke_implIvZN2tf8Executor6_spawnEmSt10shared_ptrINS0_15WorkerInterfaceEEEUlvE_JEET_St14__invoke_otherOT0_DpOT1_
   fun:_ZSt8__invokeIZN2tf8Executor6_spawnEmSt10shared_ptrINS0_15WorkerInterfaceEEEUlvE_JEENSt15__invoke_resultIT_JDpT0_EE4typeEOS7_DpOS8_
   fun:_ZNSt6thread8_InvokerISt5tupleIJZN2tf8Executor6_spawnEmSt10shared_ptrINS2_15WorkerInterfaceEEEUlvE_EEE9_M_invokeIJLm0EEEEvSt12_Index_tupleIJXspT_EEE
   fun:_ZNSt6thread8_InvokerISt5tupleIJZN2tf8Executor6_spawnEmSt10shared_ptrINS2_15WorkerInterfaceEEEUlvE_EEEclEv
   fun:_ZNSt6thread11_State_implINS_8_InvokerISt5tupleIJZN2tf8Executor6_spawnEmSt10shared_ptrINS3_15WorkerInterfaceEEEUlvE_EEEEE6_M_runEv
}
{
   <insert_a_suppression_name_here>
   Helgrind:Race
   fun:_ZNSt5dequeISt10shared_ptrIN2tf8TopologyEESaIS3_EE9pop_frontEv
   fun:_ZNSt5queueISt10shared_ptrIN2tf8TopologyEESt5dequeIS3_SaIS3_EEE3popEv
   fun:_ZN2tf8Executor19_tear_down_topologyERNS_6WorkerEPNS_8TopologyERPNS_4NodeE
   fun:_ZN2tf8Executor19_tear_down_nonasyncERNS_6WorkerEPNS_4NodeERS4_
   fun:_ZN2tf8Executor7_invokeERNS_6WorkerEPNS_4NodeE
   fun:_ZN2tf8Executor13_exploit_taskERNS_6WorkerERPNS_4NodeE
   fun:_ZZN2tf8Executor6_spawnEmSt10shared_ptrINS_15WorkerInterfaceEEENKUlvE_clEv
   fun:_ZSt13__invoke_implIvZN2tf8Executor6_spawnEmSt10shared_ptrINS0_15WorkerInterfaceEEEUlvE_JEET_St14__invoke_otherOT0_DpOT1_
   fun:_ZSt8__invokeIZN2tf8Executor6_spawnEmSt10shared_ptrINS0_15WorkerInterfaceEEEUlvE_JEENSt15__invoke_resultIT_JDpT0_EE4typeEOS7_DpOS8_
   fun:_ZNSt6thread8_InvokerISt5tupleIJZN2tf8Executor6_spawnEmSt10shared_ptrINS2_15WorkerInterfaceEEEUlvE_EEE9_M_invokeIJLm0EEEEvSt12_Index_tupleIJXspT_EEE
   fun:_ZNSt6thread8_InvokerISt5tupleIJZN2tf8Executor6_spawnEmSt10shared_ptrINS2_15WorkerInterfaceEEEUlvE_EEEclEv
   fun:_ZNSt6thread11_State_implINS_8_InvokerISt5tupleIJZN2tf8Executor6_spawnEmSt10shared_ptrINS3_15WorkerInterfaceEEEUlvE_EEEEE6_M_runEv
}
{
   <insert_a_suppression_name_here>
   Helgrind:Race
   fun:_ZNKSt15__exception_ptr13exception_ptrcvbEv
   fun:_ZN2tf8Topology18_carry_out_promiseEv
   fun:_ZN2tf8Executor19_tear_down_topologyERNS_6WorkerEPNS_8TopologyERPNS_4NodeE
   fun:_ZN2tf8Executor19_tear_down_nonasyncERNS_6WorkerEPNS_4NodeERS4_
   fun:_ZN2tf8Executor7_invokeERNS_6WorkerEPNS_4NodeE
   fun:_ZN2tf8Executor13_exploit_taskERNS_6WorkerERPNS_4NodeE
   fun:_ZZN2tf8Executor6_spawnEmSt10shared_ptrINS_15WorkerInterfaceEEENKUlvE_clEv
   fun:_ZSt13__invoke_implIvZN2tf8Executor6_spawnEmSt10shared_ptrINS0_15WorkerInterfaceEEEUlvE_JEET_St14__invoke_otherOT0_DpOT1_
   fun:_ZSt8__invokeIZN2tf8Executor6_spawnEmSt10shared_ptrINS0_15WorkerInterfaceEEEUlvE_JEENSt15__invoke_resultIT_JDpT0_EE4typeEOS7_DpOS8_
   fun:_ZNSt6thread8_InvokerISt5tupleIJZN2tf8Executor6_spawnEmSt10shared_ptrINS2_15WorkerInterfaceEEEUlvE_EEE9_M_invokeIJLm0EEEEvSt12_Index_tupleIJXspT_EEE
   fun:_ZNSt6thread8_InvokerISt5tupleIJZN2tf8Executor6_spawnEmSt10shared_ptrINS2_15WorkerInterfaceEEEUlvE_EEEclEv
   fun:_ZNSt6thread11_State_implINS_8_InvokerISt5tupleIJZN2tf8Executor6_spawnEmSt10shared_ptrINS3_15WorkerInterfaceEEEUlvE_EEEEE6_M_runEv
}
{
   <insert_a_suppression_name_here>
   Helgrind:Race
   fun:_ZNKSt12__shared_ptrINSt13__future_base13_State_baseV2ELN9__gnu_cxx12_Lock_policyE2EEcvbEv
   fun:_ZNSt13__future_base13_State_baseV28_S_checkIS0_EEvRKSt10shared_ptrIT_E
   fun:_ZNSt7promiseIvE8_M_stateEv
   fun:_ZNSt7promiseIvE9set_valueEv
   fun:_ZN2tf8Topology18_carry_out_promiseEv
   fun:_ZN2tf8Executor19_tear_down_topologyERNS_6WorkerEPNS_8TopologyERPNS_4NodeE
   fun:_ZN2tf8Executor19_tear_down_nonasyncERNS_6WorkerEPNS_4NodeERS4_
   fun:_ZN2tf8Executor7_invokeERNS_6WorkerEPNS_4NodeE
   fun:_ZN2tf8Executor13_exploit_taskERNS_6WorkerERPNS_4NodeE
   fun:_ZZN2tf8Executor6_spawnEmSt10shared_ptrINS_15WorkerInterfaceEEENKUlvE_clEv
   fun:_ZSt13__invoke_implIvZN2tf8Executor6_spawnEmSt10shared_ptrINS0_15WorkerInterfaceEEEUlvE_JEET_St14__invoke_otherOT0_DpOT1_
   fun:_ZSt8__invokeIZN2tf8Executor6_spawnEmSt10shared_ptrINS0_15WorkerInterfaceEEEUlvE_JEENSt15__invoke_resultIT_JDpT0_EE4typeEOS7_DpOS8_
}
{
   <insert_a_suppression_name_here>
   Helgrind:Race
   fun:_ZNSt11_Tuple_implILm0EJPNSt13__future_base7_ResultIvEENS0_12_Result_base8_DeleterEEEC1EOS6_
   fun:_ZNSt5tupleIJPNSt13__future_base7_ResultIvEENS0_12_Result_base8_DeleterEEEC1EOS6_
   fun:_ZNSt15__uniq_ptr_implINSt13__future_base7_ResultIvEENS0_12_Result_base8_DeleterEEC1EOS5_
   fun:_ZNSt15__uniq_ptr_dataINSt13__future_base7_ResultIvEENS0_12_Result_base8_DeleterELb1ELb1EEC1EOS5_
   fun:_ZNSt10unique_ptrINSt13__future_base7_ResultIvEENS0_12_Result_base8_DeleterEEC1EOS5_
   fun:_ZNKSt13__future_base13_State_baseV27_SetterIvvEclEv
   fun:_ZSt13__invoke_implISt10unique_ptrINSt13__future_base7_ResultIvEENS1_12_Result_base8_DeleterEERNS1_13_State_baseV27_SetterIvvEEJEET_St14__invoke_otherOT0_DpOT1_
   fun:_ZSt10__invoke_rISt10unique_ptrINSt13__future_base12_Result_baseENS2_8_DeleterEERNS1_13_State_baseV27_SetterIvvEEJEENSt9enable_ifIX16is_invocable_r_vIT_T0_DpT1_EESA_E4typeEOSB_DpOSC_
   fun:_ZNSt17_Function_handlerIFSt10unique_ptrINSt13__future_base12_Result_baseENS2_8_DeleterEEvENS1_13_State_baseV27_SetterIvvEEE9_M_invokeERKSt9_Any_data
   fun:_ZNKSt8functionIFSt10unique_ptrINSt13__future_base12_Result_baseENS2_8_DeleterEEvEEclEv
   fun:_ZNSt13__future_base13_State_baseV29_M_do_setEPSt8functionIFSt10unique_ptrINS_12_Result_baseENS3_8_DeleterEEvEEPb
   fun:_ZSt13__invoke_implIvMNSt13__future_base13_State_baseV2EFvPSt8functionIFSt10unique_ptrINS0_12_Result_baseENS4_8_DeleterEEvEEPbEPS1_JS9_SA_EET_St21__invoke_memfun_derefOT0_OT1_DpOT2_
}
{
   <insert_a_suppression_name_here>
   Helgrind:Race
   fun:_ZNSt15__uniq_ptr_implINSt13__future_base7_ResultIvEENS0_12_Result_base8_DeleterEEC1EOS5_
   fun:_ZNSt15__uniq_ptr_dataINSt13__future_base7_ResultIvEENS0_12_Result_base8_DeleterELb1ELb1EEC1EOS5_
   fun:_ZNSt10unique_ptrINSt13__future_base7_ResultIvEENS0_12_Result_base8_DeleterEEC1EOS5_
   fun:_ZNKSt13__future_base13_State_baseV27_SetterIvvEclEv
   fun:_ZSt13__invoke_implISt10unique_ptrINSt13__future_base7_ResultIvEENS1_12_Result_base8_DeleterEERNS1_13_State_baseV27_SetterIvvEEJEET_St14__invoke_otherOT0_DpOT1_
   fun:_ZSt10__invoke_rISt10unique_ptrINSt13__future_base12_Result_baseENS2_8_DeleterEERNS1_13_State_baseV27_SetterIvvEEJEENSt9enable_ifIX16is_invocable_r_vIT_T0_DpT1_EESA_E4typeEOSB_DpOSC_
   fun:_ZNSt17_Function_handlerIFSt10unique_ptrINSt13__future_base12_Result_baseENS2_8_DeleterEEvENS1_13_State_baseV27_SetterIvvEEE9_M_invokeERKSt9_Any_data
   fun:_ZNKSt8functionIFSt10unique_ptrINSt13__future_base12_Result_baseENS2_8_DeleterEEvEEclEv
   fun:_ZNSt13__future_base13_State_baseV29_M_do_setEPSt8functionIFSt10unique_ptrINS_12_Result_baseENS3_8_DeleterEEvEEPb
   fun:_ZSt13__invoke_implIvMNSt13__future_base13_State_baseV2EFvPSt8functionIFSt10unique_ptrINS0_12_Result_baseENS4_8_DeleterEEvEEPbEPS1_JS9_SA_EET_St21__invoke_memfun_derefOT0_OT1_DpOT2_
   fun:_ZSt8__invokeIMNSt13__future_base13_State_baseV2EFvPSt8functionIFSt10unique_ptrINS0_12_Result_baseENS4_8_DeleterEEvEEPbEJPS1_S9_SA_EENSt15__invoke_resultIT_JDpT0_EE4typeEOSF_DpOSG_
   fun:_ZZSt9call_onceIMNSt13__future_base13_State_baseV2EFvPSt8functionIFSt10unique_ptrINS0_12_Result_baseENS4_8_DeleterEEvEEPbEJPS1_S9_SA_EEvRSt9once_flagOT_DpOT0_ENKUlvE_clEv
}
{
   <insert_a_suppression_name_here>
   Helgrind:Race
   fun:_ZSt4swapIPNSt13__future_base12_Result_baseEENSt9enable_ifIXsrSt6__and_IJSt6__not_ISt15__is_tuple_likeIT_EESt21is_move_constructibleIS7_ESt18is_move_assignableIS7_EEE5valueEvE4typeERS7_SH_
   fun:_ZNSt15__uniq_ptr_implINSt13__future_base12_Result_baseENS1_8_DeleterEE4swapERS3_
   fun:_ZNSt10unique_ptrINSt13__future_base12_Result_baseENS1_8_DeleterEE4swapERS3_
   fun:_ZNSt13__future_base13_State_baseV29_M_do_setEPSt8functionIFSt10unique_ptrINS_12_Result_baseENS3_8_DeleterEEvEEPb
   fun:_ZSt13__invoke_implIvMNSt13__future_base13_State_baseV2EFvPSt8functionIFSt10unique_ptrINS0_12_Result_baseENS4_8_DeleterEEvEEPbEPS1_JS9_SA_EET_St21__invoke_memfun_derefOT0_OT1_DpOT2_
   fun:_ZSt8__invokeIMNSt13__future_base13_State_baseV2EFvPSt8functionIFSt10unique_ptrINS0_12_Result_baseENS4_8_DeleterEEvEEPbEJPS1_S9_SA_EENSt15__invoke_resultIT_JDpT0_EE4typeEOSF_DpOSG_
   fun:_ZZSt9call_onceIMNSt13__future_base13_State_baseV2EFvPSt8functionIFSt10unique_ptrINS0_12_Result_baseENS4_8_DeleterEEvEEPbEJPS1_S9_SA_EEvRSt9once_flagOT_DpOT0_ENKUlvE_clEv
   fun:_ZZNSt9once_flag18_Prepare_executionC4IZSt9call_onceIMNSt13__future_base13_State_baseV2EFvPSt8functionIFSt10unique_ptrINS3_12_Result_baseENS7_8_DeleterEEvEEPbEJPS4_SC_SD_EEvRS_OT_DpOT0_EUlvE_EERSI_ENKUlvE_clEv
   fun:_ZZNSt9once_flag18_Prepare_executionC4IZSt9call_onceIMNSt13__future_base13_State_baseV2EFvPSt8functionIFSt10unique_ptrINS3_12_Result_baseENS7_8_DeleterEEvEEPbEJPS4_SC_SD_EEvRS_OT_DpOT0_EUlvE_EERSI_ENUlvE_4_FUNEv
   fun:__pthread_once_slow
   fun:_ZL14__gthread_oncePiPFvvE
   fun:_ZSt9call_onceIMNSt13__future_base13_State_baseV2EFvPSt8functionIFSt10unique_ptrINS0_12_Result_baseENS4_8_DeleterEEvEEPbEJPS1_S9_SA_EEvRSt9once_flagOT_DpOT0_
}
{
   <insert_a_suppression_name_here>
   Helgrind:Race
   fun:_ZSt4swapIPNSt13__future_base12_Result_baseEENSt9enable_ifIXsrSt6__and_IJSt6__not_ISt15__is_tuple_likeIT_EESt21is_move_constructibleIS7_ESt18is_move_assignableIS7_EEE5valueEvE4typeERS7_SH_
   fun:_ZNSt15__uniq_ptr_implINSt13__future_base12_Result_baseENS1_8_DeleterEE4swapERS3_
   fun:_ZNSt10unique_ptrINSt13__future_base12_Result_baseENS1_8_DeleterEE4swapERS3_
   fun:_ZNSt13__future_base13_State_baseV29_M_do_setEPSt8functionIFSt10unique_ptrINS_12_Result_baseENS3_8_DeleterEEvEEPb
   fun:_ZSt13__invoke_implIvMNSt13__future_base13_State_baseV2EFvPSt8functionIFSt10unique_ptrINS0_12_Result_baseENS4_8_DeleterEEvEEPbEPS1_JS9_SA_EET_St21__invoke_memfun_derefOT0_OT1_DpOT2_
   fun:_ZSt8__invokeIMNSt13__future_base13_State_baseV2EFvPSt8functionIFSt10unique_ptrINS0_12_Result_baseENS4_8_DeleterEEvEEPbEJPS1_S9_SA_EENSt15__invoke_resultIT_JDpT0_EE4typeEOSF_DpOSG_
   fun:_ZZSt9call_onceIMNSt13__future_base13_State_baseV2EFvPSt8functionIFSt10unique_ptrINS0_12_Result_baseENS4_8_DeleterEEvEEPbEJPS1_S9_SA_EEvRSt9once_flagOT_DpOT0_ENKUlvE_clEv
   fun:_ZZNSt9once_flag18_Prepare_executionC4IZSt9call_onceIMNSt13__future_base13_State_baseV2EFvPSt8functionIFSt10unique_ptrINS3_12_Result_baseENS7_8_DeleterEEvEEPbEJPS4_SC_SD_EEvRS_OT_DpOT0_EUlvE_EERSI_ENKUlvE_clEv
   fun:_ZZNSt9once_flag18_Prepare_executionC4IZSt9call_onceIMNSt13__future_base13_State_baseV2EFvPSt8functionIFSt10unique_ptrINS3_12_Result_baseENS7_8_DeleterEEvEEPbEJPS4_SC_SD_EEvRS_OT_DpOT0_EUlvE_EERSI_ENUlvE_4_FUNEv
   fun:__pthread_once_slow
   fun:_ZL14__gthread_oncePiPFvvE
   fun:_ZSt9call_onceIMNSt13__future_base13_State_baseV2EFvPSt8functionIFSt10unique_ptrINS0_12_Result_baseENS4_8_DeleterEEvEEPbEJPS1_S9_SA_EEvRSt9once_flagOT_DpOT0_
}
{
   <insert_a_suppression_name_here>
   Helgrind:Race
   fun:exchange
   fun:_M_store_notify_all
   fun:_ZNSt13__future_base13_State_baseV213_M_set_resultESt8functionIFSt10unique_ptrINS_12_Result_baseENS3_8_DeleterEEvEEb
   fun:_ZNSt7promiseIvE9set_valueEv
   fun:_ZN2tf8Topology18_carry_out_promiseEv
   fun:_ZN2tf8Executor19_tear_down_topologyERNS_6WorkerEPNS_8TopologyERPNS_4NodeE
   fun:_ZN2tf8Executor19_tear_down_nonasyncERNS_6WorkerEPNS_4NodeERS4_
   fun:_ZN2tf8Executor7_invokeERNS_6WorkerEPNS_4NodeE
   fun:_ZN2tf8Executor13_exploit_taskERNS_6WorkerERPNS_4NodeE
   fun:_ZZN2tf8Executor6_spawnEmSt10shared_ptrINS_15WorkerInterfaceEEENKUlvE_clEv
   fun:_ZSt13__invoke_implIvZN2tf8Executor6_spawnEmSt10shared_ptrINS0_15WorkerInterfaceEEEUlvE_JEET_St14__invoke_otherOT0_DpOT1_
   fun:_ZSt8__invokeIZN2tf8Executor6_spawnEmSt10shared_ptrINS0_15WorkerInterfaceEEEUlvE_JEENSt15__invoke_resultIT_JDpT0_EE4typeEOS7_DpOS8_
   fun:_ZNSt6thread8_InvokerISt5tupleIJZN2tf8Executor6_spawnEmSt10shared_ptrINS2_15WorkerInterfaceEEEUlvE_EEE9_M_invokeIJLm0EEEEvSt12_Index_tupleIJXspT_EEE
   fun:_ZNSt6thread8_InvokerISt5tupleIJZN2tf8Executor6_spawnEmSt10shared_ptrINS2_15WorkerInterfaceEEEUlvE_EEEclEv
}
{
   <insert_a_suppression_name_here>
   Helgrind:Race
   fun:_ZN2tf8Executor19_tear_down_topologyERNS_6WorkerEPNS_8TopologyERPNS_4NodeE
   fun:_ZN2tf8Executor19_tear_down_nonasyncERNS_6WorkerEPNS_4NodeERS4_
   fun:_ZN2tf8Executor7_invokeERNS_6WorkerEPNS_4NodeE
   fun:_ZN2tf8Executor13_exploit_taskERNS_6WorkerERPNS_4NodeE
   fun:_ZZN2tf8Executor6_spawnEmSt10shared_ptrINS_15WorkerInterfaceEEENKUlvE_clEv
   fun:_ZSt13__invoke_implIvZN2tf8Executor6_spawnEmSt10shared_ptrINS0_15WorkerInterfaceEEEUlvE_JEET_St14__invoke_otherOT0_DpOT1_
   fun:_ZSt8__invokeIZN2tf8Executor6_spawnEmSt10shared_ptrINS0_15WorkerInterfaceEEEUlvE_JEENSt15__invoke_resultIT_JDpT0_EE4typeEOS7_DpOS8_
   fun:_ZNSt6thread8_InvokerISt5tupleIJZN2tf8Executor6_spawnEmSt10shared_ptrINS2_15WorkerInterfaceEEEUlvE_EEE9_M_invokeIJLm0EEEEvSt12_Index_tupleIJXspT_EEE
   fun:_ZNSt6thread8_InvokerISt5tupleIJZN2tf8Executor6_spawnEmSt10shared_ptrINS2_15WorkerInterfaceEEEUlvE_EEEclEv
   fun:_ZNSt6thread11_State_implINS_8_InvokerISt5tupleIJZN2tf8Executor6_spawnEmSt10shared_ptrINS3_15WorkerInterfaceEEEUlvE_EEEEE6_M_runEv
   obj:/usr/lib/x86_64-linux-gnu/libstdc++.so.6.0.33
   obj:/usr/libexec/valgrind/vgpreload_helgrind-amd64-linux.so
}
{
   <insert_a_suppression_name_here>
   Helgrind:Race
   fun:fetch_sub
   fun:_ZN2tf8Executor19_tear_down_topologyERNS_6WorkerEPNS_8TopologyERPNS_4NodeE
   fun:_ZN2tf8Executor19_tear_down_nonasyncERNS_6WorkerEPNS_4NodeERS4_
   fun:_ZN2tf8Executor7_invokeERNS_6WorkerEPNS_4NodeE
   fun:_ZN2tf8Executor13_exploit_taskERNS_6WorkerERPNS_4NodeE
   fun:_ZZN2tf8Executor6_spawnEmSt10shared_ptrINS_15WorkerInterfaceEEENKUlvE_clEv
   fun:_ZSt13__invoke_implIvZN2tf8Executor6_spawnEmSt10shared_ptrINS0_15WorkerInterfaceEEEUlvE_JEET_St14__invoke_otherOT0_DpOT1_
   fun:_ZSt8__invokeIZN2tf8Executor6_spawnEmSt10shared_ptrINS0_15WorkerInterfaceEEEUlvE_JEENSt15__invoke_resultIT_JDpT0_EE4typeEOS7_DpOS8_
   fun:_ZNSt6thread8_InvokerISt5tupleIJZN2tf8Executor6_spawnEmSt10shared_ptrINS2_15WorkerInterfaceEEEUlvE_EEE9_M_invokeIJLm0EEEEvSt12_Index_tupleIJXspT_EEE
   fun:_ZNSt6thread8_InvokerISt5tupleIJZN2tf8Executor6_spawnEmSt10shared_ptrINS2_15WorkerInterfaceEEEUlvE_EEEclEv
   fun:_ZNSt6thread11_State_implINS_8_InvokerISt5tupleIJZN2tf8Executor6_spawnEmSt10shared_ptrINS3_15WorkerInterfaceEEEUlvE_EEEEE6_M_runEv
   obj:/usr/lib/x86_64-linux-gnu/libstdc++.so.6.0.33
   obj:/usr/libexec/valgrind/vgpreload_helgrind-amd64-linux.so
}
{
   <insert_a_suppression_name_here>
   Helgrind:Race
   fun:_ZNSt16_Sp_counted_baseILN9__gnu_cxx12_Lock_policyE2EE10_M_releaseEv
   fun:_ZNSt14__shared_countILN9__gnu_cxx12_Lock_policyE2EED1Ev
   fun:_ZNSt12__shared_ptrIN2tf8TopologyELN9__gnu_cxx12_Lock_policyE2EED1Ev
   fun:_ZNSt10shared_ptrIN2tf8TopologyEED1Ev
   fun:_ZN2tf8Executor19_tear_down_topologyERNS_6WorkerEPNS_8TopologyERPNS_4NodeE
   fun:_ZN2tf8Executor19_tear_down_nonasyncERNS_6WorkerEPNS_4NodeERS4_
   fun:_ZN2tf8Executor7_invokeERNS_6WorkerEPNS_4NodeE
   fun:_ZN2tf8Executor13_exploit_taskERNS_6WorkerERPNS_4NodeE
   fun:_ZZN2tf8Executor6_spawnEmSt10shared_ptrINS_15WorkerInterfaceEEENKUlvE_clEv
   fun:_ZSt13__invoke_implIvZN2tf8Executor6_spawnEmSt10shared_ptrINS0_15WorkerInterfaceEEEUlvE_JEET_St14__invoke_otherOT0_DpOT1_
   fun:_ZSt8__invokeIZN2tf8Executor6_spawnEmSt10shared_ptrINS0_15WorkerInterfaceEEEUlvE_JEENSt15__invoke_resultIT_JDpT0_EE4typeEOS7_DpOS8_
   fun:_ZNSt6thread8_InvokerISt5tupleIJZN2tf8Executor6_spawnEmSt10shared_ptrINS2_15WorkerInterfaceEEEUlvE_EEE9_M_invokeIJLm0EEEEvSt12_Index_tupleIJXspT_EEE
}
{
   <insert_a_suppression_name_here>
   Helgrind:Race
   fun:_ZN2tf8Executor25_invoke_runtime_task_implERNS_6WorkerEPNS_4NodeERSt8functionIFvRNS_7RuntimeEEE
   fun:_ZN2tf8Executor18_invoke_async_taskERNS_6WorkerEPNS_4NodeE
   fun:_ZN2tf8Executor7_invokeERNS_6WorkerEPNS_4NodeE
   fun:_ZN2tf8Executor13_exploit_taskERNS_6WorkerERPNS_4NodeE
   fun:_ZZN2tf8Executor6_spawnEmSt10shared_ptrINS_15WorkerInterfaceEEENKUlvE_clEv
   fun:_ZSt13__invoke_implIvZN2tf8Executor6_spawnEmSt10shared_ptrINS0_15WorkerInterfaceEEEUlvE_JEET_St14__invoke_otherOT0_DpOT1_
   fun:_ZSt8__invokeIZN2tf8Executor6_spawnEmSt10shared_ptrINS0_15WorkerInterfaceEEEUlvE_JEENSt15__invoke_resultIT_JDpT0_EE4typeEOS7_DpOS8_
   fun:_ZNSt6thread8_InvokerISt5tupleIJZN2tf8Executor6_spawnEmSt10shared_ptrINS2_15WorkerInterfaceEEEUlvE_EEE9_M_invokeIJLm0EEEEvSt12_Index_tupleIJXspT_EEE
   fun:_ZNSt6thread8_InvokerISt5tupleIJZN2tf8Executor6_spawnEmSt10shared_ptrINS2_15WorkerInterfaceEEEUlvE_EEEclEv
   fun:_ZNSt6thread11_State_implINS_8_InvokerISt5tupleIJZN2tf8Executor6_spawnEmSt10shared_ptrINS3_15WorkerInterfaceEEEUlvE_EEEEE6_M_runEv
   obj:/usr/lib/x86_64-linux-gnu/libstdc++.so.6.0.33
   obj:/usr/libexec/valgrind/vgpreload_helgrind-amd64-linux.so
}
{
   <insert_a_suppression_name_here>
   Helgrind:Race
   fun:_ZN2tf8Executor16_tear_down_asyncERNS_6WorkerEPNS_4NodeERS4_
   fun:_ZN2tf8Executor7_invokeERNS_6WorkerEPNS_4NodeE
   fun:_ZN2tf8Executor13_exploit_taskERNS_6WorkerERPNS_4NodeE
   fun:_ZZN2tf8Executor6_spawnEmSt10shared_ptrINS_15WorkerInterfaceEEENKUlvE_clEv
   fun:_ZSt13__invoke_implIvZN2tf8Executor6_spawnEmSt10shared_ptrINS0_15WorkerInterfaceEEEUlvE_JEET_St14__invoke_otherOT0_DpOT1_
   fun:_ZSt8__invokeIZN2tf8Executor6_spawnEmSt10shared_ptrINS0_15WorkerInterfaceEEEUlvE_JEENSt15__invoke_resultIT_JDpT0_EE4typeEOS7_DpOS8_
   fun:_ZNSt6thread8_InvokerISt5tupleIJZN2tf8Executor6_spawnEmSt10shared_ptrINS2_15WorkerInterfaceEEEUlvE_EEE9_M_invokeIJLm0EEEEvSt12_Index_tupleIJXspT_EEE
   fun:_ZNSt6thread8_InvokerISt5tupleIJZN2tf8Executor6_spawnEmSt10shared_ptrINS2_15WorkerInterfaceEEEUlvE_EEEclEv
   fun:_ZNSt6thread11_State_implINS_8_InvokerISt5tupleIJZN2tf8Executor6_spawnEmSt10shared_ptrINS3_15WorkerInterfaceEEEUlvE_EEEEE6_M_runEv
   obj:/usr/lib/x86_64-linux-gnu/libstdc++.so.6.0.33
   obj:/usr/libexec/valgrind/vgpreload_helgrind-amd64-linux.so
   fun:start_thread
}
{
   <insert_a_suppression_name_here>
   Helgrind:Race
   fun:_ZNSt10unique_ptrIN2tf4Node10SemaphoresESt14default_deleteIS2_EED1Ev
   fun:_ZN2tf4NodeD1Ev
   fun:recycle
   fun:_ZN2tf8Executor16_tear_down_asyncERNS_6WorkerEPNS_4NodeERS4_
   fun:_ZN2tf8Executor7_invokeERNS_6WorkerEPNS_4NodeE
   fun:_ZN2tf8Executor13_exploit_taskERNS_6WorkerERPNS_4NodeE
   fun:_ZZN2tf8Executor6_spawnEmSt10shared_ptrINS_15WorkerInterfaceEEENKUlvE_clEv
   fun:_ZSt13__invoke_implIvZN2tf8Executor6_spawnEmSt10shared_ptrINS0_15WorkerInterfaceEEEUlvE_JEET_St14__invoke_otherOT0_DpOT1_
   fun:_ZSt8__invokeIZN2tf8Executor6_spawnEmSt10shared_ptrINS0_15WorkerInterfaceEEEUlvE_JEENSt15__invoke_resultIT_JDpT0_EE4typeEOS7_DpOS8_
   fun:_ZNSt6thread8_InvokerISt5tupleIJZN2tf8Executor6_spawnEmSt10shared_ptrINS2_15WorkerInterfaceEEEUlvE_EEE9_M_invokeIJLm0EEEEvSt12_Index_tupleIJXspT_EEE
   fun:_ZNSt6thread8_InvokerISt5tupleIJZN2tf8Executor6_spawnEmSt10shared_ptrINS2_15WorkerInterfaceEEEUlvE_EEEclEv
   fun:_ZNSt6thread11_State_implINS_8_InvokerISt5tupleIJZN2tf8Executor6_spawnEmSt10shared_ptrINS3_15WorkerInterfaceEEEUlvE_EEEEE6_M_runEv
   obj:/usr/lib/x86_64-linux-gnu/libstdc++.so.6.0.33
}
{
   <insert_a_suppression_name_here>
   Helgrind:Race
   fun:_ZNSt10unique_ptrIN2tf4Node10SemaphoresESt14default_deleteIS2_EED1Ev
   fun:_ZN2tf4NodeD1Ev
   fun:recycle
   fun:_ZN2tf8Executor16_tear_down_asyncERNS_6WorkerEPNS_4NodeERS4_
   fun:_ZN2tf8Executor7_invokeERNS_6WorkerEPNS_4NodeE
   fun:_ZN2tf8Executor13_exploit_taskERNS_6WorkerERPNS_4NodeE
   fun:_ZZN2tf8Executor6_spawnEmSt10shared_ptrINS_15WorkerInterfaceEEENKUlvE_clEv
   fun:_ZSt13__invoke_implIvZN2tf8Executor6_spawnEmSt10shared_ptrINS0_15WorkerInterfaceEEEUlvE_JEET_St14__invoke_otherOT0_DpOT1_
   fun:_ZSt8__invokeIZN2tf8Executor6_spawnEmSt10shared_ptrINS0_15WorkerInterfaceEEEUlvE_JEENSt15__invoke_resultIT_JDpT0_EE4typeEOS7_DpOS8_
   fun:_ZNSt6thread8_InvokerISt5tupleIJZN2tf8Executor6_spawnEmSt10shared_ptrINS2_15WorkerInterfaceEEEUlvE_EEE9_M_invokeIJLm0EEEEvSt12_Index_tupleIJXspT_EEE
   fun:_ZNSt6thread8_InvokerISt5tupleIJZN2tf8Executor6_spawnEmSt10shared_ptrINS2_15WorkerInterfaceEEEUlvE_EEEclEv
   fun:_ZNSt6thread11_State_implINS_8_InvokerISt5tupleIJZN2tf8Executor6_spawnEmSt10shared_ptrINS3_15WorkerInterfaceEEEUlvE_EEEEE6_M_runEv
   obj:/usr/lib/x86_64-linux-gnu/libstdc++.so.6.0.33
}
{
   <insert_a_suppression_name_here>
   Helgrind:Race
   fun:_ZNSt14_Function_baseD1Ev
   fun:_ZNSt8functionIFvRN2tf7RuntimeEEED1Ev
   fun:_ZSt10destroy_atISt8functionIFvRN2tf7RuntimeEEEEvPT_
   fun:_ZSt8_DestroyISt8functionIFvRN2tf7RuntimeEEEEvPT_
   fun:_ZZNSt8__detail9__variant16_Variant_storageILb0EJSt8functionIFvvEES2_IFvRN2tf7RuntimeEEES2_IFvS7_bEEEE8_M_resetEvENUlOT_E_clIRS9_EEDaSE_
   fun:_ZSt13__invoke_implIvZNSt8__detail9__variant16_Variant_storageILb0EJSt8functionIFvvEES3_IFvRN2tf7RuntimeEEES3_IFvS8_bEEEE8_M_resetEvEUlOT_E_JRSA_EESE_St14__invoke_otherOT0_DpOT1_
   fun:_ZSt10__invoke_rIvZNSt8__detail9__variant16_Variant_storageILb0EJSt8functionIFvvEES3_IFvRN2tf7RuntimeEEES3_IFvS8_bEEEE8_M_resetEvEUlOT_E_JRSA_EENSt9enable_ifIX16is_invocable_r_vISE_T0_DpT1_EESE_E4typeEOSJ_DpOSK_
   fun:_ZNSt8__detail9__variant17__gen_vtable_implINS0_12_Multi_arrayIPFvOZNS0_16_Variant_storageILb0EJSt8functionIFvvEES4_IFvRN2tf7RuntimeEEES4_IFvS9_bEEEE8_M_resetEvEUlOT_E_RSt7variantIJS6_SB_SD_EEEJEEESt16integer_sequenceImJLm1EEEE14__visit_invokeESI_SL_
   fun:_ZSt10__do_visitIvZNSt8__detail9__variant16_Variant_storageILb0EJSt8functionIFvvEES3_IFvRN2tf7RuntimeEEES3_IFvS8_bEEEE8_M_resetEvEUlOT_E_JRSt7variantIJS5_SA_SC_EEEEDcOT0_DpOT1_
   fun:_ZNSt8__detail9__variant16_Variant_storageILb0EJSt8functionIFvvEES2_IFvRN2tf7RuntimeEEES2_IFvS7_bEEEE8_M_resetEv
   fun:_ZNSt8__detail9__variant16_Variant_storageILb0EJSt8functionIFvvEES2_IFvRN2tf7RuntimeEEES2_IFvS7_bEEEED1Ev
   fun:_ZNSt8__detail9__variant15_Copy_ctor_baseILb0EJSt8functionIFvvEES2_IFvRN2tf7RuntimeEEES2_IFvS7_bEEEED1Ev
}
{
   <insert_a_suppression_name_here>
   Helgrind:Race
   fun:_ZNSt14_Function_base13_Base_managerIZN2tf8Executor9run_untilIZNS2_5run_nIZNS2_3runEONS1_8TaskflowEEUlvE_EENS1_6FutureIvEES6_mOT_EUlvE_S7_EES9_S6_SB_OT0_EUlRNS1_7RuntimeEE_E10_M_destroyERSt9_Any_dataSt17integral_constantIbLb0EE
   fun:_ZNSt14_Function_base13_Base_managerIZN2tf8Executor9run_untilIZNS2_5run_nIZNS2_3runEONS1_8TaskflowEEUlvE_EENS1_6FutureIvEES6_mOT_EUlvE_S7_EES9_S6_SB_OT0_EUlRNS1_7RuntimeEE_E10_M_managerERSt9_Any_dataRKSJ_St18_Manager_operation
   fun:_ZNSt17_Function_handlerIFvRN2tf7RuntimeEEZNS0_8Executor9run_untilIZNS4_5run_nIZNS4_3runEONS0_8TaskflowEEUlvE_EENS0_6FutureIvEES8_mOT_EUlvE_S9_EESB_S8_SD_OT0_EUlS2_E_E10_M_managerERSt9_Any_dataRKSJ_St18_Manager_operation
   fun:_ZNSt14_Function_baseD1Ev
   fun:_ZNSt8functionIFvRN2tf7RuntimeEEED1Ev
   fun:_ZSt10destroy_atISt8functionIFvRN2tf7RuntimeEEEEvPT_
   fun:_ZSt8_DestroyISt8functionIFvRN2tf7RuntimeEEEEvPT_
   fun:_ZZNSt8__detail9__variant16_Variant_storageILb0EJSt8functionIFvvEES2_IFvRN2tf7RuntimeEEES2_IFvS7_bEEEE8_M_resetEvENUlOT_E_clIRS9_EEDaSE_
   fun:_ZSt13__invoke_implIvZNSt8__detail9__variant16_Variant_storageILb0EJSt8functionIFvvEES3_IFvRN2tf7RuntimeEEES3_IFvS8_bEEEE8_M_resetEvEUlOT_E_JRSA_EESE_St14__invoke_otherOT0_DpOT1_
   fun:_ZSt10__invoke_rIvZNSt8__detail9__variant16_Variant_storageILb0EJSt8functionIFvvEES3_IFvRN2tf7RuntimeEEES3_IFvS8_bEEEE8_M_resetEvEUlOT_E_JRSA_EENSt9enable_ifIX16is_invocable_r_vISE_T0_DpT1_EESE_E4typeEOSJ_DpOSK_
   fun:_ZNSt8__detail9__variant17__gen_vtable_implINS0_12_Multi_arrayIPFvOZNS0_16_Variant_storageILb0EJSt8functionIFvvEES4_IFvRN2tf7RuntimeEEES4_IFvS9_bEEEE8_M_resetEvEUlOT_E_RSt7variantIJS6_SB_SD_EEEJEEESt16integer_sequenceImJLm1EEEE14__visit_invokeESI_SL_
   fun:_ZSt10__do_visitIvZNSt8__detail9__variant16_Variant_storageILb0EJSt8functionIFvvEES3_IFvRN2tf7RuntimeEEES3_IFvS8_bEEEE8_M_resetEvEUlOT_E_JRSt7variantIJS5_SA_SC_EEEEDcOT0_DpOT1_
}
{
   <insert_a_suppression_name_here>
   Helgrind:Race
   fun:_ZNSt14__shared_countILN9__gnu_cxx12_Lock_policyE2EED1Ev
   fun:_ZNSt12__shared_ptrIN2tf8TopologyELN9__gnu_cxx12_Lock_policyE2EED1Ev
   fun:_ZNSt10shared_ptrIN2tf8TopologyEED1Ev
   fun:_ZZN2tf8Executor9run_untilIZNS0_5run_nIZNS0_3runEONS_8TaskflowEEUlvE_EENS_6FutureIvEES4_mOT_EUlvE_S5_EES7_S4_S9_OT0_ENUlRNS_7RuntimeEE_D1Ev
   fun:_ZNSt14_Function_base13_Base_managerIZN2tf8Executor9run_untilIZNS2_5run_nIZNS2_3runEONS1_8TaskflowEEUlvE_EENS1_6FutureIvEES6_mOT_EUlvE_S7_EES9_S6_SB_OT0_EUlRNS1_7RuntimeEE_E10_M_destroyERSt9_Any_dataSt17integral_constantIbLb0EE
   fun:_ZNSt14_Function_base13_Base_managerIZN2tf8Executor9run_untilIZNS2_5run_nIZNS2_3runEONS1_8TaskflowEEUlvE_EENS1_6FutureIvEES6_mOT_EUlvE_S7_EES9_S6_SB_OT0_EUlRNS1_7RuntimeEE_E10_M_managerERSt9_Any_dataRKSJ_St18_Manager_operation
   fun:_ZNSt17_Function_handlerIFvRN2tf7RuntimeEEZNS0_8Executor9run_untilIZNS4_5run_nIZNS4_3runEONS0_8TaskflowEEUlvE_EENS0_6FutureIvEES8_mOT_EUlvE_S9_EESB_S8_SD_OT0_EUlS2_E_E10_M_managerERSt9_Any_dataRKSJ_St18_Manager_operation
   fun:_ZNSt14_Function_baseD1Ev
   fun:_ZNSt8functionIFvRN2tf7RuntimeEEED1Ev
   fun:_ZSt10destroy_atISt8functionIFvRN2tf7RuntimeEEEEvPT_
   fun:_ZSt8_DestroyISt8functionIFvRN2tf7RuntimeEEEEvPT_
   fun:_ZZNSt8__detail9__variant16_Variant_storageILb0EJSt8functionIFvvEES2_IFvRN2tf7RuntimeEEES2_IFvS7_bEEEE8_M_resetEvENUlOT_E_clIRS9_EEDaSE_
}
{
   <insert_a_suppression_name_here>
   Helgrind:Race
   fun:_ZNSt16_Sp_counted_baseILN9__gnu_cxx12_Lock_policyE2EE19_M_release_last_useEv
   fun:_ZNSt16_Sp_counted_baseILN9__gnu_cxx12_Lock_policyE2EE24_M_release_last_use_coldEv
   fun:_ZNSt16_Sp_counted_baseILN9__gnu_cxx12_Lock_policyE2EE10_M_releaseEv
   fun:_ZNSt14__shared_countILN9__gnu_cxx12_Lock_policyE2EED1Ev
   fun:_ZNSt12__shared_ptrIN2tf8TopologyELN9__gnu_cxx12_Lock_policyE2EED1Ev
   fun:_ZNSt10shared_ptrIN2tf8TopologyEED1Ev
   fun:_ZZN2tf8Executor9run_untilIZNS0_5run_nIZNS0_3runEONS_8TaskflowEEUlvE_EENS_6FutureIvEES4_mOT_EUlvE_S5_EES7_S4_S9_OT0_ENUlRNS_7RuntimeEE_D1Ev
   fun:_ZNSt14_Function_base13_Base_managerIZN2tf8Executor9run_untilIZNS2_5run_nIZNS2_3runEONS1_8TaskflowEEUlvE_EENS1_6FutureIvEES6_mOT_EUlvE_S7_EES9_S6_SB_OT0_EUlRNS1_7RuntimeEE_E10_M_destroyERSt9_Any_dataSt17integral_constantIbLb0EE
   fun:_ZNSt14_Function_base13_Base_managerIZN2tf8Executor9run_untilIZNS2_5run_nIZNS2_3runEONS1_8TaskflowEEUlvE_EENS1_6FutureIvEES6_mOT_EUlvE_S7_EES9_S6_SB_OT0_EUlRNS1_7RuntimeEE_E10_M_managerERSt9_Any_dataRKSJ_St18_Manager_operation
   fun:_ZNSt17_Function_handlerIFvRN2tf7RuntimeEEZNS0_8Executor9run_untilIZNS4_5run_nIZNS4_3runEONS0_8TaskflowEEUlvE_EENS0_6FutureIvEES8_mOT_EUlvE_S9_EESB_S8_SD_OT0_EUlS2_E_E10_M_managerERSt9_Any_dataRKSJ_St18_Manager_operation
   fun:_ZNSt14_Function_baseD1Ev
   fun:_ZNSt8functionIFvRN2tf7RuntimeEEED1Ev
}
{
   <insert_a_suppression_name_here>
   Helgrind:Race
   fun:_ZNSt14_Function_baseD1Ev
   fun:_ZNSt8functionIFvvEED1Ev
   fun:_ZN2tf8TopologyD1Ev
   fun:_ZSt10destroy_atIN2tf8TopologyEEvPT_
   fun:_ZSt8_DestroyIN2tf8TopologyEEvPT_
   fun:destroy<tf::Topology>
   fun:_ZNSt23_Sp_counted_ptr_inplaceIN2tf8TopologyESaIvELN9__gnu_cxx12_Lock_policyE2EE10_M_disposeEv
   fun:_ZNSt16_Sp_counted_baseILN9__gnu_cxx12_Lock_policyE2EE19_M_release_last_useEv
   fun:_ZNSt16_Sp_counted_baseILN9__gnu_cxx12_Lock_policyE2EE24_M_release_last_use_coldEv
   fun:_ZNSt16_Sp_counted_baseILN9__gnu_cxx12_Lock_policyE2EE10_M_releaseEv
   fun:_ZNSt14__shared_countILN9__gnu_cxx12_Lock_policyE2EED1Ev
   fun:_ZNSt12__shared_ptrIN2tf8TopologyELN9__gnu_cxx12_Lock_policyE2EED1Ev
   fun:_ZNSt10shared_ptrIN2tf8TopologyEED1Ev
}
{
   <insert_a_suppression_name_here>
   Helgrind:Race
   fun:_ZNSt14_Function_baseD1Ev
   fun:_ZNSt8functionIFbvEED1Ev
   fun:_ZN2tf8TopologyD1Ev
   fun:_ZSt10destroy_atIN2tf8TopologyEEvPT_
   fun:_ZSt8_DestroyIN2tf8TopologyEEvPT_
   fun:destroy<tf::Topology>
   fun:_ZNSt23_Sp_counted_ptr_inplaceIN2tf8TopologyESaIvELN9__gnu_cxx12_Lock_policyE2EE10_M_disposeEv
   fun:_ZNSt16_Sp_counted_baseILN9__gnu_cxx12_Lock_policyE2EE19_M_release_last_useEv
   fun:_ZNSt16_Sp_counted_baseILN9__gnu_cxx12_Lock_policyE2EE24_M_release_last_use_coldEv
   fun:_ZNSt16_Sp_counted_baseILN9__gnu_cxx12_Lock_policyE2EE10_M_releaseEv
   fun:_ZNSt14__shared_countILN9__gnu_cxx12_Lock_policyE2EED1Ev
   fun:_ZNSt12__shared_ptrIN2tf8TopologyELN9__gnu_cxx12_Lock_policyE2EED1Ev
   fun:_ZNSt10shared_ptrIN2tf8TopologyEED1Ev
}
{
   <insert_a_suppression_name_here>
   Helgrind:Race
   fun:_ZNKSt14__shared_countILN9__gnu_cxx12_Lock_policyE2EE16_M_get_use_countEv
   fun:_ZNKSt14__shared_countILN9__gnu_cxx12_Lock_policyE2EE9_M_uniqueEv
   fun:_ZNKSt12__shared_ptrINSt13__future_base13_State_baseV2ELN9__gnu_cxx12_Lock_policyE2EE6uniqueEv
   fun:_ZNSt7promiseIvED1Ev
   fun:_ZN2tf8TopologyD1Ev
   fun:_ZSt10destroy_atIN2tf8TopologyEEvPT_
   fun:_ZSt8_DestroyIN2tf8TopologyEEvPT_
   fun:destroy<tf::Topology>
   fun:_ZNSt23_Sp_counted_ptr_inplaceIN2tf8TopologyESaIvELN9__gnu_cxx12_Lock_policyE2EE10_M_disposeEv
   fun:_ZNSt16_Sp_counted_baseILN9__gnu_cxx12_Lock_policyE2EE19_M_release_last_useEv
   fun:_ZNSt16_Sp_counted_baseILN9__gnu_cxx12_Lock_policyE2EE24_M_release_last_use_coldEv
   fun:_ZNSt16_Sp_counted_baseILN9__gnu_cxx12_Lock_policyE2EE10_M_releaseEv
   fun:_ZNSt14__shared_countILN9__gnu_cxx12_Lock_policyE2EED1Ev
}
{
   <insert_a_suppression_name_here>
   Helgrind:Race
   fun:_ZNKSt16_Sp_counted_baseILN9__gnu_cxx12_Lock_policyE2EE16_M_get_use_countEv
   fun:_ZNKSt14__shared_countILN9__gnu_cxx12_Lock_policyE2EE16_M_get_use_countEv
   fun:_ZNKSt14__shared_countILN9__gnu_cxx12_Lock_policyE2EE9_M_uniqueEv
   fun:_ZNKSt12__shared_ptrINSt13__future_base13_State_baseV2ELN9__gnu_cxx12_Lock_policyE2EE6uniqueEv
   fun:_ZNSt7promiseIvED1Ev
   fun:_ZN2tf8TopologyD1Ev
   fun:_ZSt10destroy_atIN2tf8TopologyEEvPT_
   fun:_ZSt8_DestroyIN2tf8TopologyEEvPT_
   fun:destroy<tf::Topology>
   fun:_ZNSt23_Sp_counted_ptr_inplaceIN2tf8TopologyESaIvELN9__gnu_cxx12_Lock_policyE2EE10_M_disposeEv
   fun:_ZNSt16_Sp_counted_baseILN9__gnu_cxx12_Lock_policyE2EE19_M_release_last_useEv
   fun:_ZNSt16_Sp_counted_baseILN9__gnu_cxx12_Lock_policyE2EE24_M_release_last_use_coldEv
   fun:_ZNSt16_Sp_counted_baseILN9__gnu_cxx12_Lock_policyE2EE10_M_releaseEv
}
{
   <insert_a_suppression_name_here>
   Helgrind:Race
   fun:__exchange_and_add
   fun:__exchange_and_add_dispatch
   fun:_ZNSt16_Sp_counted_baseILN9__gnu_cxx12_Lock_policyE2EE19_M_release_last_useEv
   fun:_ZNSt16_Sp_counted_baseILN9__gnu_cxx12_Lock_policyE2EE24_M_release_last_use_coldEv
   fun:_ZNSt16_Sp_counted_baseILN9__gnu_cxx12_Lock_policyE2EE10_M_releaseEv
   fun:_ZNSt14__shared_countILN9__gnu_cxx12_Lock_policyE2EED1Ev
   fun:_ZNSt12__shared_ptrIN2tf8TopologyELN9__gnu_cxx12_Lock_policyE2EED1Ev
   fun:_ZNSt10shared_ptrIN2tf8TopologyEED1Ev
   fun:_ZZN2tf8Executor9run_untilIZNS0_5run_nIZNS0_3runEONS_8TaskflowEEUlvE_EENS_6FutureIvEES4_mOT_EUlvE_S5_EES7_S4_S9_OT0_ENUlRNS_7RuntimeEE_D1Ev
   fun:_ZNSt14_Function_base13_Base_managerIZN2tf8Executor9run_untilIZNS2_5run_nIZNS2_3runEONS1_8TaskflowEEUlvE_EENS1_6FutureIvEES6_mOT_EUlvE_S7_EES9_S6_SB_OT0_EUlRNS1_7RuntimeEE_E10_M_destroyERSt9_Any_dataSt17integral_constantIbLb0EE
   fun:_ZNSt14_Function_base13_Base_managerIZN2tf8Executor9run_untilIZNS2_5run_nIZNS2_3runEONS1_8TaskflowEEUlvE_EENS1_6FutureIvEES6_mOT_EUlvE_S7_EES9_S6_SB_OT0_EUlRNS1_7RuntimeEE_E10_M_managerERSt9_Any_dataRKSJ_St18_Manager_operation
   fun:_ZNSt17_Function_handlerIFvRN2tf7RuntimeEEZNS0_8Executor9run_untilIZNS4_5run_nIZNS4_3runEONS0_8TaskflowEEUlvE_EENS0_6FutureIvEES8_mOT_EUlvE_S9_EESB_S8_SD_OT0_EUlS2_E_E10_M_managerERSt9_Any_dataRKSJ_St18_Manager_operation
   fun:_ZNSt14_Function_baseD1Ev
   fun:_ZNSt8functionIFvRN2tf7RuntimeEEED1Ev
}
{
   <insert_a_suppression_name_here>
   Helgrind:Race
   fun:_ZNSt10unique_ptrIN2tf8TaskflowESt14default_deleteIS1_EED1Ev
   fun:_ZN2tf3MoCISt10unique_ptrINS_8TaskflowESt14default_deleteIS2_EEED1Ev
   fun:_ZZN2tf8Executor9run_untilIZNS0_5run_nIZNS0_3runEONS_8TaskflowEEUlvE_EENS_6FutureIvEES4_mOT_EUlvE_S5_EES7_S4_S9_OT0_ENUlRNS_7RuntimeEE_D1Ev
   fun:_ZNSt14_Function_base13_Base_managerIZN2tf8Executor9run_untilIZNS2_5run_nIZNS2_3runEONS1_8TaskflowEEUlvE_EENS1_6FutureIvEES6_mOT_EUlvE_S7_EES9_S6_SB_OT0_EUlRNS1_7RuntimeEE_E10_M_destroyERSt9_Any_dataSt17integral_constantIbLb0EE
   fun:_ZNSt14_Function_base13_Base_managerIZN2tf8Executor9run_untilIZNS2_5run_nIZNS2_3runEONS1_8TaskflowEEUlvE_EENS1_6FutureIvEES6_mOT_EUlvE_S7_EES9_S6_SB_OT0_EUlRNS1_7RuntimeEE_E10_M_managerERSt9_Any_dataRKSJ_St18_Manager_operation
   fun:_ZNSt17_Function_handlerIFvRN2tf7RuntimeEEZNS0_8Executor9run_untilIZNS4_5run_nIZNS4_3runEONS0_8TaskflowEEUlvE_EENS0_6FutureIvEES8_mOT_EUlvE_S9_EESB_S8_SD_OT0_EUlS2_E_E10_M_managerERSt9_Any_dataRKSJ_St18_Manager_operation
   fun:_ZNSt14_Function_baseD1Ev
   fun:_ZNSt8functionIFvRN2tf7RuntimeEEED1Ev
   fun:_ZSt10destroy_atISt8functionIFvRN2tf7RuntimeEEEEvPT_
   fun:_ZSt8_DestroyISt8functionIFvRN2tf7RuntimeEEEEvPT_
   fun:_ZZNSt8__detail9__variant16_Variant_storageILb0EJSt8functionIFvvEES2_IFvRN2tf7RuntimeEEES2_IFvS7_bEEEE8_M_resetEvENUlOT_E_clIRS9_EEDaSE_
   fun:_ZSt13__invoke_implIvZNSt8__detail9__variant16_Variant_storageILb0EJSt8functionIFvvEES3_IFvRN2tf7RuntimeEEES3_IFvS8_bEEEE8_M_resetEvEUlOT_E_JRSA_EESE_St14__invoke_otherOT0_DpOT1_
}
{
   <insert_a_suppression_name_here>
   Helgrind:Race
   fun:_ZNSt15_Deque_iteratorISt10shared_ptrIN2tf8TopologyEERS3_PS3_EC1ERKS6_
   fun:_ZNSt5dequeISt10shared_ptrIN2tf8TopologyEESaIS3_EE3endEv
   fun:_ZNSt5dequeISt10shared_ptrIN2tf8TopologyEESaIS3_EED1Ev
   fun:_ZNSt5queueISt10shared_ptrIN2tf8TopologyEESt5dequeIS3_SaIS3_EEED1Ev
   fun:_ZN2tf8TaskflowD1Ev
   fun:_ZNKSt14default_deleteIN2tf8TaskflowEEclEPS1_
   fun:_ZNSt10unique_ptrIN2tf8TaskflowESt14default_deleteIS1_EED1Ev
   fun:_ZN2tf3MoCISt10unique_ptrINS_8TaskflowESt14default_deleteIS2_EEED1Ev
   fun:_ZZN2tf8Executor9run_untilIZNS0_5run_nIZNS0_3runEONS_8TaskflowEEUlvE_EENS_6FutureIvEES4_mOT_EUlvE_S5_EES7_S4_S9_OT0_ENUlRNS_7RuntimeEE_D1Ev
   fun:_ZNSt14_Function_base13_Base_managerIZN2tf8Executor9run_untilIZNS2_5run_nIZNS2_3runEONS1_8TaskflowEEUlvE_EENS1_6FutureIvEES6_mOT_EUlvE_S7_EES9_S6_SB_OT0_EUlRNS1_7RuntimeEE_E10_M_destroyERSt9_Any_dataSt17integral_constantIbLb0EE
   fun:_ZNSt14_Function_base13_Base_managerIZN2tf8Executor9run_untilIZNS2_5run_nIZNS2_3runEONS1_8TaskflowEEUlvE_EENS1_6FutureIvEES6_mOT_EUlvE_S7_EES9_S6_SB_OT0_EUlRNS1_7RuntimeEE_E10_M_managerERSt9_Any_dataRKSJ_St18_Manager_operation
   fun:_ZNSt17_Function_handlerIFvRN2tf7RuntimeEEZNS0_8Executor9run_untilIZNS4_5run_nIZNS4_3runEONS0_8TaskflowEEUlvE_EENS0_6FutureIvEES8_mOT_EUlvE_S9_EESB_S8_SD_OT0_EUlS2_E_E10_M_managerERSt9_Any_dataRKSJ_St18_Manager_operation
}
{
   <insert_a_suppression_name_here>
   Helgrind:Race
   fun:_ZNSt15_Deque_iteratorISt10shared_ptrIN2tf8TopologyEERS3_PS3_EC1ERKS6_
   fun:_ZNSt5dequeISt10shared_ptrIN2tf8TopologyEESaIS3_EE3endEv
   fun:_ZNSt5dequeISt10shared_ptrIN2tf8TopologyEESaIS3_EED1Ev
   fun:_ZNSt5queueISt10shared_ptrIN2tf8TopologyEESt5dequeIS3_SaIS3_EEED1Ev
   fun:_ZN2tf8TaskflowD1Ev
   fun:_ZNKSt14default_deleteIN2tf8TaskflowEEclEPS1_
   fun:_ZNSt10unique_ptrIN2tf8TaskflowESt14default_deleteIS1_EED1Ev
   fun:_ZN2tf3MoCISt10unique_ptrINS_8TaskflowESt14default_deleteIS2_EEED1Ev
   fun:_ZZN2tf8Executor9run_untilIZNS0_5run_nIZNS0_3runEONS_8TaskflowEEUlvE_EENS_6FutureIvEES4_mOT_EUlvE_S5_EES7_S4_S9_OT0_ENUlRNS_7RuntimeEE_D1Ev
   fun:_ZNSt14_Function_base13_Base_managerIZN2tf8Executor9run_untilIZNS2_5run_nIZNS2_3runEONS1_8TaskflowEEUlvE_EENS1_6FutureIvEES6_mOT_EUlvE_S7_EES9_S6_SB_OT0_EUlRNS1_7RuntimeEE_E10_M_destroyERSt9_Any_dataSt17integral_constantIbLb0EE
   fun:_ZNSt14_Function_base13_Base_managerIZN2tf8Executor9run_untilIZNS2_5run_nIZNS2_3runEONS1_8TaskflowEEUlvE_EENS1_6FutureIvEES6_mOT_EUlvE_S7_EES9_S6_SB_OT0_EUlRNS1_7RuntimeEE_E10_M_managerERSt9_Any_dataRKSJ_St18_Manager_operation
   fun:_ZNSt17_Function_handlerIFvRN2tf7RuntimeEEZNS0_8Executor9run_untilIZNS4_5run_nIZNS4_3runEONS0_8TaskflowEEUlvE_EENS0_6FutureIvEES8_mOT_EUlvE_S9_EESB_S8_SD_OT0_EUlS2_E_E10_M_managerERSt9_Any_dataRKSJ_St18_Manager_operation
}
{
   <insert_a_suppression_name_here>
   Helgrind:Race
   fun:_ZNSt15_Deque_iteratorISt10shared_ptrIN2tf8TopologyEERS3_PS3_EC1ERKS6_
   fun:_ZNSt5dequeISt10shared_ptrIN2tf8TopologyEESaIS3_EE3endEv
   fun:_ZNSt5dequeISt10shared_ptrIN2tf8TopologyEESaIS3_EED1Ev
   fun:_ZNSt5queueISt10shared_ptrIN2tf8TopologyEESt5dequeIS3_SaIS3_EEED1Ev
   fun:_ZN2tf8TaskflowD1Ev
   fun:_ZNKSt14default_deleteIN2tf8TaskflowEEclEPS1_
   fun:_ZNSt10unique_ptrIN2tf8TaskflowESt14default_deleteIS1_EED1Ev
   fun:_ZN2tf3MoCISt10unique_ptrINS_8TaskflowESt14default_deleteIS2_EEED1Ev
   fun:_ZZN2tf8Executor9run_untilIZNS0_5run_nIZNS0_3runEONS_8TaskflowEEUlvE_EENS_6FutureIvEES4_mOT_EUlvE_S5_EES7_S4_S9_OT0_ENUlRNS_7RuntimeEE_D1Ev
   fun:_ZNSt14_Function_base13_Base_managerIZN2tf8Executor9run_untilIZNS2_5run_nIZNS2_3runEONS1_8TaskflowEEUlvE_EENS1_6FutureIvEES6_mOT_EUlvE_S7_EES9_S6_SB_OT0_EUlRNS1_7RuntimeEE_E10_M_destroyERSt9_Any_dataSt17integral_constantIbLb0EE
   fun:_ZNSt14_Function_base13_Base_managerIZN2tf8Executor9run_untilIZNS2_5run_nIZNS2_3runEONS1_8TaskflowEEUlvE_EENS1_6FutureIvEES6_mOT_EUlvE_S7_EES9_S6_SB_OT0_EUlRNS1_7RuntimeEE_E10_M_managerERSt9_Any_dataRKSJ_St18_Manager_operation
   fun:_ZNSt17_Function_handlerIFvRN2tf7RuntimeEEZNS0_8Executor9run_untilIZNS4_5run_nIZNS4_3runEONS0_8TaskflowEEUlvE_EENS0_6FutureIvEES8_mOT_EUlvE_S9_EESB_S8_SD_OT0_EUlS2_E_E10_M_managerERSt9_Any_dataRKSJ_St18_Manager_operation
}
{
   <insert_a_suppression_name_here>
   Helgrind:Race
   fun:_ZNSt15_Deque_iteratorISt10shared_ptrIN2tf8TopologyEERS3_PS3_EC1ERKS6_
   fun:_ZNSt5dequeISt10shared_ptrIN2tf8TopologyEESaIS3_EE3endEv
   fun:_ZNSt5dequeISt10shared_ptrIN2tf8TopologyEESaIS3_EED1Ev
   fun:_ZNSt5queueISt10shared_ptrIN2tf8TopologyEESt5dequeIS3_SaIS3_EEED1Ev
   fun:_ZN2tf8TaskflowD1Ev
   fun:_ZNKSt14default_deleteIN2tf8TaskflowEEclEPS1_
   fun:_ZNSt10unique_ptrIN2tf8TaskflowESt14default_deleteIS1_EED1Ev
   fun:_ZN2tf3MoCISt10unique_ptrINS_8TaskflowESt14default_deleteIS2_EEED1Ev
   fun:_ZZN2tf8Executor9run_untilIZNS0_5run_nIZNS0_3runEONS_8TaskflowEEUlvE_EENS_6FutureIvEES4_mOT_EUlvE_S5_EES7_S4_S9_OT0_ENUlRNS_7RuntimeEE_D1Ev
   fun:_ZNSt14_Function_base13_Base_managerIZN2tf8Executor9run_untilIZNS2_5run_nIZNS2_3runEONS1_8TaskflowEEUlvE_EENS1_6FutureIvEES6_mOT_EUlvE_S7_EES9_S6_SB_OT0_EUlRNS1_7RuntimeEE_E10_M_destroyERSt9_Any_dataSt17integral_constantIbLb0EE
   fun:_ZNSt14_Function_base13_Base_managerIZN2tf8Executor9run_untilIZNS2_5run_nIZNS2_3runEONS1_8TaskflowEEUlvE_EENS1_6FutureIvEES6_mOT_EUlvE_S7_EES9_S6_SB_OT0_EUlRNS1_7RuntimeEE_E10_M_managerERSt9_Any_dataRKSJ_St18_Manager_operation
   fun:_ZNSt17_Function_handlerIFvRN2tf7RuntimeEEZNS0_8Executor9run_untilIZNS4_5run_nIZNS4_3runEONS0_8TaskflowEEUlvE_EENS0_6FutureIvEES8_mOT_EUlvE_S9_EESB_S8_SD_OT0_EUlS2_E_E10_M_managerERSt9_Any_dataRKSJ_St18_Manager_operation
}
{
   <insert_a_suppression_name_here>
   Helgrind:Race
   fun:_ZNSt15_Deque_iteratorISt10shared_ptrIN2tf8TopologyEERS3_PS3_EC1ERKS6_
   fun:_ZNSt5dequeISt10shared_ptrIN2tf8TopologyEESaIS3_EE5beginEv
   fun:_ZNSt5dequeISt10shared_ptrIN2tf8TopologyEESaIS3_EED1Ev
   fun:_ZNSt5queueISt10shared_ptrIN2tf8TopologyEESt5dequeIS3_SaIS3_EEED1Ev
   fun:_ZN2tf8TaskflowD1Ev
   fun:_ZNKSt14default_deleteIN2tf8TaskflowEEclEPS1_
   fun:_ZNSt10unique_ptrIN2tf8TaskflowESt14default_deleteIS1_EED1Ev
   fun:_ZN2tf3MoCISt10unique_ptrINS_8TaskflowESt14default_deleteIS2_EEED1Ev
   fun:_ZZN2tf8Executor9run_untilIZNS0_5run_nIZNS0_3runEONS_8TaskflowEEUlvE_EENS_6FutureIvEES4_mOT_EUlvE_S5_EES7_S4_S9_OT0_ENUlRNS_7RuntimeEE_D1Ev
   fun:_ZNSt14_Function_base13_Base_managerIZN2tf8Executor9run_untilIZNS2_5run_nIZNS2_3runEONS1_8TaskflowEEUlvE_EENS1_6FutureIvEES6_mOT_EUlvE_S7_EES9_S6_SB_OT0_EUlRNS1_7RuntimeEE_E10_M_destroyERSt9_Any_dataSt17integral_constantIbLb0EE
   fun:_ZNSt14_Function_base13_Base_managerIZN2tf8Executor9run_untilIZNS2_5run_nIZNS2_3runEONS1_8TaskflowEEUlvE_EENS1_6FutureIvEES6_mOT_EUlvE_S7_EES9_S6_SB_OT0_EUlRNS1_7RuntimeEE_E10_M_managerERSt9_Any_dataRKSJ_St18_Manager_operation
   fun:_ZNSt17_Function_handlerIFvRN2tf7RuntimeEEZNS0_8Executor9run_untilIZNS4_5run_nIZNS4_3runEONS0_8TaskflowEEUlvE_EENS0_6FutureIvEES8_mOT_EUlvE_S9_EESB_S8_SD_OT0_EUlS2_E_E10_M_managerERSt9_Any_dataRKSJ_St18_Manager_operation
}
{
   <insert_a_suppression_name_here>
   Helgrind:Race
   fun:_ZNSt15_Deque_iteratorISt10shared_ptrIN2tf8TopologyEERS3_PS3_EC1ERKS6_
   fun:_ZNSt5dequeISt10shared_ptrIN2tf8TopologyEESaIS3_EE5beginEv
   fun:_ZNSt5dequeISt10shared_ptrIN2tf8TopologyEESaIS3_EED1Ev
   fun:_ZNSt5queueISt10shared_ptrIN2tf8TopologyEESt5dequeIS3_SaIS3_EEED1Ev
   fun:_ZN2tf8TaskflowD1Ev
   fun:_ZNKSt14default_deleteIN2tf8TaskflowEEclEPS1_
   fun:_ZNSt10unique_ptrIN2tf8TaskflowESt14default_deleteIS1_EED1Ev
   fun:_ZN2tf3MoCISt10unique_ptrINS_8TaskflowESt14default_deleteIS2_EEED1Ev
   fun:_ZZN2tf8Executor9run_untilIZNS0_5run_nIZNS0_3runEONS_8TaskflowEEUlvE_EENS_6FutureIvEES4_mOT_EUlvE_S5_EES7_S4_S9_OT0_ENUlRNS_7RuntimeEE_D1Ev
   fun:_ZNSt14_Function_base13_Base_managerIZN2tf8Executor9run_untilIZNS2_5run_nIZNS2_3runEONS1_8TaskflowEEUlvE_EENS1_6FutureIvEES6_mOT_EUlvE_S7_EES9_S6_SB_OT0_EUlRNS1_7RuntimeEE_E10_M_destroyERSt9_Any_dataSt17integral_constantIbLb0EE
   fun:_ZNSt14_Function_base13_Base_managerIZN2tf8Executor9run_untilIZNS2_5run_nIZNS2_3runEONS1_8TaskflowEEUlvE_EENS1_6FutureIvEES6_mOT_EUlvE_S7_EES9_S6_SB_OT0_EUlRNS1_7RuntimeEE_E10_M_managerERSt9_Any_dataRKSJ_St18_Manager_operation
   fun:_ZNSt17_Function_handlerIFvRN2tf7RuntimeEEZNS0_8Executor9run_untilIZNS4_5run_nIZNS4_3runEONS0_8TaskflowEEUlvE_EENS0_6FutureIvEES8_mOT_EUlvE_S9_EESB_S8_SD_OT0_EUlS2_E_E10_M_managerERSt9_Any_dataRKSJ_St18_Manager_operation
}
{
   <insert_a_suppression_name_here>
   Helgrind:Race
   fun:_ZNSt15_Deque_iteratorISt10shared_ptrIN2tf8TopologyEERS3_PS3_EC1ERKS6_
   fun:_ZNSt5dequeISt10shared_ptrIN2tf8TopologyEESaIS3_EE5beginEv
   fun:_ZNSt5dequeISt10shared_ptrIN2tf8TopologyEESaIS3_EED1Ev
   fun:_ZNSt5queueISt10shared_ptrIN2tf8TopologyEESt5dequeIS3_SaIS3_EEED1Ev
   fun:_ZN2tf8TaskflowD1Ev
   fun:_ZNKSt14default_deleteIN2tf8TaskflowEEclEPS1_
   fun:_ZNSt10unique_ptrIN2tf8TaskflowESt14default_deleteIS1_EED1Ev
   fun:_ZN2tf3MoCISt10unique_ptrINS_8TaskflowESt14default_deleteIS2_EEED1Ev
   fun:_ZZN2tf8Executor9run_untilIZNS0_5run_nIZNS0_3runEONS_8TaskflowEEUlvE_EENS_6FutureIvEES4_mOT_EUlvE_S5_EES7_S4_S9_OT0_ENUlRNS_7RuntimeEE_D1Ev
   fun:_ZNSt14_Function_base13_Base_managerIZN2tf8Executor9run_untilIZNS2_5run_nIZNS2_3runEONS1_8TaskflowEEUlvE_EENS1_6FutureIvEES6_mOT_EUlvE_S7_EES9_S6_SB_OT0_EUlRNS1_7RuntimeEE_E10_M_destroyERSt9_Any_dataSt17integral_constantIbLb0EE
   fun:_ZNSt14_Function_base13_Base_managerIZN2tf8Executor9run_untilIZNS2_5run_nIZNS2_3runEONS1_8TaskflowEEUlvE_EENS1_6FutureIvEES6_mOT_EUlvE_S7_EES9_S6_SB_OT0_EUlRNS1_7RuntimeEE_E10_M_managerERSt9_Any_dataRKSJ_St18_Manager_operation
   fun:_ZNSt17_Function_handlerIFvRN2tf7RuntimeEEZNS0_8Executor9run_untilIZNS4_5run_nIZNS4_3runEONS0_8TaskflowEEUlvE_EENS0_6FutureIvEES8_mOT_EUlvE_S9_EESB_S8_SD_OT0_EUlS2_E_E10_M_managerERSt9_Any_dataRKSJ_St18_Manager_operation
}
{
   <insert_a_suppression_name_here>
   Helgrind:Race
   fun:_ZNSt11_Deque_baseISt10shared_ptrIN2tf8TopologyEESaIS3_EED1Ev
   fun:_ZNSt5dequeISt10shared_ptrIN2tf8TopologyEESaIS3_EED1Ev
   fun:_ZNSt5queueISt10shared_ptrIN2tf8TopologyEESt5dequeIS3_SaIS3_EEED1Ev
   fun:_ZN2tf8TaskflowD1Ev
   fun:_ZNKSt14default_deleteIN2tf8TaskflowEEclEPS1_
   fun:_ZNSt10unique_ptrIN2tf8TaskflowESt14default_deleteIS1_EED1Ev
   fun:_ZN2tf3MoCISt10unique_ptrINS_8TaskflowESt14default_deleteIS2_EEED1Ev
   fun:_ZZN2tf8Executor9run_untilIZNS0_5run_nIZNS0_3runEONS_8TaskflowEEUlvE_EENS_6FutureIvEES4_mOT_EUlvE_S5_EES7_S4_S9_OT0_ENUlRNS_7RuntimeEE_D1Ev
   fun:_ZNSt14_Function_base13_Base_managerIZN2tf8Executor9run_untilIZNS2_5run_nIZNS2_3runEONS1_8TaskflowEEUlvE_EENS1_6FutureIvEES6_mOT_EUlvE_S7_EES9_S6_SB_OT0_EUlRNS1_7RuntimeEE_E10_M_destroyERSt9_Any_dataSt17integral_constantIbLb0EE
   fun:_ZNSt14_Function_base13_Base_managerIZN2tf8Executor9run_untilIZNS2_5run_nIZNS2_3runEONS1_8TaskflowEEUlvE_EENS1_6FutureIvEES6_mOT_EUlvE_S7_EES9_S6_SB_OT0_EUlRNS1_7RuntimeEE_E10_M_managerERSt9_Any_dataRKSJ_St18_Manager_operation
   fun:_ZNSt17_Function_handlerIFvRN2tf7RuntimeEEZNS0_8Executor9run_untilIZNS4_5run_nIZNS4_3runEONS0_8TaskflowEEUlvE_EENS0_6FutureIvEES8_mOT_EUlvE_S9_EESB_S8_SD_OT0_EUlS2_E_E10_M_managerERSt9_Any_dataRKSJ_St18_Manager_operation
   fun:_ZNSt14_Function_baseD1Ev
}
{
   <insert_a_suppression_name_here>
   Helgrind:Race
   fun:_ZNSt11_Deque_baseISt10shared_ptrIN2tf8TopologyEESaIS3_EE16_M_destroy_nodesEPPS3_S7_
   fun:_ZNSt11_Deque_baseISt10shared_ptrIN2tf8TopologyEESaIS3_EED1Ev
   fun:_ZNSt5dequeISt10shared_ptrIN2tf8TopologyEESaIS3_EED1Ev
   fun:_ZNSt5queueISt10shared_ptrIN2tf8TopologyEESt5dequeIS3_SaIS3_EEED1Ev
   fun:_ZN2tf8TaskflowD1Ev
   fun:_ZNKSt14default_deleteIN2tf8TaskflowEEclEPS1_
   fun:_ZNSt10unique_ptrIN2tf8TaskflowESt14default_deleteIS1_EED1Ev
   fun:_ZN2tf3MoCISt10unique_ptrINS_8TaskflowESt14default_deleteIS2_EEED1Ev
   fun:_ZZN2tf8Executor9run_untilIZNS0_5run_nIZNS0_3runEONS_8TaskflowEEUlvE_EENS_6FutureIvEES4_mOT_EUlvE_S5_EES7_S4_S9_OT0_ENUlRNS_7RuntimeEE_D1Ev
   fun:_ZNSt14_Function_base13_Base_managerIZN2tf8Executor9run_untilIZNS2_5run_nIZNS2_3runEONS1_8TaskflowEEUlvE_EENS1_6FutureIvEES6_mOT_EUlvE_S7_EES9_S6_SB_OT0_EUlRNS1_7RuntimeEE_E10_M_destroyERSt9_Any_dataSt17integral_constantIbLb0EE
   fun:_ZNSt14_Function_base13_Base_managerIZN2tf8Executor9run_untilIZNS2_5run_nIZNS2_3runEONS1_8TaskflowEEUlvE_EENS1_6FutureIvEES6_mOT_EUlvE_S7_EES9_S6_SB_OT0_EUlRNS1_7RuntimeEE_E10_M_managerERSt9_Any_dataRKSJ_St18_Manager_operation
   fun:_ZNSt17_Function_handlerIFvRN2tf7RuntimeEEZNS0_8Executor9run_untilIZNS4_5run_nIZNS4_3runEONS0_8TaskflowEEUlvE_EENS0_6FutureIvEES8_mOT_EUlvE_S9_EESB_S8_SD_OT0_EUlS2_E_E10_M_managerERSt9_Any_dataRKSJ_St18_Manager_operation
}
{
   <insert_a_suppression_name_here>
   Helgrind:Race
   fun:_ZNSt11_Deque_baseISt10shared_ptrIN2tf8TopologyEESaIS3_EED1Ev
   fun:_ZNSt5dequeISt10shared_ptrIN2tf8TopologyEESaIS3_EED1Ev
   fun:_ZNSt5queueISt10shared_ptrIN2tf8TopologyEESt5dequeIS3_SaIS3_EEED1Ev
   fun:_ZN2tf8TaskflowD1Ev
   fun:_ZNKSt14default_deleteIN2tf8TaskflowEEclEPS1_
   fun:_ZNSt10unique_ptrIN2tf8TaskflowESt14default_deleteIS1_EED1Ev
   fun:_ZN2tf3MoCISt10unique_ptrINS_8TaskflowESt14default_deleteIS2_EEED1Ev
   fun:_ZZN2tf8Executor9run_untilIZNS0_5run_nIZNS0_3runEONS_8TaskflowEEUlvE_EENS_6FutureIvEES4_mOT_EUlvE_S5_EES7_S4_S9_OT0_ENUlRNS_7RuntimeEE_D1Ev
   fun:_ZNSt14_Function_base13_Base_managerIZN2tf8Executor9run_untilIZNS2_5run_nIZNS2_3runEONS1_8TaskflowEEUlvE_EENS1_6FutureIvEES6_mOT_EUlvE_S7_EES9_S6_SB_OT0_EUlRNS1_7RuntimeEE_E10_M_destroyERSt9_Any_dataSt17integral_constantIbLb0EE
   fun:_ZNSt14_Function_base13_Base_managerIZN2tf8Executor9run_untilIZNS2_5run_nIZNS2_3runEONS1_8TaskflowEEUlvE_EENS1_6FutureIvEES6_mOT_EUlvE_S7_EES9_S6_SB_OT0_EUlRNS1_7RuntimeEE_E10_M_managerERSt9_Any_dataRKSJ_St18_Manager_operation
   fun:_ZNSt17_Function_handlerIFvRN2tf7RuntimeEEZNS0_8Executor9run_untilIZNS4_5run_nIZNS4_3runEONS0_8TaskflowEEUlvE_EENS0_6FutureIvEES8_mOT_EUlvE_S9_EESB_S8_SD_OT0_EUlS2_E_E10_M_managerERSt9_Any_dataRKSJ_St18_Manager_operation
   fun:_ZNSt14_Function_baseD1Ev
}
{
   <insert_a_suppression_name_here>
   Helgrind:Race
   fun:_ZN2tf5Graph5clearEv
   fun:_ZN2tf5GraphD1Ev
   fun:_ZN2tf8TaskflowD1Ev
   fun:_ZNKSt14default_deleteIN2tf8TaskflowEEclEPS1_
   fun:_ZNSt10unique_ptrIN2tf8TaskflowESt14default_deleteIS1_EED1Ev
   fun:_ZN2tf3MoCISt10unique_ptrINS_8TaskflowESt14default_deleteIS2_EEED1Ev
   fun:_ZZN2tf8Executor9run_untilIZNS0_5run_nIZNS0_3runEONS_8TaskflowEEUlvE_EENS_6FutureIvEES4_mOT_EUlvE_S5_EES7_S4_S9_OT0_ENUlRNS_7RuntimeEE_D1Ev
   fun:_ZNSt14_Function_base13_Base_managerIZN2tf8Executor9run_untilIZNS2_5run_nIZNS2_3runEONS1_8TaskflowEEUlvE_EENS1_6FutureIvEES6_mOT_EUlvE_S7_EES9_S6_SB_OT0_EUlRNS1_7RuntimeEE_E10_M_destroyERSt9_Any_dataSt17integral_constantIbLb0EE
   fun:_ZNSt14_Function_base13_Base_managerIZN2tf8Executor9run_untilIZNS2_5run_nIZNS2_3runEONS1_8TaskflowEEUlvE_EENS1_6FutureIvEES6_mOT_EUlvE_S7_EES9_S6_SB_OT0_EUlRNS1_7RuntimeEE_E10_M_managerERSt9_Any_dataRKSJ_St18_Manager_operation
   fun:_ZNSt17_Function_handlerIFvRN2tf7RuntimeEEZNS0_8Executor9run_untilIZNS4_5run_nIZNS4_3runEONS0_8TaskflowEEUlvE_EENS0_6FutureIvEES8_mOT_EUlvE_S9_EESB_S8_SD_OT0_EUlS2_E_E10_M_managerERSt9_Any_dataRKSJ_St18_Manager_operation
   fun:_ZNSt14_Function_baseD1Ev
   fun:_ZNSt8functionIFvRN2tf7RuntimeEEED1Ev
}
{
   <insert_a_suppression_name_here>
   Helgrind:Race
   fun:_ZNKSt8__detail9__variant16_Variant_storageILb0EJSt9monostateN2tf4Node6StaticENS4_7RuntimeENS4_20NonpreemptiveRuntimeENS4_7SubflowENS4_9ConditionENS4_14MultiConditionENS4_6ModuleENS4_5AsyncENS4_14DependentAsyncEEE8_M_validEv
   fun:_ZNSt8__detail9__variant16_Variant_storageILb0EJSt9monostateN2tf4Node6StaticENS4_7RuntimeENS4_20NonpreemptiveRuntimeENS4_7SubflowENS4_9ConditionENS4_14MultiConditionENS4_6ModuleENS4_5AsyncENS4_14DependentAsyncEEE8_M_resetEv
   fun:_ZNSt8__detail9__variant16_Variant_storageILb0EJSt9monostateN2tf4Node6StaticENS4_7RuntimeENS4_20NonpreemptiveRuntimeENS4_7SubflowENS4_9ConditionENS4_14MultiConditionENS4_6ModuleENS4_5AsyncENS4_14DependentAsyncEEED1Ev
   fun:_ZNSt8__detail9__variant15_Copy_ctor_baseILb0EJSt9monostateN2tf4Node6StaticENS4_7RuntimeENS4_20NonpreemptiveRuntimeENS4_7SubflowENS4_9ConditionENS4_14MultiConditionENS4_6ModuleENS4_5AsyncENS4_14DependentAsyncEEED1Ev
   fun:_ZNSt8__detail9__variant15_Move_ctor_baseILb0EJSt9monostateN2tf4Node6StaticENS4_7RuntimeENS4_20NonpreemptiveRuntimeENS4_7SubflowENS4_9ConditionENS4_14MultiConditionENS4_6ModuleENS4_5AsyncENS4_14DependentAsyncEEED1Ev
   fun:_ZNSt8__detail9__variant17_Copy_assign_baseILb0EJSt9monostateN2tf4Node6StaticENS4_7RuntimeENS4_20NonpreemptiveRuntimeENS4_7SubflowENS4_9ConditionENS4_14MultiConditionENS4_6ModuleENS4_5AsyncENS4_14DependentAsyncEEED1Ev
   fun:_ZNSt8__detail9__variant17_Move_assign_baseILb0EJSt9monostateN2tf4Node6StaticENS4_7RuntimeENS4_20NonpreemptiveRuntimeENS4_7SubflowENS4_9ConditionENS4_14MultiConditionENS4_6ModuleENS4_5AsyncENS4_14DependentAsyncEEED1Ev
   fun:_ZNSt8__detail9__variant13_Variant_baseIJSt9monostateN2tf4Node6StaticENS4_7RuntimeENS4_20NonpreemptiveRuntimeENS4_7SubflowENS4_9ConditionENS4_14MultiConditionENS4_6ModuleENS4_5AsyncENS4_14DependentAsyncEEED1Ev
   fun:_ZNSt7variantIJSt9monostateN2tf4Node6StaticENS2_7RuntimeENS2_20NonpreemptiveRuntimeENS2_7SubflowENS2_9ConditionENS2_14MultiConditionENS2_6ModuleENS2_5AsyncENS2_14DependentAsyncEEED1Ev
   fun:_ZN2tf4NodeD1Ev
   fun:recycle
   fun:_ZN2tf5Graph5clearEv
   fun:_ZN2tf5GraphD1Ev
}
{
   <insert_a_suppression_name_here>
   Helgrind:Race
   fun:_ZNSt14_Function_base13_Base_managerIZZN4mpcf2ph10RipserTaskIdE9run_asyncERNS1_8ExecutorEENKUlRKSt6vectorImSaImEEE_clESB_EUlvE_E10_M_destroyERSt9_Any_dataSt17integral_constantIbLb0EE
   fun:_ZNSt14_Function_base13_Base_managerIZZN4mpcf2ph10RipserTaskIdE9run_asyncERNS1_8ExecutorEENKUlRKSt6vectorImSaImEEE_clESB_EUlvE_E10_M_managerERSt9_Any_dataRKSF_St18_Manager_operation
   fun:_ZNSt17_Function_handlerIFvvEZZN4mpcf2ph10RipserTaskIdE9run_asyncERNS1_8ExecutorEENKUlRKSt6vectorImSaImEEE_clESB_EUlvE_E10_M_managerERSt9_Any_dataRKSF_St18_Manager_operation
   fun:_ZNSt14_Function_baseD1Ev
   fun:_ZNSt8functionIFvvEED1Ev
   fun:_ZN2tf4Node6StaticD1Ev
   fun:_ZSt10destroy_atIN2tf4Node6StaticEEvPT_
   fun:_ZSt8_DestroyIN2tf4Node6StaticEEvPT_
   fun:_ZZNSt8__detail9__variant16_Variant_storageILb0EJSt9monostateN2tf4Node6StaticENS4_7RuntimeENS4_20NonpreemptiveRuntimeENS4_7SubflowENS4_9ConditionENS4_14MultiConditionENS4_6ModuleENS4_5AsyncENS4_14DependentAsyncEEE8_M_resetEvENUlOT_E_clIRS5_EEDaSG_
   fun:_ZSt13__invoke_implIvZNSt8__detail9__variant16_Variant_storageILb0EJSt9monostateN2tf4Node6StaticENS5_7RuntimeENS5_20NonpreemptiveRuntimeENS5_7SubflowENS5_9ConditionENS5_14MultiConditionENS5_6ModuleENS5_5AsyncENS5_14DependentAsyncEEE8_M_resetEvEUlOT_E_JRS6_EESG_St14__invoke_otherOT0_DpOT1_
   fun:_ZSt10__invoke_rIvZNSt8__detail9__variant16_Variant_storageILb0EJSt9monostateN2tf4Node6StaticENS5_7RuntimeENS5_20NonpreemptiveRuntimeENS5_7SubflowENS5_9ConditionENS5_14MultiConditionENS5_6ModuleENS5_5AsyncENS5_14DependentAsyncEEE8_M_resetEvEUlOT_E_JRS6_EENSt9enable_ifIX16is_invocable_r_vISG_T0_DpT1_EESG_E4typeEOSL_DpOSM_
   fun:_ZNSt8__detail9__variant17__gen_vtable_implINS0_12_Multi_arrayIPFvOZNS0_16_Variant_storageILb0EJSt9monostateN2tf4Node6StaticENS6_7RuntimeENS6_20NonpreemptiveRuntimeENS6_7SubflowENS6_9ConditionENS6_14MultiConditionENS6_6ModuleENS6_5AsyncENS6_14DependentAsyncEEE8_M_resetEvEUlOT_E_RSt7variantIJS4_S7_S8_S9_SA_SB_SC_SD_SE_SF_EEEJEEESt16integer_sequenceImJLm1EEEE14__visit_invokeESK_SN_
}
{
   <insert_a_suppression_name_here>
   Helgrind:Race
   fun:_ZNSt6vectorImSaImEED1Ev
   fun:_ZZZN4mpcf2ph10RipserTaskIdE9run_asyncERNS_8ExecutorEENKUlRKSt6vectorImSaImEEE_clES9_ENUlvE_D1Ev
   fun:_ZNSt14_Function_base13_Base_managerIZZN4mpcf2ph10RipserTaskIdE9run_asyncERNS1_8ExecutorEENKUlRKSt6vectorImSaImEEE_clESB_EUlvE_E10_M_destroyERSt9_Any_dataSt17integral_constantIbLb0EE
   fun:_ZNSt14_Function_base13_Base_managerIZZN4mpcf2ph10RipserTaskIdE9run_asyncERNS1_8ExecutorEENKUlRKSt6vectorImSaImEEE_clESB_EUlvE_E10_M_managerERSt9_Any_dataRKSF_St18_Manager_operation
   fun:_ZNSt17_Function_handlerIFvvEZZN4mpcf2ph10RipserTaskIdE9run_asyncERNS1_8ExecutorEENKUlRKSt6vectorImSaImEEE_clESB_EUlvE_E10_M_managerERSt9_Any_dataRKSF_St18_Manager_operation
   fun:_ZNSt14_Function_baseD1Ev
   fun:_ZNSt8functionIFvvEED1Ev
   fun:_ZN2tf4Node6StaticD1Ev
   fun:_ZSt10destroy_atIN2tf4Node6StaticEEvPT_
   fun:_ZSt8_DestroyIN2tf4Node6StaticEEvPT_
   fun:_ZZNSt8__detail9__variant16_Variant_storageILb0EJSt9monostateN2tf4Node6StaticENS4_7RuntimeENS4_20NonpreemptiveRuntimeENS4_7SubflowENS4_9ConditionENS4_14MultiConditionENS4_6ModuleENS4_5AsyncENS4_14DependentAsyncEEE8_M_resetEvENUlOT_E_clIRS5_EEDaSG_
   fun:_ZSt13__invoke_implIvZNSt8__detail9__variant16_Variant_storageILb0EJSt9monostateN2tf4Node6StaticENS5_7RuntimeENS5_20NonpreemptiveRuntimeENS5_7SubflowENS5_9ConditionENS5_14MultiConditionENS5_6ModuleENS5_5AsyncENS5_14DependentAsyncEEE8_M_resetEvEUlOT_E_JRS6_EESG_St14__invoke_otherOT0_DpOT1_
}
{
   <insert_a_suppression_name_here>
   Helgrind:Race
   fun:_ZNSt6vectorImSaImEED1Ev
   fun:_ZZZN4mpcf2ph10RipserTaskIdE9run_asyncERNS_8ExecutorEENKUlRKSt6vectorImSaImEEE_clES9_ENUlvE_D1Ev
   fun:_ZNSt14_Function_base13_Base_managerIZZN4mpcf2ph10RipserTaskIdE9run_asyncERNS1_8ExecutorEENKUlRKSt6vectorImSaImEEE_clESB_EUlvE_E10_M_destroyERSt9_Any_dataSt17integral_constantIbLb0EE
   fun:_ZNSt14_Function_base13_Base_managerIZZN4mpcf2ph10RipserTaskIdE9run_asyncERNS1_8ExecutorEENKUlRKSt6vectorImSaImEEE_clESB_EUlvE_E10_M_managerERSt9_Any_dataRKSF_St18_Manager_operation
   fun:_ZNSt17_Function_handlerIFvvEZZN4mpcf2ph10RipserTaskIdE9run_asyncERNS1_8ExecutorEENKUlRKSt6vectorImSaImEEE_clESB_EUlvE_E10_M_managerERSt9_Any_dataRKSF_St18_Manager_operation
   fun:_ZNSt14_Function_baseD1Ev
   fun:_ZNSt8functionIFvvEED1Ev
   fun:_ZN2tf4Node6StaticD1Ev
   fun:_ZSt10destroy_atIN2tf4Node6StaticEEvPT_
   fun:_ZSt8_DestroyIN2tf4Node6StaticEEvPT_
   fun:_ZZNSt8__detail9__variant16_Variant_storageILb0EJSt9monostateN2tf4Node6StaticENS4_7RuntimeENS4_20NonpreemptiveRuntimeENS4_7SubflowENS4_9ConditionENS4_14MultiConditionENS4_6ModuleENS4_5AsyncENS4_14DependentAsyncEEE8_M_resetEvENUlOT_E_clIRS5_EEDaSG_
   fun:_ZSt13__invoke_implIvZNSt8__detail9__variant16_Variant_storageILb0EJSt9monostateN2tf4Node6StaticENS5_7RuntimeENS5_20NonpreemptiveRuntimeENS5_7SubflowENS5_9ConditionENS5_14MultiConditionENS5_6ModuleENS5_5AsyncENS5_14DependentAsyncEEE8_M_resetEvEUlOT_E_JRS6_EESG_St14__invoke_otherOT0_DpOT1_
}
{
   <insert_a_suppression_name_here>
   Helgrind:Race
   fun:_ZNSt12_Vector_baseImSaImEED1Ev
   fun:_ZNSt6vectorImSaImEED1Ev
   fun:_ZZZN4mpcf2ph10RipserTaskIdE9run_asyncERNS_8ExecutorEENKUlRKSt6vectorImSaImEEE_clES9_ENUlvE_D1Ev
   fun:_ZNSt14_Function_base13_Base_managerIZZN4mpcf2ph10RipserTaskIdE9run_asyncERNS1_8ExecutorEENKUlRKSt6vectorImSaImEEE_clESB_EUlvE_E10_M_destroyERSt9_Any_dataSt17integral_constantIbLb0EE
   fun:_ZNSt14_Function_base13_Base_managerIZZN4mpcf2ph10RipserTaskIdE9run_asyncERNS1_8ExecutorEENKUlRKSt6vectorImSaImEEE_clESB_EUlvE_E10_M_managerERSt9_Any_dataRKSF_St18_Manager_operation
   fun:_ZNSt17_Function_handlerIFvvEZZN4mpcf2ph10RipserTaskIdE9run_asyncERNS1_8ExecutorEENKUlRKSt6vectorImSaImEEE_clESB_EUlvE_E10_M_managerERSt9_Any_dataRKSF_St18_Manager_operation
   fun:_ZNSt14_Function_baseD1Ev
   fun:_ZNSt8functionIFvvEED1Ev
   fun:_ZN2tf4Node6StaticD1Ev
   fun:_ZSt10destroy_atIN2tf4Node6StaticEEvPT_
   fun:_ZSt8_DestroyIN2tf4Node6StaticEEvPT_
   fun:_ZZNSt8__detail9__variant16_Variant_storageILb0EJSt9monostateN2tf4Node6StaticENS4_7RuntimeENS4_20NonpreemptiveRuntimeENS4_7SubflowENS4_9ConditionENS4_14MultiConditionENS4_6ModuleENS4_5AsyncENS4_14DependentAsyncEEE8_M_resetEvENUlOT_E_clIRS5_EEDaSG_
}
{
   <insert_a_suppression_name_here>
   Helgrind:Race
   fun:_ZNSt8__detail9__variant16_Variant_storageILb0EJSt9monostateN2tf4Node6StaticENS4_7RuntimeENS4_20NonpreemptiveRuntimeENS4_7SubflowENS4_9ConditionENS4_14MultiConditionENS4_6ModuleENS4_5AsyncENS4_14DependentAsyncEEE8_M_resetEv
   fun:_ZNSt8__detail9__variant16_Variant_storageILb0EJSt9monostateN2tf4Node6StaticENS4_7RuntimeENS4_20NonpreemptiveRuntimeENS4_7SubflowENS4_9ConditionENS4_14MultiConditionENS4_6ModuleENS4_5AsyncENS4_14DependentAsyncEEED1Ev
   fun:_ZNSt8__detail9__variant15_Copy_ctor_baseILb0EJSt9monostateN2tf4Node6StaticENS4_7RuntimeENS4_20NonpreemptiveRuntimeENS4_7SubflowENS4_9ConditionENS4_14MultiConditionENS4_6ModuleENS4_5AsyncENS4_14DependentAsyncEEED1Ev
   fun:_ZNSt8__detail9__variant15_Move_ctor_baseILb0EJSt9monostateN2tf4Node6StaticENS4_7RuntimeENS4_20NonpreemptiveRuntimeENS4_7SubflowENS4_9ConditionENS4_14MultiConditionENS4_6ModuleENS4_5AsyncENS4_14DependentAsyncEEED1Ev
   fun:_ZNSt8__detail9__variant17_Copy_assign_baseILb0EJSt9monostateN2tf4Node6StaticENS4_7RuntimeENS4_20NonpreemptiveRuntimeENS4_7SubflowENS4_9ConditionENS4_14MultiConditionENS4_6ModuleENS4_5AsyncENS4_14DependentAsyncEEED1Ev
   fun:_ZNSt8__detail9__variant17_Move_assign_baseILb0EJSt9monostateN2tf4Node6StaticENS4_7RuntimeENS4_20NonpreemptiveRuntimeENS4_7SubflowENS4_9ConditionENS4_14MultiConditionENS4_6ModuleENS4_5AsyncENS4_14DependentAsyncEEED1Ev
   fun:_ZNSt8__detail9__variant13_Variant_baseIJSt9monostateN2tf4Node6StaticENS4_7RuntimeENS4_20NonpreemptiveRuntimeENS4_7SubflowENS4_9ConditionENS4_14MultiConditionENS4_6ModuleENS4_5AsyncENS4_14DependentAsyncEEED1Ev
   fun:_ZNSt7variantIJSt9monostateN2tf4Node6StaticENS2_7RuntimeENS2_20NonpreemptiveRuntimeENS2_7SubflowENS2_9ConditionENS2_14MultiConditionENS2_6ModuleENS2_5AsyncENS2_14DependentAsyncEEED1Ev
   fun:_ZN2tf4NodeD1Ev
   fun:recycle
   fun:_ZN2tf5Graph5clearEv
   fun:_ZN2tf5GraphD1Ev
   fun:_ZN2tf8TaskflowD1Ev
}
{
   <insert_a_suppression_name_here>
   Helgrind:Race
   fun:_ZN2tf25SmallVectorTemplateCommonIPNS_4NodeEvE3endEv
   fun:_ZN2tf15SmallVectorImplIPNS_4NodeEED1Ev
   fun:_ZN2tf11SmallVectorIPNS_4NodeELj4EED1Ev
   fun:_ZN2tf4NodeD1Ev
   fun:recycle
   fun:_ZN2tf5Graph5clearEv
   fun:_ZN2tf5GraphD1Ev
   fun:_ZN2tf8TaskflowD1Ev
   fun:_ZNKSt14default_deleteIN2tf8TaskflowEEclEPS1_
   fun:_ZNSt10unique_ptrIN2tf8TaskflowESt14default_deleteIS1_EED1Ev
   fun:_ZN2tf3MoCISt10unique_ptrINS_8TaskflowESt14default_deleteIS2_EEED1Ev
   fun:_ZZN2tf8Executor9run_untilIZNS0_5run_nIZNS0_3runEONS_8TaskflowEEUlvE_EENS_6FutureIvEES4_mOT_EUlvE_S5_EES7_S4_S9_OT0_ENUlRNS_7RuntimeEE_D1Ev
   fun:_ZNSt14_Function_base13_Base_managerIZN2tf8Executor9run_untilIZNS2_5run_nIZNS2_3runEONS1_8TaskflowEEUlvE_EENS1_6FutureIvEES6_mOT_EUlvE_S7_EES9_S6_SB_OT0_EUlRNS1_7RuntimeEE_E10_M_destroyERSt9_Any_dataSt17integral_constantIbLb0EE
}
{
   <insert_a_suppression_name_here>
   Helgrind:Race
   fun:_ZN2tf25SmallVectorTemplateCommonIPNS_4NodeEvE5beginEv
   fun:_ZN2tf15SmallVectorImplIPNS_4NodeEED1Ev
   fun:_ZN2tf11SmallVectorIPNS_4NodeELj4EED1Ev
   fun:_ZN2tf4NodeD1Ev
   fun:recycle
   fun:_ZN2tf5Graph5clearEv
   fun:_ZN2tf5GraphD1Ev
   fun:_ZN2tf8TaskflowD1Ev
   fun:_ZNKSt14default_deleteIN2tf8TaskflowEEclEPS1_
   fun:_ZNSt10unique_ptrIN2tf8TaskflowESt14default_deleteIS1_EED1Ev
   fun:_ZN2tf3MoCISt10unique_ptrINS_8TaskflowESt14default_deleteIS2_EEED1Ev
   fun:_ZZN2tf8Executor9run_untilIZNS0_5run_nIZNS0_3runEONS_8TaskflowEEUlvE_EENS_6FutureIvEES4_mOT_EUlvE_S5_EES7_S4_S9_OT0_ENUlRNS_7RuntimeEE_D1Ev
   fun:_ZNSt14_Function_base13_Base_managerIZN2tf8Executor9run_untilIZNS2_5run_nIZNS2_3runEONS1_8TaskflowEEUlvE_EENS1_6FutureIvEES6_mOT_EUlvE_S7_EES9_S6_SB_OT0_EUlRNS1_7RuntimeEE_E10_M_destroyERSt9_Any_dataSt17integral_constantIbLb0EE
}
{
   <insert_a_suppression_name_here>
   Helgrind:Race
   fun:_ZNKSt7__cxx1112basic_stringIcSt11char_traitsIcESaIcEE7_M_dataEv
   fun:_ZNKSt7__cxx1112basic_stringIcSt11char_traitsIcESaIcEE11_M_is_localEv
   fun:_ZNSt7__cxx1112basic_stringIcSt11char_traitsIcESaIcEE10_M_disposeEv
   fun:_ZNSt7__cxx1112basic_stringIcSt11char_traitsIcESaIcEED1Ev
   fun:_ZN2tf4NodeD1Ev
   fun:recycle
   fun:_ZN2tf5Graph5clearEv
   fun:_ZN2tf5GraphD1Ev
   fun:_ZN2tf8TaskflowD1Ev
   fun:_ZNKSt14default_deleteIN2tf8TaskflowEEclEPS1_
   fun:_ZNSt10unique_ptrIN2tf8TaskflowESt14default_deleteIS1_EED1Ev
   fun:_ZN2tf3MoCISt10unique_ptrINS_8TaskflowESt14default_deleteIS2_EEED1Ev
   fun:_ZZN2tf8Executor9run_untilIZNS0_5run_nIZNS0_3runEONS_8TaskflowEEUlvE_EENS_6FutureIvEES4_mOT_EUlvE_S5_EES7_S4_S9_OT0_ENUlRNS_7RuntimeEE_D1Ev
}
{
   <insert_a_suppression_name_here>
   Helgrind:Race
   fun:_ZNKSt7__cxx1112basic_stringIcSt11char_traitsIcESaIcEE11_M_is_localEv
   fun:_ZNSt7__cxx1112basic_stringIcSt11char_traitsIcESaIcEE10_M_disposeEv
   fun:_ZNSt7__cxx1112basic_stringIcSt11char_traitsIcESaIcEED1Ev
   fun:_ZN2tf4NodeD1Ev
   fun:recycle
   fun:_ZN2tf5Graph5clearEv
   fun:_ZN2tf5GraphD1Ev
   fun:_ZN2tf8TaskflowD1Ev
   fun:_ZNKSt14default_deleteIN2tf8TaskflowEEclEPS1_
   fun:_ZNSt10unique_ptrIN2tf8TaskflowESt14default_deleteIS1_EED1Ev
   fun:_ZN2tf3MoCISt10unique_ptrINS_8TaskflowESt14default_deleteIS2_EEED1Ev
   fun:_ZZN2tf8Executor9run_untilIZNS0_5run_nIZNS0_3runEONS_8TaskflowEEUlvE_EENS_6FutureIvEES4_mOT_EUlvE_S5_EES7_S4_S9_OT0_ENUlRNS_7RuntimeEE_D1Ev
   fun:_ZNSt14_Function_base13_Base_managerIZN2tf8Executor9run_untilIZNS2_5run_nIZNS2_3runEONS1_8TaskflowEEUlvE_EENS1_6FutureIvEES6_mOT_EUlvE_S7_EES9_S6_SB_OT0_EUlRNS1_7RuntimeEE_E10_M_destroyERSt9_Any_dataSt17integral_constantIbLb0EE
}
{
   <insert_a_suppression_name_here>
   Helgrind:Race
   fun:_ZNSt15__exception_ptr13exception_ptrD1Ev
   fun:_ZN2tf8NodeBaseD1Ev
   fun:_ZN2tf4NodeD1Ev
   fun:recycle
   fun:_ZN2tf5Graph5clearEv
   fun:_ZN2tf5GraphD1Ev
   fun:_ZN2tf8TaskflowD1Ev
   fun:_ZNKSt14default_deleteIN2tf8TaskflowEEclEPS1_
   fun:_ZNSt10unique_ptrIN2tf8TaskflowESt14default_deleteIS1_EED1Ev
   fun:_ZN2tf3MoCISt10unique_ptrINS_8TaskflowESt14default_deleteIS2_EEED1Ev
   fun:_ZZN2tf8Executor9run_untilIZNS0_5run_nIZNS0_3runEONS_8TaskflowEEUlvE_EENS_6FutureIvEES4_mOT_EUlvE_S5_EES7_S4_S9_OT0_ENUlRNS_7RuntimeEE_D1Ev
   fun:_ZNSt14_Function_base13_Base_managerIZN2tf8Executor9run_untilIZNS2_5run_nIZNS2_3runEONS1_8TaskflowEEUlvE_EENS1_6FutureIvEES6_mOT_EUlvE_S7_EES9_S6_SB_OT0_EUlRNS1_7RuntimeEE_E10_M_destroyERSt9_Any_dataSt17integral_constantIbLb0EE
   fun:_ZNSt14_Function_base13_Base_managerIZN2tf8Executor9run_untilIZNS2_5run_nIZNS2_3runEONS1_8TaskflowEEUlvE_EENS1_6FutureIvEES6_mOT_EUlvE_S7_EES9_S6_SB_OT0_EUlRNS1_7RuntimeEE_E10_M_managerERSt9_Any_dataRKSJ_St18_Manager_operation
}
{
   <insert_a_suppression_name_here>
   Helgrind:Race
   fun:_ZNSt6vectorIPN2tf4NodeESaIS2_EE15_M_erase_at_endEPS2_
   fun:_ZNSt6vectorIPN2tf4NodeESaIS2_EE5clearEv
   fun:_ZN2tf5Graph5clearEv
   fun:_ZN2tf5GraphD1Ev
   fun:_ZN2tf8TaskflowD1Ev
   fun:_ZNKSt14default_deleteIN2tf8TaskflowEEclEPS1_
   fun:_ZNSt10unique_ptrIN2tf8TaskflowESt14default_deleteIS1_EED1Ev
   fun:_ZN2tf3MoCISt10unique_ptrINS_8TaskflowESt14default_deleteIS2_EEED1Ev
   fun:_ZZN2tf8Executor9run_untilIZNS0_5run_nIZNS0_3runEONS_8TaskflowEEUlvE_EENS_6FutureIvEES4_mOT_EUlvE_S5_EES7_S4_S9_OT0_ENUlRNS_7RuntimeEE_D1Ev
   fun:_ZNSt14_Function_base13_Base_managerIZN2tf8Executor9run_untilIZNS2_5run_nIZNS2_3runEONS1_8TaskflowEEUlvE_EENS1_6FutureIvEES6_mOT_EUlvE_S7_EES9_S6_SB_OT0_EUlRNS1_7RuntimeEE_E10_M_destroyERSt9_Any_dataSt17integral_constantIbLb0EE
   fun:_ZNSt14_Function_base13_Base_managerIZN2tf8Executor9run_untilIZNS2_5run_nIZNS2_3runEONS1_8TaskflowEEUlvE_EENS1_6FutureIvEES6_mOT_EUlvE_S7_EES9_S6_SB_OT0_EUlRNS1_7RuntimeEE_E10_M_managerERSt9_Any_dataRKSJ_St18_Manager_operation
   fun:_ZNSt17_Function_handlerIFvRN2tf7RuntimeEEZNS0_8Executor9run_untilIZNS4_5run_nIZNS4_3runEONS0_8TaskflowEEUlvE_EENS0_6FutureIvEES8_mOT_EUlvE_S9_EESB_S8_SD_OT0_EUlS2_E_E10_M_managerERSt9_Any_dataRKSJ_St18_Manager_operation
}
{
   <insert_a_suppression_name_here>
   Helgrind:Race
   fun:_ZNSt12_Vector_baseIPN2tf4NodeESaIS2_EED1Ev
   fun:_ZNSt6vectorIPN2tf4NodeESaIS2_EED1Ev
   fun:_ZN2tf5GraphD1Ev
   fun:_ZN2tf8TaskflowD1Ev
   fun:_ZNKSt14default_deleteIN2tf8TaskflowEEclEPS1_
   fun:_ZNSt10unique_ptrIN2tf8TaskflowESt14default_deleteIS1_EED1Ev
   fun:_ZN2tf3MoCISt10unique_ptrINS_8TaskflowESt14default_deleteIS2_EEED1Ev
   fun:_ZZN2tf8Executor9run_untilIZNS0_5run_nIZNS0_3runEONS_8TaskflowEEUlvE_EENS_6FutureIvEES4_mOT_EUlvE_S5_EES7_S4_S9_OT0_ENUlRNS_7RuntimeEE_D1Ev
   fun:_ZNSt14_Function_base13_Base_managerIZN2tf8Executor9run_untilIZNS2_5run_nIZNS2_3runEONS1_8TaskflowEEUlvE_EENS1_6FutureIvEES6_mOT_EUlvE_S7_EES9_S6_SB_OT0_EUlRNS1_7RuntimeEE_E10_M_destroyERSt9_Any_dataSt17integral_constantIbLb0EE
   fun:_ZNSt14_Function_base13_Base_managerIZN2tf8Executor9run_untilIZNS2_5run_nIZNS2_3runEONS1_8TaskflowEEUlvE_EENS1_6FutureIvEES6_mOT_EUlvE_S7_EES9_S6_SB_OT0_EUlRNS1_7RuntimeEE_E10_M_managerERSt9_Any_dataRKSJ_St18_Manager_operation
   fun:_ZNSt17_Function_handlerIFvRN2tf7RuntimeEEZNS0_8Executor9run_untilIZNS4_5run_nIZNS4_3runEONS0_8TaskflowEEUlvE_EENS0_6FutureIvEES8_mOT_EUlvE_S9_EESB_S8_SD_OT0_EUlS2_E_E10_M_managerERSt9_Any_dataRKSJ_St18_Manager_operation
   fun:_ZNSt14_Function_baseD1Ev
}
{
   <insert_a_suppression_name_here>
   Helgrind:Race
   fun:_ZNSt10unique_ptrIN2tf8TaskflowESt14default_deleteIS1_EED1Ev
   fun:_ZN2tf3MoCISt10unique_ptrINS_8TaskflowESt14default_deleteIS2_EEED1Ev
   fun:_ZZN2tf8Executor9run_untilIZNS0_5run_nIZNS0_3runEONS_8TaskflowEEUlvE_EENS_6FutureIvEES4_mOT_EUlvE_S5_EES7_S4_S9_OT0_ENUlRNS_7RuntimeEE_D1Ev
   fun:_ZNSt14_Function_base13_Base_managerIZN2tf8Executor9run_untilIZNS2_5run_nIZNS2_3runEONS1_8TaskflowEEUlvE_EENS1_6FutureIvEES6_mOT_EUlvE_S7_EES9_S6_SB_OT0_EUlRNS1_7RuntimeEE_E10_M_destroyERSt9_Any_dataSt17integral_constantIbLb0EE
   fun:_ZNSt14_Function_base13_Base_managerIZN2tf8Executor9run_untilIZNS2_5run_nIZNS2_3runEONS1_8TaskflowEEUlvE_EENS1_6FutureIvEES6_mOT_EUlvE_S7_EES9_S6_SB_OT0_EUlRNS1_7RuntimeEE_E10_M_managerERSt9_Any_dataRKSJ_St18_Manager_operation
   fun:_ZNSt17_Function_handlerIFvRN2tf7RuntimeEEZNS0_8Executor9run_untilIZNS4_5run_nIZNS4_3runEONS0_8TaskflowEEUlvE_EENS0_6FutureIvEES8_mOT_EUlvE_S9_EESB_S8_SD_OT0_EUlS2_E_E10_M_managerERSt9_Any_dataRKSJ_St18_Manager_operation
   fun:_ZNSt14_Function_baseD1Ev
   fun:_ZNSt8functionIFvRN2tf7RuntimeEEED1Ev
   fun:_ZSt10destroy_atISt8functionIFvRN2tf7RuntimeEEEEvPT_
   fun:_ZSt8_DestroyISt8functionIFvRN2tf7RuntimeEEEEvPT_
   fun:_ZZNSt8__detail9__variant16_Variant_storageILb0EJSt8functionIFvvEES2_IFvRN2tf7RuntimeEEES2_IFvS7_bEEEE8_M_resetEvENUlOT_E_clIRS9_EEDaSE_
   fun:_ZSt13__invoke_implIvZNSt8__detail9__variant16_Variant_storageILb0EJSt8functionIFvvEES3_IFvRN2tf7RuntimeEEES3_IFvS8_bEEEE8_M_resetEvEUlOT_E_JRSA_EESE_St14__invoke_otherOT0_DpOT1_
}
{
   <insert_a_suppression_name_here>
   Helgrind:Race
   fun:_ZNSt8__detail9__variant16_Variant_storageILb0EJSt8functionIFvvEES2_IFvRN2tf7RuntimeEEES2_IFvS7_bEEEE8_M_resetEv
   fun:_ZNSt8__detail9__variant16_Variant_storageILb0EJSt8functionIFvvEES2_IFvRN2tf7RuntimeEEES2_IFvS7_bEEEED1Ev
   fun:_ZNSt8__detail9__variant15_Copy_ctor_baseILb0EJSt8functionIFvvEES2_IFvRN2tf7RuntimeEEES2_IFvS7_bEEEED1Ev
   fun:_ZNSt8__detail9__variant15_Move_ctor_baseILb0EJSt8functionIFvvEES2_IFvRN2tf7RuntimeEEES2_IFvS7_bEEEED1Ev
   fun:_ZNSt8__detail9__variant17_Copy_assign_baseILb0EJSt8functionIFvvEES2_IFvRN2tf7RuntimeEEES2_IFvS7_bEEEED1Ev
   fun:_ZNSt8__detail9__variant17_Move_assign_baseILb0EJSt8functionIFvvEES2_IFvRN2tf7RuntimeEEES2_IFvS7_bEEEED1Ev
   fun:_ZNSt8__detail9__variant13_Variant_baseIJSt8functionIFvvEES2_IFvRN2tf7RuntimeEEES2_IFvS7_bEEEED1Ev
   fun:_ZNSt7variantIJSt8functionIFvvEES0_IFvRN2tf7RuntimeEEES0_IFvS5_bEEEED1Ev
   fun:_ZN2tf4Node5AsyncD1Ev
   fun:_ZSt10destroy_atIN2tf4Node5AsyncEEvPT_
   fun:_ZSt8_DestroyIN2tf4Node5AsyncEEvPT_
   fun:_ZZNSt8__detail9__variant16_Variant_storageILb0EJSt9monostateN2tf4Node6StaticENS4_7RuntimeENS4_20NonpreemptiveRuntimeENS4_7SubflowENS4_9ConditionENS4_14MultiConditionENS4_6ModuleENS4_5AsyncENS4_14DependentAsyncEEE8_M_resetEvENUlOT_E_clIRSC_EEDaSG_
}
{
   <insert_a_suppression_name_here>
   Helgrind:Race
   fun:_PyParkingLot_UnparkAll
   obj:/usr/bin/python3.13
   obj:/usr/bin/python3.13
   obj:/usr/bin/python3.13
   fun:_PyObject_MakeTpCall
   obj:/usr/bin/python3.13
   obj:/usr/bin/python3.13
   fun:_PyObject_MakeTpCall
   obj:/usr/bin/python3.13
   obj:/usr/bin/python3.13
   fun:_PyObject_MakeTpCall
   obj:/usr/bin/python3.13
}
{
   <insert_a_suppression_name_here>
   Helgrind:Race
   fun:_PyParkingLot_UnparkAll
   obj:/usr/bin/python3.13
   obj:/usr/bin/python3.13
   obj:/usr/bin/python3.13
   fun:_PyObject_MakeTpCall
   obj:/usr/bin/python3.13
   obj:/usr/bin/python3.13
   fun:_PyObject_MakeTpCall
   obj:/usr/bin/python3.13
   obj:/usr/bin/python3.13
   fun:_PyObject_MakeTpCall
   obj:/usr/bin/python3.13
}
{
   <insert_a_suppression_name_here>
   Helgrind:Race
   fun:_PyParkingLot_UnparkAll
   obj:/usr/bin/python3.13
   obj:/usr/bin/python3.13
   obj:/usr/bin/python3.13
   fun:_PyObject_MakeTpCall
   obj:/usr/bin/python3.13
   obj:/usr/bin/python3.13
   fun:_PyObject_MakeTpCall
   obj:/usr/bin/python3.13
   obj:/usr/bin/python3.13
   fun:_PyObject_MakeTpCall
   obj:/usr/bin/python3.13
}
{
   <insert_a_suppression_name_here>
   Helgrind:Race
   fun:_PyParkingLot_UnparkAll
   obj:/usr/bin/python3.13
   obj:/usr/bin/python3.13
   obj:/usr/bin/python3.13
   fun:_PyObject_MakeTpCall
   obj:/usr/bin/python3.13
   obj:/usr/bin/python3.13
   fun:_PyObject_MakeTpCall
   obj:/usr/bin/python3.13
   obj:/usr/bin/python3.13
   fun:_PyObject_MakeTpCall
   obj:/usr/bin/python3.13
}
{
   <insert_a_suppression_name_here>
   Helgrind:Race
   fun:_PyParkingLot_UnparkAll
   obj:/usr/bin/python3.13
   obj:/usr/bin/python3.13
   obj:/usr/bin/python3.13
   fun:_PyObject_MakeTpCall
   obj:/usr/bin/python3.13
   obj:/usr/bin/python3.13
   fun:_PyObject_MakeTpCall
   obj:/usr/bin/python3.13
   obj:/usr/bin/python3.13
   fun:_PyObject_MakeTpCall
   obj:/usr/bin/python3.13
}
{
   <insert_a_suppression_name_here>
   Helgrind:Race
   fun:_PyParkingLot_UnparkAll
   obj:/usr/bin/python3.13
   obj:/usr/bin/python3.13
   obj:/usr/bin/python3.13
   fun:_PyObject_MakeTpCall
   obj:/usr/bin/python3.13
   obj:/usr/bin/python3.13
   fun:_PyObject_MakeTpCall
   obj:/usr/bin/python3.13
   obj:/usr/bin/python3.13
   fun:_PyObject_MakeTpCall
   obj:/usr/bin/python3.13
}
{
   <insert_a_suppression_name_here>
   Helgrind:Race
   fun:_PyParkingLot_UnparkAll
   obj:/usr/bin/python3.13
   obj:/usr/bin/python3.13
   obj:/usr/bin/python3.13
   fun:_PyObject_MakeTpCall
   obj:/usr/bin/python3.13
   obj:/usr/bin/python3.13
   fun:_PyObject_MakeTpCall
   obj:/usr/bin/python3.13
   obj:/usr/bin/python3.13
   fun:_PyObject_MakeTpCall
   obj:/usr/bin/python3.13
}
{
   <insert_a_suppression_name_here>
   Helgrind:Race
   fun:_PyParkingLot_UnparkAll
   obj:/usr/bin/python3.13
   obj:/usr/bin/python3.13
   obj:/usr/bin/python3.13
   fun:_PyObject_MakeTpCall
   obj:/usr/bin/python3.13
   obj:/usr/bin/python3.13
   fun:_PyObject_MakeTpCall
   obj:/usr/bin/python3.13
   obj:/usr/bin/python3.13
   fun:_PyObject_MakeTpCall
   obj:/usr/bin/python3.13
}
{
   <insert_a_suppression_name_here>
   Helgrind:Race
   fun:_PyParkingLot_UnparkAll
   obj:/usr/bin/python3.13
   obj:/usr/bin/python3.13
   obj:/usr/bin/python3.13
   fun:_PyObject_MakeTpCall
   obj:/usr/bin/python3.13
   obj:/usr/bin/python3.13
   fun:_PyObject_MakeTpCall
   obj:/usr/bin/python3.13
   obj:/usr/bin/python3.13
   fun:_PyObject_MakeTpCall
   obj:/usr/bin/python3.13
}
{
   <insert_a_suppression_name_here>
   Helgrind:Race
   fun:_PyParkingLot_UnparkAll
   obj:/usr/bin/python3.13
   obj:/usr/bin/python3.13
   obj:/usr/bin/python3.13
   fun:_PyObject_MakeTpCall
   obj:/usr/bin/python3.13
   obj:/usr/bin/python3.13
   fun:_PyObject_MakeTpCall
   obj:/usr/bin/python3.13
   obj:/usr/bin/python3.13
   fun:_PyObject_MakeTpCall
   obj:/usr/bin/python3.13
}
{
   <insert_a_suppression_name_here>
   Helgrind:Race
   fun:_PyParkingLot_UnparkAll
   obj:/usr/bin/python3.13
   obj:/usr/bin/python3.13
   obj:/usr/bin/python3.13
   fun:_PyObject_MakeTpCall
   obj:/usr/bin/python3.13
   obj:/usr/bin/python3.13
   fun:_PyObject_MakeTpCall
   obj:/usr/bin/python3.13
   obj:/usr/bin/python3.13
   fun:_PyObject_MakeTpCall
   obj:/usr/bin/python3.13
}
{
   <insert_a_suppression_name_here>
   Helgrind:Race
   fun:_ZNSt23_Sp_counted_ptr_inplaceIN2tf8TopologyESaIvELN9__gnu_cxx12_Lock_policyE2EED1Ev
   fun:_ZNSt23_Sp_counted_ptr_inplaceIN2tf8TopologyESaIvELN9__gnu_cxx12_Lock_policyE2EE10_M_destroyEv
   fun:_ZNSt16_Sp_counted_baseILN9__gnu_cxx12_Lock_policyE2EE15_M_weak_releaseEv
   fun:_ZNSt12__weak_countILN9__gnu_cxx12_Lock_policyE2EED1Ev
   fun:_ZNSt10__weak_ptrIN2tf8TopologyELN9__gnu_cxx12_Lock_policyE2EED1Ev
   fun:_ZNSt8weak_ptrIN2tf8TopologyEED1Ev
   fun:_ZN2tf6FutureIvED1Ev
   fun:_ZN4mpcf13StoppableTaskIvED1Ev
   fun:_ZN4mpcf2ph10RipserTaskIdED1Ev
   fun:_ZN4mpcf2ph10RipserTaskIdED0Ev
   fun:_ZNKSt14default_deleteIN4mpcf13StoppableTaskIvEEEclEPS2_
   fun:_ZNSt10unique_ptrIN4mpcf13StoppableTaskIvEESt14default_deleteIS2_EED1Ev
}
{
   <insert_a_suppression_name_here>
   Helgrind:Race
   fun:_ZNSt16_Sp_counted_baseILN9__gnu_cxx12_Lock_policyE2EE10_M_releaseEv
   fun:_ZNSt14__shared_countILN9__gnu_cxx12_Lock_policyE2EED1Ev
   fun:_ZNSt12__shared_ptrINSt13__future_base13_State_baseV2ELN9__gnu_cxx12_Lock_policyE2EED1Ev
   fun:_ZNSt10shared_ptrINSt13__future_base13_State_baseV2EED1Ev
   fun:_ZNSt14__basic_futureIvED1Ev
   fun:_ZNSt6futureIvED1Ev
   fun:_ZN2tf6FutureIvED1Ev
   fun:_ZN4mpcf13StoppableTaskIvED1Ev
   fun:_ZN4mpcf2ph10RipserTaskIdED1Ev
   fun:_ZN4mpcf2ph10RipserTaskIdED0Ev
   fun:_ZNKSt14default_deleteIN4mpcf13StoppableTaskIvEEEclEPS2_
   fun:_ZNSt10unique_ptrIN4mpcf13StoppableTaskIvEESt14default_deleteIS2_EED1Ev
}
{
   <insert_a_suppression_name_here>
   Helgrind:Race
   fun:_ZNSt16_Sp_counted_baseILN9__gnu_cxx12_Lock_policyE2EE10_M_releaseEv
   fun:_ZNSt14__shared_countILN9__gnu_cxx12_Lock_policyE2EED1Ev
   fun:_ZNSt12__shared_ptrINSt13__future_base13_State_baseV2ELN9__gnu_cxx12_Lock_policyE2EED1Ev
   fun:_ZNSt10shared_ptrINSt13__future_base13_State_baseV2EED1Ev
   fun:_ZNSt14__basic_futureIvED1Ev
   fun:_ZNSt6futureIvED1Ev
   fun:_ZN2tf6FutureIvED1Ev
   fun:_ZN4mpcf13StoppableTaskIvED1Ev
   fun:_ZN4mpcf2ph10RipserTaskIdED1Ev
   fun:_ZN4mpcf2ph10RipserTaskIdED0Ev
   fun:_ZNKSt14default_deleteIN4mpcf13StoppableTaskIvEEEclEPS2_
   fun:_ZNSt10unique_ptrIN4mpcf13StoppableTaskIvEESt14default_deleteIS2_EED1Ev
}
{
   <insert_a_suppression_name_here>
   Helgrind:Race
   fun:_ZNSt10unique_ptrINSt13__future_base12_Result_baseENS1_8_DeleterEED1Ev
   fun:_ZNSt13__future_base13_State_baseV2D1Ev
   fun:_ZSt10destroy_atINSt13__future_base13_State_baseV2EEvPT_
   fun:_ZSt8_DestroyINSt13__future_base13_State_baseV2EEvPT_
   fun:destroy<std::__future_base::_State_baseV2>
   fun:_ZNSt23_Sp_counted_ptr_inplaceINSt13__future_base13_State_baseV2ESaIvELN9__gnu_cxx12_Lock_policyE2EE10_M_disposeEv
   fun:_ZNSt16_Sp_counted_baseILN9__gnu_cxx12_Lock_policyE2EE10_M_releaseEv
   fun:_ZNSt14__shared_countILN9__gnu_cxx12_Lock_policyE2EED1Ev
   fun:_ZNSt12__shared_ptrINSt13__future_base13_State_baseV2ELN9__gnu_cxx12_Lock_policyE2EED1Ev
   fun:_ZNSt10shared_ptrINSt13__future_base13_State_baseV2EED1Ev
   fun:_ZNSt14__basic_futureIvED1Ev
   fun:_ZNSt6futureIvED1Ev
   fun:_ZN2tf6FutureIvED1Ev
}
{
   <insert_a_suppression_name_here>
   Helgrind:Race
   fun:_ZNSt10unique_ptrINSt13__future_base12_Result_baseENS1_8_DeleterEED1Ev
   fun:_ZNSt13__future_base13_State_baseV2D1Ev
   fun:_ZSt10destroy_atINSt13__future_base13_State_baseV2EEvPT_
   fun:_ZSt8_DestroyINSt13__future_base13_State_baseV2EEvPT_
   fun:destroy<std::__future_base::_State_baseV2>
   fun:_ZNSt23_Sp_counted_ptr_inplaceINSt13__future_base13_State_baseV2ESaIvELN9__gnu_cxx12_Lock_policyE2EE10_M_disposeEv
   fun:_ZNSt16_Sp_counted_baseILN9__gnu_cxx12_Lock_policyE2EE10_M_releaseEv
   fun:_ZNSt14__shared_countILN9__gnu_cxx12_Lock_policyE2EED1Ev
   fun:_ZNSt12__shared_ptrINSt13__future_base13_State_baseV2ELN9__gnu_cxx12_Lock_policyE2EED1Ev
   fun:_ZNSt10shared_ptrINSt13__future_base13_State_baseV2EED1Ev
   fun:_ZNSt14__basic_futureIvED1Ev
   fun:_ZNSt6futureIvED1Ev
   fun:_ZN2tf6FutureIvED1Ev
}
{
   <insert_a_suppression_name_here>
   Helgrind:Race
   fun:_ZNSt14_Function_base13_Base_managerIZZN4mpcf2ph10RipserTaskIfE9run_asyncERNS1_8ExecutorEENKUlRKSt6vectorImSaImEEE_clESB_EUlvE_E14_M_get_pointerERKSt9_Any_data
   fun:_ZNSt17_Function_handlerIFvvEZZN4mpcf2ph10RipserTaskIfE9run_asyncERNS1_8ExecutorEENKUlRKSt6vectorImSaImEEE_clESB_EUlvE_E9_M_invokeERKSt9_Any_data
   fun:_ZNKSt8functionIFvvEEclEv
   fun:_ZN2tf8Executor19_invoke_static_taskERNS_6WorkerEPNS_4NodeE
   fun:_ZN2tf8Executor7_invokeERNS_6WorkerEPNS_4NodeE
   fun:_ZN2tf8Executor13_exploit_taskERNS_6WorkerERPNS_4NodeE
   fun:_ZZN2tf8Executor6_spawnEmSt10shared_ptrINS_15WorkerInterfaceEEENKUlvE_clEv
   fun:_ZSt13__invoke_implIvZN2tf8Executor6_spawnEmSt10shared_ptrINS0_15WorkerInterfaceEEEUlvE_JEET_St14__invoke_otherOT0_DpOT1_
   fun:_ZSt8__invokeIZN2tf8Executor6_spawnEmSt10shared_ptrINS0_15WorkerInterfaceEEEUlvE_JEENSt15__invoke_resultIT_JDpT0_EE4typeEOS7_DpOS8_
   fun:_ZNSt6thread8_InvokerISt5tupleIJZN2tf8Executor6_spawnEmSt10shared_ptrINS2_15WorkerInterfaceEEEUlvE_EEE9_M_invokeIJLm0EEEEvSt12_Index_tupleIJXspT_EEE
   fun:_ZNSt6thread8_InvokerISt5tupleIJZN2tf8Executor6_spawnEmSt10shared_ptrINS2_15WorkerInterfaceEEEUlvE_EEEclEv
   fun:_ZNSt6thread11_State_implINS_8_InvokerISt5tupleIJZN2tf8Executor6_spawnEmSt10shared_ptrINS3_15WorkerInterfaceEEEUlvE_EEEEE6_M_runEv
}
{
   <insert_a_suppression_name_here>
   Helgrind:Race
   fun:_ZZZN4mpcf2ph10RipserTaskIfE9run_asyncERNS_8ExecutorEENKUlRKSt6vectorImSaImEEE_clES9_ENKUlvE_clEv
   fun:_ZSt13__invoke_implIvRZZN4mpcf2ph10RipserTaskIfE9run_asyncERNS0_8ExecutorEENKUlRKSt6vectorImSaImEEE_clESA_EUlvE_JEET_St14__invoke_otherOT0_DpOT1_
   fun:_ZSt10__invoke_rIvRZZN4mpcf2ph10RipserTaskIfE9run_asyncERNS0_8ExecutorEENKUlRKSt6vectorImSaImEEE_clESA_EUlvE_JEENSt9enable_ifIX16is_invocable_r_vIT_T0_DpT1_EESF_E4typeEOSG_DpOSH_
   fun:_ZNSt17_Function_handlerIFvvEZZN4mpcf2ph10RipserTaskIfE9run_asyncERNS1_8ExecutorEENKUlRKSt6vectorImSaImEEE_clESB_EUlvE_E9_M_invokeERKSt9_Any_data
   fun:_ZNKSt8functionIFvvEEclEv
   fun:_ZN2tf8Executor19_invoke_static_taskERNS_6WorkerEPNS_4NodeE
   fun:_ZN2tf8Executor7_invokeERNS_6WorkerEPNS_4NodeE
   fun:_ZN2tf8Executor13_exploit_taskERNS_6WorkerERPNS_4NodeE
   fun:_ZZN2tf8Executor6_spawnEmSt10shared_ptrINS_15WorkerInterfaceEEENKUlvE_clEv
   fun:_ZSt13__invoke_implIvZN2tf8Executor6_spawnEmSt10shared_ptrINS0_15WorkerInterfaceEEEUlvE_JEET_St14__invoke_otherOT0_DpOT1_
   fun:_ZSt8__invokeIZN2tf8Executor6_spawnEmSt10shared_ptrINS0_15WorkerInterfaceEEEUlvE_JEENSt15__invoke_resultIT_JDpT0_EE4typeEOS7_DpOS8_
   fun:_ZNSt6thread8_InvokerISt5tupleIJZN2tf8Executor6_spawnEmSt10shared_ptrINS2_15WorkerInterfaceEEEUlvE_EEE9_M_invokeIJLm0EEEEvSt12_Index_tupleIJXspT_EEE
}
{
   <insert_a_suppression_name_here>
   Helgrind:Race
   fun:load
   fun:_ZNKSt6atomicIbE4loadESt12memory_order
   fun:_ZNK4mpcf13StoppableTaskIvE14stop_requestedEv
   fun:_ZZZN4mpcf2ph10RipserTaskIfE9run_asyncERNS_8ExecutorEENKUlRKSt6vectorImSaImEEE_clES9_ENKUlvE_clEv
   fun:_ZSt13__invoke_implIvRZZN4mpcf2ph10RipserTaskIfE9run_asyncERNS0_8ExecutorEENKUlRKSt6vectorImSaImEEE_clESA_EUlvE_JEET_St14__invoke_otherOT0_DpOT1_
   fun:_ZSt10__invoke_rIvRZZN4mpcf2ph10RipserTaskIfE9run_asyncERNS0_8ExecutorEENKUlRKSt6vectorImSaImEEE_clESA_EUlvE_JEENSt9enable_ifIX16is_invocable_r_vIT_T0_DpT1_EESF_E4typeEOSG_DpOSH_
   fun:_ZNSt17_Function_handlerIFvvEZZN4mpcf2ph10RipserTaskIfE9run_asyncERNS1_8ExecutorEENKUlRKSt6vectorImSaImEEE_clESB_EUlvE_E9_M_invokeERKSt9_Any_data
   fun:_ZNKSt8functionIFvvEEclEv
   fun:_ZN2tf8Executor19_invoke_static_taskERNS_6WorkerEPNS_4NodeE
   fun:_ZN2tf8Executor7_invokeERNS_6WorkerEPNS_4NodeE
   fun:_ZN2tf8Executor13_exploit_taskERNS_6WorkerERPNS_4NodeE
   fun:_ZZN2tf8Executor6_spawnEmSt10shared_ptrINS_15WorkerInterfaceEEENKUlvE_clEv
   fun:_ZSt13__invoke_implIvZN2tf8Executor6_spawnEmSt10shared_ptrINS0_15WorkerInterfaceEEEUlvE_JEET_St14__invoke_otherOT0_DpOT1_
}
{
   <insert_a_suppression_name_here>
   Helgrind:Race
   fun:_ZZZN4mpcf2ph10RipserTaskIfE9run_asyncERNS_8ExecutorEENKUlRKSt6vectorImSaImEEE_clES9_ENKUlvE_clEv
   fun:_ZSt13__invoke_implIvRZZN4mpcf2ph10RipserTaskIfE9run_asyncERNS0_8ExecutorEENKUlRKSt6vectorImSaImEEE_clESA_EUlvE_JEET_St14__invoke_otherOT0_DpOT1_
   fun:_ZSt10__invoke_rIvRZZN4mpcf2ph10RipserTaskIfE9run_asyncERNS0_8ExecutorEENKUlRKSt6vectorImSaImEEE_clESA_EUlvE_JEENSt9enable_ifIX16is_invocable_r_vIT_T0_DpT1_EESF_E4typeEOSG_DpOSH_
   fun:_ZNSt17_Function_handlerIFvvEZZN4mpcf2ph10RipserTaskIfE9run_asyncERNS1_8ExecutorEENKUlRKSt6vectorImSaImEEE_clESB_EUlvE_E9_M_invokeERKSt9_Any_data
   fun:_ZNKSt8functionIFvvEEclEv
   fun:_ZN2tf8Executor19_invoke_static_taskERNS_6WorkerEPNS_4NodeE
   fun:_ZN2tf8Executor7_invokeERNS_6WorkerEPNS_4NodeE
   fun:_ZN2tf8Executor13_exploit_taskERNS_6WorkerERPNS_4NodeE
   fun:_ZZN2tf8Executor6_spawnEmSt10shared_ptrINS_15WorkerInterfaceEEENKUlvE_clEv
   fun:_ZSt13__invoke_implIvZN2tf8Executor6_spawnEmSt10shared_ptrINS0_15WorkerInterfaceEEEUlvE_JEET_St14__invoke_otherOT0_DpOT1_
   fun:_ZSt8__invokeIZN2tf8Executor6_spawnEmSt10shared_ptrINS0_15WorkerInterfaceEEEUlvE_JEENSt15__invoke_resultIT_JDpT0_EE4typeEOS7_DpOS8_
   fun:_ZNSt6thread8_InvokerISt5tupleIJZN2tf8Executor6_spawnEmSt10shared_ptrINS2_15WorkerInterfaceEEEUlvE_EEE9_M_invokeIJLm0EEEEvSt12_Index_tupleIJXspT_EEE
}
{
   <insert_a_suppression_name_here>
   Helgrind:Race
   fun:_ZZZN4mpcf2ph10RipserTaskIfE9run_asyncERNS_8ExecutorEENKUlRKSt6vectorImSaImEEE_clES9_ENKUlvE_clEv
   fun:_ZSt13__invoke_implIvRZZN4mpcf2ph10RipserTaskIfE9run_asyncERNS0_8ExecutorEENKUlRKSt6vectorImSaImEEE_clESA_EUlvE_JEET_St14__invoke_otherOT0_DpOT1_
   fun:_ZSt10__invoke_rIvRZZN4mpcf2ph10RipserTaskIfE9run_asyncERNS0_8ExecutorEENKUlRKSt6vectorImSaImEEE_clESA_EUlvE_JEENSt9enable_ifIX16is_invocable_r_vIT_T0_DpT1_EESF_E4typeEOSG_DpOSH_
   fun:_ZNSt17_Function_handlerIFvvEZZN4mpcf2ph10RipserTaskIfE9run_asyncERNS1_8ExecutorEENKUlRKSt6vectorImSaImEEE_clESB_EUlvE_E9_M_invokeERKSt9_Any_data
   fun:_ZNKSt8functionIFvvEEclEv
   fun:_ZN2tf8Executor19_invoke_static_taskERNS_6WorkerEPNS_4NodeE
   fun:_ZN2tf8Executor7_invokeERNS_6WorkerEPNS_4NodeE
   fun:_ZN2tf8Executor13_exploit_taskERNS_6WorkerERPNS_4NodeE
   fun:_ZZN2tf8Executor6_spawnEmSt10shared_ptrINS_15WorkerInterfaceEEENKUlvE_clEv
   fun:_ZSt13__invoke_implIvZN2tf8Executor6_spawnEmSt10shared_ptrINS0_15WorkerInterfaceEEEUlvE_JEET_St14__invoke_otherOT0_DpOT1_
   fun:_ZSt8__invokeIZN2tf8Executor6_spawnEmSt10shared_ptrINS0_15WorkerInterfaceEEEUlvE_JEENSt15__invoke_resultIT_JDpT0_EE4typeEOS7_DpOS8_
   fun:_ZNSt6thread8_InvokerISt5tupleIJZN2tf8Executor6_spawnEmSt10shared_ptrINS2_15WorkerInterfaceEEEUlvE_EEE9_M_invokeIJLm0EEEEvSt12_Index_tupleIJXspT_EEE
}
{
   <insert_a_suppression_name_here>
   Helgrind:Race
   fun:_ZZZN4mpcf2ph10RipserTaskIfE9run_asyncERNS_8ExecutorEENKUlRKSt6vectorImSaImEEE_clES9_ENKUlvE_clEv
   fun:_ZSt13__invoke_implIvRZZN4mpcf2ph10RipserTaskIfE9run_asyncERNS0_8ExecutorEENKUlRKSt6vectorImSaImEEE_clESA_EUlvE_JEET_St14__invoke_otherOT0_DpOT1_
   fun:_ZSt10__invoke_rIvRZZN4mpcf2ph10RipserTaskIfE9run_asyncERNS0_8ExecutorEENKUlRKSt6vectorImSaImEEE_clESA_EUlvE_JEENSt9enable_ifIX16is_invocable_r_vIT_T0_DpT1_EESF_E4typeEOSG_DpOSH_
   fun:_ZNSt17_Function_handlerIFvvEZZN4mpcf2ph10RipserTaskIfE9run_asyncERNS1_8ExecutorEENKUlRKSt6vectorImSaImEEE_clESB_EUlvE_E9_M_invokeERKSt9_Any_data
   fun:_ZNKSt8functionIFvvEEclEv
   fun:_ZN2tf8Executor19_invoke_static_taskERNS_6WorkerEPNS_4NodeE
   fun:_ZN2tf8Executor7_invokeERNS_6WorkerEPNS_4NodeE
   fun:_ZN2tf8Executor13_exploit_taskERNS_6WorkerERPNS_4NodeE
   fun:_ZZN2tf8Executor6_spawnEmSt10shared_ptrINS_15WorkerInterfaceEEENKUlvE_clEv
   fun:_ZSt13__invoke_implIvZN2tf8Executor6_spawnEmSt10shared_ptrINS0_15WorkerInterfaceEEEUlvE_JEET_St14__invoke_otherOT0_DpOT1_
   fun:_ZSt8__invokeIZN2tf8Executor6_spawnEmSt10shared_ptrINS0_15WorkerInterfaceEEEUlvE_JEENSt15__invoke_resultIT_JDpT0_EE4typeEOS7_DpOS8_
   fun:_ZNSt6thread8_InvokerISt5tupleIJZN2tf8Executor6_spawnEmSt10shared_ptrINS2_15WorkerInterfaceEEEUlvE_EEE9_M_invokeIJLm0EEEEvSt12_Index_tupleIJXspT_EEE
}
{
   <insert_a_suppression_name_here>
   Helgrind:Race
   fun:_ZN4mpcf2ph6detail41compute_persistence_euclidean_single_implIfEEvRKNS_6TensorINS3_IT_EEEERNS3_INS0_7BarcodeIS4_EEEEmRKSt6vectorImSaImEE
   fun:_ZZZN4mpcf2ph10RipserTaskIfE9run_asyncERNS_8ExecutorEENKUlRKSt6vectorImSaImEEE_clES9_ENKUlvE_clEv
   fun:_ZSt13__invoke_implIvRZZN4mpcf2ph10RipserTaskIfE9run_asyncERNS0_8ExecutorEENKUlRKSt6vectorImSaImEEE_clESA_EUlvE_JEET_St14__invoke_otherOT0_DpOT1_
   fun:_ZSt10__invoke_rIvRZZN4mpcf2ph10RipserTaskIfE9run_asyncERNS0_8ExecutorEENKUlRKSt6vectorImSaImEEE_clESA_EUlvE_JEENSt9enable_ifIX16is_invocable_r_vIT_T0_DpT1_EESF_E4typeEOSG_DpOSH_
   fun:_ZNSt17_Function_handlerIFvvEZZN4mpcf2ph10RipserTaskIfE9run_asyncERNS1_8ExecutorEENKUlRKSt6vectorImSaImEEE_clESB_EUlvE_E9_M_invokeERKSt9_Any_data
   fun:_ZNKSt8functionIFvvEEclEv
   fun:_ZN2tf8Executor19_invoke_static_taskERNS_6WorkerEPNS_4NodeE
   fun:_ZN2tf8Executor7_invokeERNS_6WorkerEPNS_4NodeE
   fun:_ZN2tf8Executor13_exploit_taskERNS_6WorkerERPNS_4NodeE
   fun:_ZZN2tf8Executor6_spawnEmSt10shared_ptrINS_15WorkerInterfaceEEENKUlvE_clEv
   fun:_ZSt13__invoke_implIvZN2tf8Executor6_spawnEmSt10shared_ptrINS0_15WorkerInterfaceEEEUlvE_JEET_St14__invoke_otherOT0_DpOT1_
   fun:_ZSt8__invokeIZN2tf8Executor6_spawnEmSt10shared_ptrINS0_15WorkerInterfaceEEEUlvE_JEENSt15__invoke_resultIT_JDpT0_EE4typeEOS7_DpOS8_
}
{
   <insert_a_suppression_name_here>
   Helgrind:Race
   fun:_ZNK4mpcf6TensorINS0_IfEEE19index_to_data_indexERKSt6vectorImSaImEE
   fun:_ZNK4mpcf6TensorINS0_IfEEE12index_to_refERKSt6vectorImSaImEE
   fun:_ZNK4mpcf6TensorINS0_IfEEEclERKSt6vectorImSaImEE
   fun:_ZN4mpcf2ph6detail41compute_persistence_euclidean_single_implIfEEvRKNS_6TensorINS3_IT_EEEERNS3_INS0_7BarcodeIS4_EEEEmRKSt6vectorImSaImEE
   fun:_ZZZN4mpcf2ph10RipserTaskIfE9run_asyncERNS_8ExecutorEENKUlRKSt6vectorImSaImEEE_clES9_ENKUlvE_clEv
   fun:_ZSt13__invoke_implIvRZZN4mpcf2ph10RipserTaskIfE9run_asyncERNS0_8ExecutorEENKUlRKSt6vectorImSaImEEE_clESA_EUlvE_JEET_St14__invoke_otherOT0_DpOT1_
   fun:_ZSt10__invoke_rIvRZZN4mpcf2ph10RipserTaskIfE9run_asyncERNS0_8ExecutorEENKUlRKSt6vectorImSaImEEE_clESA_EUlvE_JEENSt9enable_ifIX16is_invocable_r_vIT_T0_DpT1_EESF_E4typeEOSG_DpOSH_
   fun:_ZNSt17_Function_handlerIFvvEZZN4mpcf2ph10RipserTaskIfE9run_asyncERNS1_8ExecutorEENKUlRKSt6vectorImSaImEEE_clESB_EUlvE_E9_M_invokeERKSt9_Any_data
   fun:_ZNKSt8functionIFvvEEclEv
   fun:_ZN2tf8Executor19_invoke_static_taskERNS_6WorkerEPNS_4NodeE
   fun:_ZN2tf8Executor7_invokeERNS_6WorkerEPNS_4NodeE
   fun:_ZN2tf8Executor13_exploit_taskERNS_6WorkerERPNS_4NodeE
}
{
   <insert_a_suppression_name_here>
   Helgrind:Race
   fun:_ZSt13inner_productIN9__gnu_cxx17__normal_iteratorIPKmSt6vectorImSaImEEEES7_mET1_T_S9_T0_S8_
   fun:_ZNK4mpcf6TensorINS0_IfEEE19index_to_data_indexERKSt6vectorImSaImEE
   fun:_ZNK4mpcf6TensorINS0_IfEEE12index_to_refERKSt6vectorImSaImEE
   fun:_ZNK4mpcf6TensorINS0_IfEEEclERKSt6vectorImSaImEE
   fun:_ZN4mpcf2ph6detail41compute_persistence_euclidean_single_implIfEEvRKNS_6TensorINS3_IT_EEEERNS3_INS0_7BarcodeIS4_EEEEmRKSt6vectorImSaImEE
   fun:_ZZZN4mpcf2ph10RipserTaskIfE9run_asyncERNS_8ExecutorEENKUlRKSt6vectorImSaImEEE_clES9_ENKUlvE_clEv
   fun:_ZSt13__invoke_implIvRZZN4mpcf2ph10RipserTaskIfE9run_asyncERNS0_8ExecutorEENKUlRKSt6vectorImSaImEEE_clESA_EUlvE_JEET_St14__invoke_otherOT0_DpOT1_
   fun:_ZSt10__invoke_rIvRZZN4mpcf2ph10RipserTaskIfE9run_asyncERNS0_8ExecutorEENKUlRKSt6vectorImSaImEEE_clESA_EUlvE_JEENSt9enable_ifIX16is_invocable_r_vIT_T0_DpT1_EESF_E4typeEOSG_DpOSH_
   fun:_ZNSt17_Function_handlerIFvvEZZN4mpcf2ph10RipserTaskIfE9run_asyncERNS1_8ExecutorEENKUlRKSt6vectorImSaImEEE_clESB_EUlvE_E9_M_invokeERKSt9_Any_data
   fun:_ZNKSt8functionIFvvEEclEv
   fun:_ZN2tf8Executor19_invoke_static_taskERNS_6WorkerEPNS_4NodeE
   fun:_ZN2tf8Executor7_invokeERNS_6WorkerEPNS_4NodeE
}
{
   <insert_a_suppression_name_here>
   Helgrind:Race
   fun:_ZNK4mpcf6TensorINS0_IfEEE19index_to_data_indexERKSt6vectorImSaImEE
   fun:_ZNK4mpcf6TensorINS0_IfEEE12index_to_refERKSt6vectorImSaImEE
   fun:_ZNK4mpcf6TensorINS0_IfEEEclERKSt6vectorImSaImEE
   fun:_ZN4mpcf2ph6detail41compute_persistence_euclidean_single_implIfEEvRKNS_6TensorINS3_IT_EEEERNS3_INS0_7BarcodeIS4_EEEEmRKSt6vectorImSaImEE
   fun:_ZZZN4mpcf2ph10RipserTaskIfE9run_asyncERNS_8ExecutorEENKUlRKSt6vectorImSaImEEE_clES9_ENKUlvE_clEv
   fun:_ZSt13__invoke_implIvRZZN4mpcf2ph10RipserTaskIfE9run_asyncERNS0_8ExecutorEENKUlRKSt6vectorImSaImEEE_clESA_EUlvE_JEET_St14__invoke_otherOT0_DpOT1_
   fun:_ZSt10__invoke_rIvRZZN4mpcf2ph10RipserTaskIfE9run_asyncERNS0_8ExecutorEENKUlRKSt6vectorImSaImEEE_clESA_EUlvE_JEENSt9enable_ifIX16is_invocable_r_vIT_T0_DpT1_EESF_E4typeEOSG_DpOSH_
   fun:_ZNSt17_Function_handlerIFvvEZZN4mpcf2ph10RipserTaskIfE9run_asyncERNS1_8ExecutorEENKUlRKSt6vectorImSaImEEE_clESB_EUlvE_E9_M_invokeERKSt9_Any_data
   fun:_ZNKSt8functionIFvvEEclEv
   fun:_ZN2tf8Executor19_invoke_static_taskERNS_6WorkerEPNS_4NodeE
   fun:_ZN2tf8Executor7_invokeERNS_6WorkerEPNS_4NodeE
   fun:_ZN2tf8Executor13_exploit_taskERNS_6WorkerERPNS_4NodeE
}
{
   <insert_a_suppression_name_here>
   Helgrind:Race
   fun:_ZNKSt12__shared_ptrIA_N4mpcf6TensorIfEELN9__gnu_cxx12_Lock_policyE2EE3getEv
   fun:_ZNKSt19__shared_ptr_accessIA_N4mpcf6TensorIfEELN9__gnu_cxx12_Lock_policyE2ELb1ELb0EE6_M_getEv
   fun:_ZNKSt19__shared_ptr_accessIA_N4mpcf6TensorIfEELN9__gnu_cxx12_Lock_policyE2ELb1ELb0EEixEl
   fun:_ZNK4mpcf6TensorINS0_IfEEE12index_to_refERKSt6vectorImSaImEE
   fun:_ZNK4mpcf6TensorINS0_IfEEEclERKSt6vectorImSaImEE
   fun:_ZN4mpcf2ph6detail41compute_persistence_euclidean_single_implIfEEvRKNS_6TensorINS3_IT_EEEERNS3_INS0_7BarcodeIS4_EEEEmRKSt6vectorImSaImEE
   fun:_ZZZN4mpcf2ph10RipserTaskIfE9run_asyncERNS_8ExecutorEENKUlRKSt6vectorImSaImEEE_clES9_ENKUlvE_clEv
   fun:_ZSt13__invoke_implIvRZZN4mpcf2ph10RipserTaskIfE9run_asyncERNS0_8ExecutorEENKUlRKSt6vectorImSaImEEE_clESA_EUlvE_JEET_St14__invoke_otherOT0_DpOT1_
   fun:_ZSt10__invoke_rIvRZZN4mpcf2ph10RipserTaskIfE9run_asyncERNS0_8ExecutorEENKUlRKSt6vectorImSaImEEE_clESA_EUlvE_JEENSt9enable_ifIX16is_invocable_r_vIT_T0_DpT1_EESF_E4typeEOSG_DpOSH_
   fun:_ZNSt17_Function_handlerIFvvEZZN4mpcf2ph10RipserTaskIfE9run_asyncERNS1_8ExecutorEENKUlRKSt6vectorImSaImEEE_clESB_EUlvE_E9_M_invokeERKSt9_Any_data
   fun:_ZNKSt8functionIFvvEEclEv
   fun:_ZN2tf8Executor19_invoke_static_taskERNS_6WorkerEPNS_4NodeE
}
{
   <insert_a_suppression_name_here>
   Helgrind:Race
   fun:_ZNKSt6vectorImSaImEE4sizeEv
   fun:_ZNK4mpcf6TensorIfE4rankEv
   fun:_ZN4mpcf2ph6detail41compute_persistence_euclidean_single_implIfEEvRKNS_6TensorINS3_IT_EEEERNS3_INS0_7BarcodeIS4_EEEEmRKSt6vectorImSaImEE
   fun:_ZZZN4mpcf2ph10RipserTaskIfE9run_asyncERNS_8ExecutorEENKUlRKSt6vectorImSaImEEE_clES9_ENKUlvE_clEv
   fun:_ZSt13__invoke_implIvRZZN4mpcf2ph10RipserTaskIfE9run_asyncERNS0_8ExecutorEENKUlRKSt6vectorImSaImEEE_clESA_EUlvE_JEET_St14__invoke_otherOT0_DpOT1_
   fun:_ZSt10__invoke_rIvRZZN4mpcf2ph10RipserTaskIfE9run_asyncERNS0_8ExecutorEENKUlRKSt6vectorImSaImEEE_clESA_EUlvE_JEENSt9enable_ifIX16is_invocable_r_vIT_T0_DpT1_EESF_E4typeEOSG_DpOSH_
   fun:_ZNSt17_Function_handlerIFvvEZZN4mpcf2ph10RipserTaskIfE9run_asyncERNS1_8ExecutorEENKUlRKSt6vectorImSaImEEE_clESB_EUlvE_E9_M_invokeERKSt9_Any_data
   fun:_ZNKSt8functionIFvvEEclEv
   fun:_ZN2tf8Executor19_invoke_static_taskERNS_6WorkerEPNS_4NodeE
   fun:_ZN2tf8Executor7_invokeERNS_6WorkerEPNS_4NodeE
   fun:_ZN2tf8Executor13_exploit_taskERNS_6WorkerERPNS_4NodeE
   fun:_ZZN2tf8Executor6_spawnEmSt10shared_ptrINS_15WorkerInterfaceEEENKUlvE_clEv
}
{
   <insert_a_suppression_name_here>
   Helgrind:Race
   fun:_ZNKSt6vectorImSaImEE4sizeEv
   fun:_ZNK4mpcf6TensorIfE4rankEv
   fun:_ZN4mpcf2ph6detail41compute_persistence_euclidean_single_implIfEEvRKNS_6TensorINS3_IT_EEEERNS3_INS0_7BarcodeIS4_EEEEmRKSt6vectorImSaImEE
   fun:_ZZZN4mpcf2ph10RipserTaskIfE9run_asyncERNS_8ExecutorEENKUlRKSt6vectorImSaImEEE_clES9_ENKUlvE_clEv
   fun:_ZSt13__invoke_implIvRZZN4mpcf2ph10RipserTaskIfE9run_asyncERNS0_8ExecutorEENKUlRKSt6vectorImSaImEEE_clESA_EUlvE_JEET_St14__invoke_otherOT0_DpOT1_
   fun:_ZSt10__invoke_rIvRZZN4mpcf2ph10RipserTaskIfE9run_asyncERNS0_8ExecutorEENKUlRKSt6vectorImSaImEEE_clESA_EUlvE_JEENSt9enable_ifIX16is_invocable_r_vIT_T0_DpT1_EESF_E4typeEOSG_DpOSH_
   fun:_ZNSt17_Function_handlerIFvvEZZN4mpcf2ph10RipserTaskIfE9run_asyncERNS1_8ExecutorEENKUlRKSt6vectorImSaImEEE_clESB_EUlvE_E9_M_invokeERKSt9_Any_data
   fun:_ZNKSt8functionIFvvEEclEv
   fun:_ZN2tf8Executor19_invoke_static_taskERNS_6WorkerEPNS_4NodeE
   fun:_ZN2tf8Executor7_invokeERNS_6WorkerEPNS_4NodeE
   fun:_ZN2tf8Executor13_exploit_taskERNS_6WorkerERPNS_4NodeE
   fun:_ZZN2tf8Executor6_spawnEmSt10shared_ptrINS_15WorkerInterfaceEEENKUlvE_clEv
}
{
   <insert_a_suppression_name_here>
   Helgrind:Race
   fun:_ZN9__gnu_cxx5__ops10_Iter_predIZN4mpcf2ph6detail41compute_persistence_euclidean_single_implIfEEvRKNS2_6TensorINS6_IT_EEEERNS6_INS3_7BarcodeIS7_EEEEmRKSt6vectorImSaImEEEUlmE_EclINS_17__normal_iteratorIPKmSI_EEEEbS7_
   fun:_ZSt9__find_ifIN9__gnu_cxx17__normal_iteratorIPKmSt6vectorImSaImEEEENS0_5__ops10_Iter_predIZN4mpcf2ph6detail41compute_persistence_euclidean_single_implIfEEvRKNSA_6TensorINSE_IT_EEEERNSE_INSB_7BarcodeISF_EEEEmRKS6_EUlmE_EEESF_SF_SF_T0_St26random_access_iterator_tag
   fun:_ZSt9__find_ifIN9__gnu_cxx17__normal_iteratorIPKmSt6vectorImSaImEEEENS0_5__ops10_Iter_predIZN4mpcf2ph6detail41compute_persistence_euclidean_single_implIfEEvRKNSA_6TensorINSE_IT_EEEERNSE_INSB_7BarcodeISF_EEEEmRKS6_EUlmE_EEESF_SF_SF_T0_
   fun:_ZSt7find_ifIN9__gnu_cxx17__normal_iteratorIPKmSt6vectorImSaImEEEEZN4mpcf2ph6detail41compute_persistence_euclidean_single_implIfEEvRKNS8_6TensorINSC_IT_EEEERNSC_INS9_7BarcodeISD_EEEEmRKS6_EUlmE_ESD_SD_SD_T0_
   fun:_ZSt7none_ofIN9__gnu_cxx17__normal_iteratorIPKmSt6vectorImSaImEEEEZN4mpcf2ph6detail41compute_persistence_euclidean_single_implIfEEvRKNS8_6TensorINSC_IT_EEEERNSC_INS9_7BarcodeISD_EEEEmRKS6_EUlmE_EbSD_SD_T0_
   fun:_ZSt6any_ofIN9__gnu_cxx17__normal_iteratorIPKmSt6vectorImSaImEEEEZN4mpcf2ph6detail41compute_persistence_euclidean_single_implIfEEvRKNS8_6TensorINSC_IT_EEEERNSC_INS9_7BarcodeISD_EEEEmRKS6_EUlmE_EbSD_SD_T0_
   fun:_ZN4mpcf2ph6detail41compute_persistence_euclidean_single_implIfEEvRKNS_6TensorINS3_IT_EEEERNS3_INS0_7BarcodeIS4_EEEEmRKSt6vectorImSaImEE
   fun:_ZZZN4mpcf2ph10RipserTaskIfE9run_asyncERNS_8ExecutorEENKUlRKSt6vectorImSaImEEE_clES9_ENKUlvE_clEv
   fun:_ZSt13__invoke_implIvRZZN4mpcf2ph10RipserTaskIfE9run_asyncERNS0_8ExecutorEENKUlRKSt6vectorImSaImEEE_clESA_EUlvE_JEET_St14__invoke_otherOT0_DpOT1_
   fun:_ZSt10__invoke_rIvRZZN4mpcf2ph10RipserTaskIfE9run_asyncERNS0_8ExecutorEENKUlRKSt6vectorImSaImEEE_clESA_EUlvE_JEENSt9enable_ifIX16is_invocable_r_vIT_T0_DpT1_EESF_E4typeEOSG_DpOSH_
   fun:_ZNSt17_Function_handlerIFvvEZZN4mpcf2ph10RipserTaskIfE9run_asyncERNS1_8ExecutorEENKUlRKSt6vectorImSaImEEE_clESB_EUlvE_E9_M_invokeERKSt9_Any_data
   fun:_ZNKSt8functionIFvvEEclEv
}
{
   <insert_a_suppression_name_here>
   Helgrind:Race
   fun:_ZN9__gnu_cxx5__ops10_Iter_predIZN4mpcf2ph6detail41compute_persistence_euclidean_single_implIfEEvRKNS2_6TensorINS6_IT_EEEERNS6_INS3_7BarcodeIS7_EEEEmRKSt6vectorImSaImEEEUlmE_EclINS_17__normal_iteratorIPKmSI_EEEEbS7_
   fun:_ZSt9__find_ifIN9__gnu_cxx17__normal_iteratorIPKmSt6vectorImSaImEEEENS0_5__ops10_Iter_predIZN4mpcf2ph6detail41compute_persistence_euclidean_single_implIfEEvRKNSA_6TensorINSE_IT_EEEERNSE_INSB_7BarcodeISF_EEEEmRKS6_EUlmE_EEESF_SF_SF_T0_St26random_access_iterator_tag
   fun:_ZSt9__find_ifIN9__gnu_cxx17__normal_iteratorIPKmSt6vectorImSaImEEEENS0_5__ops10_Iter_predIZN4mpcf2ph6detail41compute_persistence_euclidean_single_implIfEEvRKNSA_6TensorINSE_IT_EEEERNSE_INSB_7BarcodeISF_EEEEmRKS6_EUlmE_EEESF_SF_SF_T0_
   fun:_ZSt7find_ifIN9__gnu_cxx17__normal_iteratorIPKmSt6vectorImSaImEEEEZN4mpcf2ph6detail41compute_persistence_euclidean_single_implIfEEvRKNS8_6TensorINSC_IT_EEEERNSC_INS9_7BarcodeISD_EEEEmRKS6_EUlmE_ESD_SD_SD_T0_
   fun:_ZSt7none_ofIN9__gnu_cxx17__normal_iteratorIPKmSt6vectorImSaImEEEEZN4mpcf2ph6detail41compute_persistence_euclidean_single_implIfEEvRKNS8_6TensorINSC_IT_EEEERNSC_INS9_7BarcodeISD_EEEEmRKS6_EUlmE_EbSD_SD_T0_
   fun:_ZSt6any_ofIN9__gnu_cxx17__normal_iteratorIPKmSt6vectorImSaImEEEEZN4mpcf2ph6detail41compute_persistence_euclidean_single_implIfEEvRKNS8_6TensorINSC_IT_EEEERNSC_INS9_7BarcodeISD_EEEEmRKS6_EUlmE_EbSD_SD_T0_
   fun:_ZN4mpcf2ph6detail41compute_persistence_euclidean_single_implIfEEvRKNS_6TensorINS3_IT_EEEERNS3_INS0_7BarcodeIS4_EEEEmRKSt6vectorImSaImEE
   fun:_ZZZN4mpcf2ph10RipserTaskIfE9run_asyncERNS_8ExecutorEENKUlRKSt6vectorImSaImEEE_clES9_ENKUlvE_clEv
   fun:_ZSt13__invoke_implIvRZZN4mpcf2ph10RipserTaskIfE9run_asyncERNS0_8ExecutorEENKUlRKSt6vectorImSaImEEE_clESA_EUlvE_JEET_St14__invoke_otherOT0_DpOT1_
   fun:_ZSt10__invoke_rIvRZZN4mpcf2ph10RipserTaskIfE9run_asyncERNS0_8ExecutorEENKUlRKSt6vectorImSaImEEE_clESA_EUlvE_JEENSt9enable_ifIX16is_invocable_r_vIT_T0_DpT1_EESF_E4typeEOSG_DpOSH_
   fun:_ZNSt17_Function_handlerIFvvEZZN4mpcf2ph10RipserTaskIfE9run_asyncERNS1_8ExecutorEENKUlRKSt6vectorImSaImEEE_clESB_EUlvE_E9_M_invokeERKSt9_Any_data
   fun:_ZNKSt8functionIFvvEEclEv
}
{
   <insert_a_suppression_name_here>
   Helgrind:Race
   fun:_ZNK4mpcf6TensorIfE19index_to_data_indexERKSt6vectorImSaImEE
   fun:_ZNK4mpcf6TensorIfE12index_to_refERKSt6vectorImSaImEE
   fun:_ZNK4mpcf6TensorIfEclERKSt6vectorImSaImEE
   fun:_ZN4mpcf2ph6detail41compute_persistence_euclidean_single_implIfEEvRKNS_6TensorINS3_IT_EEEERNS3_INS0_7BarcodeIS4_EEEEmRKSt6vectorImSaImEE
   fun:_ZZZN4mpcf2ph10RipserTaskIfE9run_asyncERNS_8ExecutorEENKUlRKSt6vectorImSaImEEE_clES9_ENKUlvE_clEv
   fun:_ZSt13__invoke_implIvRZZN4mpcf2ph10RipserTaskIfE9run_asyncERNS0_8ExecutorEENKUlRKSt6vectorImSaImEEE_clESA_EUlvE_JEET_St14__invoke_otherOT0_DpOT1_
   fun:_ZSt10__invoke_rIvRZZN4mpcf2ph10RipserTaskIfE9run_asyncERNS0_8ExecutorEENKUlRKSt6vectorImSaImEEE_clESA_EUlvE_JEENSt9enable_ifIX16is_invocable_r_vIT_T0_DpT1_EESF_E4typeEOSG_DpOSH_
   fun:_ZNSt17_Function_handlerIFvvEZZN4mpcf2ph10RipserTaskIfE9run_asyncERNS1_8ExecutorEENKUlRKSt6vectorImSaImEEE_clESB_EUlvE_E9_M_invokeERKSt9_Any_data
   fun:_ZNKSt8functionIFvvEEclEv
   fun:_ZN2tf8Executor19_invoke_static_taskERNS_6WorkerEPNS_4NodeE
   fun:_ZN2tf8Executor7_invokeERNS_6WorkerEPNS_4NodeE
   fun:_ZN2tf8Executor13_exploit_taskERNS_6WorkerERPNS_4NodeE
}
{
   <insert_a_suppression_name_here>
   Helgrind:Race
   fun:_ZSt13inner_productIN9__gnu_cxx17__normal_iteratorIPKmSt6vectorImSaImEEEES7_mET1_T_S9_T0_S8_
   fun:_ZNK4mpcf6TensorIfE19index_to_data_indexERKSt6vectorImSaImEE
   fun:_ZNK4mpcf6TensorIfE12index_to_refERKSt6vectorImSaImEE
   fun:_ZNK4mpcf6TensorIfEclERKSt6vectorImSaImEE
   fun:_ZN4mpcf2ph6detail41compute_persistence_euclidean_single_implIfEEvRKNS_6TensorINS3_IT_EEEERNS3_INS0_7BarcodeIS4_EEEEmRKSt6vectorImSaImEE
   fun:_ZZZN4mpcf2ph10RipserTaskIfE9run_asyncERNS_8ExecutorEENKUlRKSt6vectorImSaImEEE_clES9_ENKUlvE_clEv
   fun:_ZSt13__invoke_implIvRZZN4mpcf2ph10RipserTaskIfE9run_asyncERNS0_8ExecutorEENKUlRKSt6vectorImSaImEEE_clESA_EUlvE_JEET_St14__invoke_otherOT0_DpOT1_
   fun:_ZSt10__invoke_rIvRZZN4mpcf2ph10RipserTaskIfE9run_asyncERNS0_8ExecutorEENKUlRKSt6vectorImSaImEEE_clESA_EUlvE_JEENSt9enable_ifIX16is_invocable_r_vIT_T0_DpT1_EESF_E4typeEOSG_DpOSH_
   fun:_ZNSt17_Function_handlerIFvvEZZN4mpcf2ph10RipserTaskIfE9run_asyncERNS1_8ExecutorEENKUlRKSt6vectorImSaImEEE_clESB_EUlvE_E9_M_invokeERKSt9_Any_data
   fun:_ZNKSt8functionIFvvEEclEv
   fun:_ZN2tf8Executor19_invoke_static_taskERNS_6WorkerEPNS_4NodeE
   fun:_ZN2tf8Executor7_invokeERNS_6WorkerEPNS_4NodeE
}
{
   <insert_a_suppression_name_here>
   Helgrind:Race
   fun:_ZNK4mpcf6TensorIfE19index_to_data_indexERKSt6vectorImSaImEE
   fun:_ZNK4mpcf6TensorIfE12index_to_refERKSt6vectorImSaImEE
   fun:_ZNK4mpcf6TensorIfEclERKSt6vectorImSaImEE
   fun:_ZN4mpcf2ph6detail41compute_persistence_euclidean_single_implIfEEvRKNS_6TensorINS3_IT_EEEERNS3_INS0_7BarcodeIS4_EEEEmRKSt6vectorImSaImEE
   fun:_ZZZN4mpcf2ph10RipserTaskIfE9run_asyncERNS_8ExecutorEENKUlRKSt6vectorImSaImEEE_clES9_ENKUlvE_clEv
   fun:_ZSt13__invoke_implIvRZZN4mpcf2ph10RipserTaskIfE9run_asyncERNS0_8ExecutorEENKUlRKSt6vectorImSaImEEE_clESA_EUlvE_JEET_St14__invoke_otherOT0_DpOT1_
   fun:_ZSt10__invoke_rIvRZZN4mpcf2ph10RipserTaskIfE9run_asyncERNS0_8ExecutorEENKUlRKSt6vectorImSaImEEE_clESA_EUlvE_JEENSt9enable_ifIX16is_invocable_r_vIT_T0_DpT1_EESF_E4typeEOSG_DpOSH_
   fun:_ZNSt17_Function_handlerIFvvEZZN4mpcf2ph10RipserTaskIfE9run_asyncERNS1_8ExecutorEENKUlRKSt6vectorImSaImEEE_clESB_EUlvE_E9_M_invokeERKSt9_Any_data
   fun:_ZNKSt8functionIFvvEEclEv
   fun:_ZN2tf8Executor19_invoke_static_taskERNS_6WorkerEPNS_4NodeE
   fun:_ZN2tf8Executor7_invokeERNS_6WorkerEPNS_4NodeE
   fun:_ZN2tf8Executor13_exploit_taskERNS_6WorkerERPNS_4NodeE
}
{
   <insert_a_suppression_name_here>
   Helgrind:Race
   fun:_ZNKSt12__shared_ptrIA_fLN9__gnu_cxx12_Lock_policyE2EE3getEv
   fun:_ZNKSt19__shared_ptr_accessIA_fLN9__gnu_cxx12_Lock_policyE2ELb1ELb0EE6_M_getEv
   fun:_ZNKSt19__shared_ptr_accessIA_fLN9__gnu_cxx12_Lock_policyE2ELb1ELb0EEixEl
   fun:_ZNK4mpcf6TensorIfE12index_to_refERKSt6vectorImSaImEE
   fun:_ZNK4mpcf6TensorIfEclERKSt6vectorImSaImEE
   fun:_ZN4mpcf2ph6detail41compute_persistence_euclidean_single_implIfEEvRKNS_6TensorINS3_IT_EEEERNS3_INS0_7BarcodeIS4_EEEEmRKSt6vectorImSaImEE
   fun:_ZZZN4mpcf2ph10RipserTaskIfE9run_asyncERNS_8ExecutorEENKUlRKSt6vectorImSaImEEE_clES9_ENKUlvE_clEv
   fun:_ZSt13__invoke_implIvRZZN4mpcf2ph10RipserTaskIfE9run_asyncERNS0_8ExecutorEENKUlRKSt6vectorImSaImEEE_clESA_EUlvE_JEET_St14__invoke_otherOT0_DpOT1_
   fun:_ZSt10__invoke_rIvRZZN4mpcf2ph10RipserTaskIfE9run_asyncERNS0_8ExecutorEENKUlRKSt6vectorImSaImEEE_clESA_EUlvE_JEENSt9enable_ifIX16is_invocable_r_vIT_T0_DpT1_EESF_E4typeEOSG_DpOSH_
   fun:_ZNSt17_Function_handlerIFvvEZZN4mpcf2ph10RipserTaskIfE9run_asyncERNS1_8ExecutorEENKUlRKSt6vectorImSaImEEE_clESB_EUlvE_E9_M_invokeERKSt9_Any_data
   fun:_ZNKSt8functionIFvvEEclEv
   fun:_ZN2tf8Executor19_invoke_static_taskERNS_6WorkerEPNS_4NodeE
}
{
   <insert_a_suppression_name_here>
   Helgrind:Race
   fun:_ZN4mpcf2ph6detail41compute_persistence_euclidean_single_implIfEEvRKNS_6TensorINS3_IT_EEEERNS3_INS0_7BarcodeIS4_EEEEmRKSt6vectorImSaImEE
   fun:_ZZZN4mpcf2ph10RipserTaskIfE9run_asyncERNS_8ExecutorEENKUlRKSt6vectorImSaImEEE_clES9_ENKUlvE_clEv
   fun:_ZSt13__invoke_implIvRZZN4mpcf2ph10RipserTaskIfE9run_asyncERNS0_8ExecutorEENKUlRKSt6vectorImSaImEEE_clESA_EUlvE_JEET_St14__invoke_otherOT0_DpOT1_
   fun:_ZSt10__invoke_rIvRZZN4mpcf2ph10RipserTaskIfE9run_asyncERNS0_8ExecutorEENKUlRKSt6vectorImSaImEEE_clESA_EUlvE_JEENSt9enable_ifIX16is_invocable_r_vIT_T0_DpT1_EESF_E4typeEOSG_DpOSH_
   fun:_ZNSt17_Function_handlerIFvvEZZN4mpcf2ph10RipserTaskIfE9run_asyncERNS1_8ExecutorEENKUlRKSt6vectorImSaImEEE_clESB_EUlvE_E9_M_invokeERKSt9_Any_data
   fun:_ZNKSt8functionIFvvEEclEv
   fun:_ZN2tf8Executor19_invoke_static_taskERNS_6WorkerEPNS_4NodeE
   fun:_ZN2tf8Executor7_invokeERNS_6WorkerEPNS_4NodeE
   fun:_ZN2tf8Executor13_exploit_taskERNS_6WorkerERPNS_4NodeE
   fun:_ZZN2tf8Executor6_spawnEmSt10shared_ptrINS_15WorkerInterfaceEEENKUlvE_clEv
   fun:_ZSt13__invoke_implIvZN2tf8Executor6_spawnEmSt10shared_ptrINS0_15WorkerInterfaceEEEUlvE_JEET_St14__invoke_otherOT0_DpOT1_
   fun:_ZSt8__invokeIZN2tf8Executor6_spawnEmSt10shared_ptrINS0_15WorkerInterfaceEEEUlvE_JEENSt15__invoke_resultIT_JDpT0_EE4typeEOS7_DpOS8_
}
{
   <insert_a_suppression_name_here>
   Helgrind:Race
   fun:_ZNKSt6vectorImSaImEEixEm
   fun:_ZNK4mpcf6TensorIfE5shapeEm
   fun:_ZN4mpcf2ph6detail41compute_persistence_euclidean_single_implIfEEvRKNS_6TensorINS3_IT_EEEERNS3_INS0_7BarcodeIS4_EEEEmRKSt6vectorImSaImEE
   fun:_ZZZN4mpcf2ph10RipserTaskIfE9run_asyncERNS_8ExecutorEENKUlRKSt6vectorImSaImEEE_clES9_ENKUlvE_clEv
   fun:_ZSt13__invoke_implIvRZZN4mpcf2ph10RipserTaskIfE9run_asyncERNS0_8ExecutorEENKUlRKSt6vectorImSaImEEE_clESA_EUlvE_JEET_St14__invoke_otherOT0_DpOT1_
   fun:_ZSt10__invoke_rIvRZZN4mpcf2ph10RipserTaskIfE9run_asyncERNS0_8ExecutorEENKUlRKSt6vectorImSaImEEE_clESA_EUlvE_JEENSt9enable_ifIX16is_invocable_r_vIT_T0_DpT1_EESF_E4typeEOSG_DpOSH_
   fun:_ZNSt17_Function_handlerIFvvEZZN4mpcf2ph10RipserTaskIfE9run_asyncERNS1_8ExecutorEENKUlRKSt6vectorImSaImEEE_clESB_EUlvE_E9_M_invokeERKSt9_Any_data
   fun:_ZNKSt8functionIFvvEEclEv
   fun:_ZN2tf8Executor19_invoke_static_taskERNS_6WorkerEPNS_4NodeE
   fun:_ZN2tf8Executor7_invokeERNS_6WorkerEPNS_4NodeE
   fun:_ZN2tf8Executor13_exploit_taskERNS_6WorkerERPNS_4NodeE
   fun:_ZZN2tf8Executor6_spawnEmSt10shared_ptrINS_15WorkerInterfaceEEENKUlvE_clEv
}
{
   <insert_a_suppression_name_here>
   Helgrind:Race
   fun:_ZNK4mpcf6TensorINS_2ph7BarcodeIfEEE19index_to_data_indexERKSt6vectorImSaImEE
   fun:_ZN4mpcf6TensorINS_2ph7BarcodeIfEEE12index_to_refERKSt6vectorImSaImEE
   fun:_ZN4mpcf6TensorINS_2ph7BarcodeIfEEEclERKSt6vectorImSaImEE
   fun:_ZN4mpcf2ph6detail41compute_persistence_euclidean_single_implIfEEvRKNS_6TensorINS3_IT_EEEERNS3_INS0_7BarcodeIS4_EEEEmRKSt6vectorImSaImEE
   fun:_ZZZN4mpcf2ph10RipserTaskIfE9run_asyncERNS_8ExecutorEENKUlRKSt6vectorImSaImEEE_clES9_ENKUlvE_clEv
   fun:_ZSt13__invoke_implIvRZZN4mpcf2ph10RipserTaskIfE9run_asyncERNS0_8ExecutorEENKUlRKSt6vectorImSaImEEE_clESA_EUlvE_JEET_St14__invoke_otherOT0_DpOT1_
   fun:_ZSt10__invoke_rIvRZZN4mpcf2ph10RipserTaskIfE9run_asyncERNS0_8ExecutorEENKUlRKSt6vectorImSaImEEE_clESA_EUlvE_JEENSt9enable_ifIX16is_invocable_r_vIT_T0_DpT1_EESF_E4typeEOSG_DpOSH_
   fun:_ZNSt17_Function_handlerIFvvEZZN4mpcf2ph10RipserTaskIfE9run_asyncERNS1_8ExecutorEENKUlRKSt6vectorImSaImEEE_clESB_EUlvE_E9_M_invokeERKSt9_Any_data
   fun:_ZNKSt8functionIFvvEEclEv
   fun:_ZN2tf8Executor19_invoke_static_taskERNS_6WorkerEPNS_4NodeE
   fun:_ZN2tf8Executor7_invokeERNS_6WorkerEPNS_4NodeE
   fun:_ZN2tf8Executor13_exploit_taskERNS_6WorkerERPNS_4NodeE
}
{
   <insert_a_suppression_name_here>
   Helgrind:Race
   fun:_ZSt13inner_productIN9__gnu_cxx17__normal_iteratorIPKmSt6vectorImSaImEEEES7_mET1_T_S9_T0_S8_
   fun:_ZNK4mpcf6TensorINS_2ph7BarcodeIfEEE19index_to_data_indexERKSt6vectorImSaImEE
   fun:_ZN4mpcf6TensorINS_2ph7BarcodeIfEEE12index_to_refERKSt6vectorImSaImEE
   fun:_ZN4mpcf6TensorINS_2ph7BarcodeIfEEEclERKSt6vectorImSaImEE
   fun:_ZN4mpcf2ph6detail41compute_persistence_euclidean_single_implIfEEvRKNS_6TensorINS3_IT_EEEERNS3_INS0_7BarcodeIS4_EEEEmRKSt6vectorImSaImEE
   fun:_ZZZN4mpcf2ph10RipserTaskIfE9run_asyncERNS_8ExecutorEENKUlRKSt6vectorImSaImEEE_clES9_ENKUlvE_clEv
   fun:_ZSt13__invoke_implIvRZZN4mpcf2ph10RipserTaskIfE9run_asyncERNS0_8ExecutorEENKUlRKSt6vectorImSaImEEE_clESA_EUlvE_JEET_St14__invoke_otherOT0_DpOT1_
   fun:_ZSt10__invoke_rIvRZZN4mpcf2ph10RipserTaskIfE9run_asyncERNS0_8ExecutorEENKUlRKSt6vectorImSaImEEE_clESA_EUlvE_JEENSt9enable_ifIX16is_invocable_r_vIT_T0_DpT1_EESF_E4typeEOSG_DpOSH_
   fun:_ZNSt17_Function_handlerIFvvEZZN4mpcf2ph10RipserTaskIfE9run_asyncERNS1_8ExecutorEENKUlRKSt6vectorImSaImEEE_clESB_EUlvE_E9_M_invokeERKSt9_Any_data
   fun:_ZNKSt8functionIFvvEEclEv
   fun:_ZN2tf8Executor19_invoke_static_taskERNS_6WorkerEPNS_4NodeE
   fun:_ZN2tf8Executor7_invokeERNS_6WorkerEPNS_4NodeE
}
{
   <insert_a_suppression_name_here>
   Helgrind:Race
   fun:_ZNK4mpcf6TensorINS_2ph7BarcodeIfEEE19index_to_data_indexERKSt6vectorImSaImEE
   fun:_ZN4mpcf6TensorINS_2ph7BarcodeIfEEE12index_to_refERKSt6vectorImSaImEE
   fun:_ZN4mpcf6TensorINS_2ph7BarcodeIfEEEclERKSt6vectorImSaImEE
   fun:_ZN4mpcf2ph6detail41compute_persistence_euclidean_single_implIfEEvRKNS_6TensorINS3_IT_EEEERNS3_INS0_7BarcodeIS4_EEEEmRKSt6vectorImSaImEE
   fun:_ZZZN4mpcf2ph10RipserTaskIfE9run_asyncERNS_8ExecutorEENKUlRKSt6vectorImSaImEEE_clES9_ENKUlvE_clEv
   fun:_ZSt13__invoke_implIvRZZN4mpcf2ph10RipserTaskIfE9run_asyncERNS0_8ExecutorEENKUlRKSt6vectorImSaImEEE_clESA_EUlvE_JEET_St14__invoke_otherOT0_DpOT1_
   fun:_ZSt10__invoke_rIvRZZN4mpcf2ph10RipserTaskIfE9run_asyncERNS0_8ExecutorEENKUlRKSt6vectorImSaImEEE_clESA_EUlvE_JEENSt9enable_ifIX16is_invocable_r_vIT_T0_DpT1_EESF_E4typeEOSG_DpOSH_
   fun:_ZNSt17_Function_handlerIFvvEZZN4mpcf2ph10RipserTaskIfE9run_asyncERNS1_8ExecutorEENKUlRKSt6vectorImSaImEEE_clESB_EUlvE_E9_M_invokeERKSt9_Any_data
   fun:_ZNKSt8functionIFvvEEclEv
   fun:_ZN2tf8Executor19_invoke_static_taskERNS_6WorkerEPNS_4NodeE
   fun:_ZN2tf8Executor7_invokeERNS_6WorkerEPNS_4NodeE
   fun:_ZN2tf8Executor13_exploit_taskERNS_6WorkerERPNS_4NodeE
}
{
   <insert_a_suppression_name_here>
   Helgrind:Race
   fun:_ZNKSt12__shared_ptrIA_N4mpcf2ph7BarcodeIfEELN9__gnu_cxx12_Lock_policyE2EE3getEv
   fun:_ZNKSt19__shared_ptr_accessIA_N4mpcf2ph7BarcodeIfEELN9__gnu_cxx12_Lock_policyE2ELb1ELb0EE6_M_getEv
   fun:_ZNKSt19__shared_ptr_accessIA_N4mpcf2ph7BarcodeIfEELN9__gnu_cxx12_Lock_policyE2ELb1ELb0EEixEl
   fun:_ZN4mpcf6TensorINS_2ph7BarcodeIfEEE12index_to_refERKSt6vectorImSaImEE
   fun:_ZN4mpcf6TensorINS_2ph7BarcodeIfEEEclERKSt6vectorImSaImEE
   fun:_ZN4mpcf2ph6detail41compute_persistence_euclidean_single_implIfEEvRKNS_6TensorINS3_IT_EEEERNS3_INS0_7BarcodeIS4_EEEEmRKSt6vectorImSaImEE
   fun:_ZZZN4mpcf2ph10RipserTaskIfE9run_asyncERNS_8ExecutorEENKUlRKSt6vectorImSaImEEE_clES9_ENKUlvE_clEv
   fun:_ZSt13__invoke_implIvRZZN4mpcf2ph10RipserTaskIfE9run_asyncERNS0_8ExecutorEENKUlRKSt6vectorImSaImEEE_clESA_EUlvE_JEET_St14__invoke_otherOT0_DpOT1_
   fun:_ZSt10__invoke_rIvRZZN4mpcf2ph10RipserTaskIfE9run_asyncERNS0_8ExecutorEENKUlRKSt6vectorImSaImEEE_clESA_EUlvE_JEENSt9enable_ifIX16is_invocable_r_vIT_T0_DpT1_EESF_E4typeEOSG_DpOSH_
   fun:_ZNSt17_Function_handlerIFvvEZZN4mpcf2ph10RipserTaskIfE9run_asyncERNS1_8ExecutorEENKUlRKSt6vectorImSaImEEE_clESB_EUlvE_E9_M_invokeERKSt9_Any_data
   fun:_ZNKSt8functionIFvvEEclEv
   fun:_ZN2tf8Executor19_invoke_static_taskERNS_6WorkerEPNS_4NodeE
}
{
   <insert_a_suppression_name_here>
   Helgrind:Race
   fun:_ZNKSt6vectorIN4mpcf2ph15PersistencePairIfEESaIS3_EE8capacityEv
   fun:_ZNSt6vectorIN4mpcf2ph15PersistencePairIfEESaIS3_EEaSERKS5_
   fun:_ZN4mpcf2ph7BarcodeIfEaSERKSt6vectorINS0_15PersistencePairIfEESaIS5_EE
   fun:_ZN4mpcf2ph6detail41compute_persistence_euclidean_single_implIfEEvRKNS_6TensorINS3_IT_EEEERNS3_INS0_7BarcodeIS4_EEEEmRKSt6vectorImSaImEE
   fun:_ZZZN4mpcf2ph10RipserTaskIfE9run_asyncERNS_8ExecutorEENKUlRKSt6vectorImSaImEEE_clES9_ENKUlvE_clEv
   fun:_ZSt13__invoke_implIvRZZN4mpcf2ph10RipserTaskIfE9run_asyncERNS0_8ExecutorEENKUlRKSt6vectorImSaImEEE_clESA_EUlvE_JEET_St14__invoke_otherOT0_DpOT1_
   fun:_ZSt10__invoke_rIvRZZN4mpcf2ph10RipserTaskIfE9run_asyncERNS0_8ExecutorEENKUlRKSt6vectorImSaImEEE_clESA_EUlvE_JEENSt9enable_ifIX16is_invocable_r_vIT_T0_DpT1_EESF_E4typeEOSG_DpOSH_
   fun:_ZNSt17_Function_handlerIFvvEZZN4mpcf2ph10RipserTaskIfE9run_asyncERNS1_8ExecutorEENKUlRKSt6vectorImSaImEEE_clESB_EUlvE_E9_M_invokeERKSt9_Any_data
   fun:_ZNKSt8functionIFvvEEclEv
   fun:_ZN2tf8Executor19_invoke_static_taskERNS_6WorkerEPNS_4NodeE
   fun:_ZN2tf8Executor7_invokeERNS_6WorkerEPNS_4NodeE
   fun:_ZN2tf8Executor13_exploit_taskERNS_6WorkerERPNS_4NodeE
}
{
   <insert_a_suppression_name_here>
   Helgrind:Race
   fun:_ZNKSt6vectorIN4mpcf2ph15PersistencePairIfEESaIS3_EE8capacityEv
   fun:_ZNSt6vectorIN4mpcf2ph15PersistencePairIfEESaIS3_EEaSERKS5_
   fun:_ZN4mpcf2ph7BarcodeIfEaSERKSt6vectorINS0_15PersistencePairIfEESaIS5_EE
   fun:_ZN4mpcf2ph6detail41compute_persistence_euclidean_single_implIfEEvRKNS_6TensorINS3_IT_EEEERNS3_INS0_7BarcodeIS4_EEEEmRKSt6vectorImSaImEE
   fun:_ZZZN4mpcf2ph10RipserTaskIfE9run_asyncERNS_8ExecutorEENKUlRKSt6vectorImSaImEEE_clES9_ENKUlvE_clEv
   fun:_ZSt13__invoke_implIvRZZN4mpcf2ph10RipserTaskIfE9run_asyncERNS0_8ExecutorEENKUlRKSt6vectorImSaImEEE_clESA_EUlvE_JEET_St14__invoke_otherOT0_DpOT1_
   fun:_ZSt10__invoke_rIvRZZN4mpcf2ph10RipserTaskIfE9run_asyncERNS0_8ExecutorEENKUlRKSt6vectorImSaImEEE_clESA_EUlvE_JEENSt9enable_ifIX16is_invocable_r_vIT_T0_DpT1_EESF_E4typeEOSG_DpOSH_
   fun:_ZNSt17_Function_handlerIFvvEZZN4mpcf2ph10RipserTaskIfE9run_asyncERNS1_8ExecutorEENKUlRKSt6vectorImSaImEEE_clESB_EUlvE_E9_M_invokeERKSt9_Any_data
   fun:_ZNKSt8functionIFvvEEclEv
   fun:_ZN2tf8Executor19_invoke_static_taskERNS_6WorkerEPNS_4NodeE
   fun:_ZN2tf8Executor7_invokeERNS_6WorkerEPNS_4NodeE
   fun:_ZN2tf8Executor13_exploit_taskERNS_6WorkerERPNS_4NodeE
}
{
   <insert_a_suppression_name_here>
   Helgrind:Race
   fun:_ZNSt6vectorIN4mpcf2ph15PersistencePairIfEESaIS3_EEaSERKS5_
   fun:_ZN4mpcf2ph7BarcodeIfEaSERKSt6vectorINS0_15PersistencePairIfEESaIS5_EE
   fun:_ZN4mpcf2ph6detail41compute_persistence_euclidean_single_implIfEEvRKNS_6TensorINS3_IT_EEEERNS3_INS0_7BarcodeIS4_EEEEmRKSt6vectorImSaImEE
   fun:_ZZZN4mpcf2ph10RipserTaskIfE9run_asyncERNS_8ExecutorEENKUlRKSt6vectorImSaImEEE_clES9_ENKUlvE_clEv
   fun:_ZSt13__invoke_implIvRZZN4mpcf2ph10RipserTaskIfE9run_asyncERNS0_8ExecutorEENKUlRKSt6vectorImSaImEEE_clESA_EUlvE_JEET_St14__invoke_otherOT0_DpOT1_
   fun:_ZSt10__invoke_rIvRZZN4mpcf2ph10RipserTaskIfE9run_asyncERNS0_8ExecutorEENKUlRKSt6vectorImSaImEEE_clESA_EUlvE_JEENSt9enable_ifIX16is_invocable_r_vIT_T0_DpT1_EESF_E4typeEOSG_DpOSH_
   fun:_ZNSt17_Function_handlerIFvvEZZN4mpcf2ph10RipserTaskIfE9run_asyncERNS1_8ExecutorEENKUlRKSt6vectorImSaImEEE_clESB_EUlvE_E9_M_invokeERKSt9_Any_data
   fun:_ZNKSt8functionIFvvEEclEv
   fun:_ZN2tf8Executor19_invoke_static_taskERNS_6WorkerEPNS_4NodeE
   fun:_ZN2tf8Executor7_invokeERNS_6WorkerEPNS_4NodeE
   fun:_ZN2tf8Executor13_exploit_taskERNS_6WorkerERPNS_4NodeE
   fun:_ZZN2tf8Executor6_spawnEmSt10shared_ptrINS_15WorkerInterfaceEEENKUlvE_clEv
}
{
   <insert_a_suppression_name_here>
   Helgrind:Race
   fun:_ZNSt6vectorIN4mpcf2ph15PersistencePairIfEESaIS3_EEaSERKS5_
   fun:_ZN4mpcf2ph7BarcodeIfEaSERKSt6vectorINS0_15PersistencePairIfEESaIS5_EE
   fun:_ZN4mpcf2ph6detail41compute_persistence_euclidean_single_implIfEEvRKNS_6TensorINS3_IT_EEEERNS3_INS0_7BarcodeIS4_EEEEmRKSt6vectorImSaImEE
   fun:_ZZZN4mpcf2ph10RipserTaskIfE9run_asyncERNS_8ExecutorEENKUlRKSt6vectorImSaImEEE_clES9_ENKUlvE_clEv
   fun:_ZSt13__invoke_implIvRZZN4mpcf2ph10RipserTaskIfE9run_asyncERNS0_8ExecutorEENKUlRKSt6vectorImSaImEEE_clESA_EUlvE_JEET_St14__invoke_otherOT0_DpOT1_
   fun:_ZSt10__invoke_rIvRZZN4mpcf2ph10RipserTaskIfE9run_asyncERNS0_8ExecutorEENKUlRKSt6vectorImSaImEEE_clESA_EUlvE_JEENSt9enable_ifIX16is_invocable_r_vIT_T0_DpT1_EESF_E4typeEOSG_DpOSH_
   fun:_ZNSt17_Function_handlerIFvvEZZN4mpcf2ph10RipserTaskIfE9run_asyncERNS1_8ExecutorEENKUlRKSt6vectorImSaImEEE_clESB_EUlvE_E9_M_invokeERKSt9_Any_data
   fun:_ZNKSt8functionIFvvEEclEv
   fun:_ZN2tf8Executor19_invoke_static_taskERNS_6WorkerEPNS_4NodeE
   fun:_ZN2tf8Executor7_invokeERNS_6WorkerEPNS_4NodeE
   fun:_ZN2tf8Executor13_exploit_taskERNS_6WorkerERPNS_4NodeE
   fun:_ZZN2tf8Executor6_spawnEmSt10shared_ptrINS_15WorkerInterfaceEEENKUlvE_clEv
}
{
   <insert_a_suppression_name_here>
   Helgrind:Race
   fun:_ZNSt6vectorIN4mpcf2ph15PersistencePairIfEESaIS3_EEaSERKS5_
   fun:_ZN4mpcf2ph7BarcodeIfEaSERKSt6vectorINS0_15PersistencePairIfEESaIS5_EE
   fun:_ZN4mpcf2ph6detail41compute_persistence_euclidean_single_implIfEEvRKNS_6TensorINS3_IT_EEEERNS3_INS0_7BarcodeIS4_EEEEmRKSt6vectorImSaImEE
   fun:_ZZZN4mpcf2ph10RipserTaskIfE9run_asyncERNS_8ExecutorEENKUlRKSt6vectorImSaImEEE_clES9_ENKUlvE_clEv
   fun:_ZSt13__invoke_implIvRZZN4mpcf2ph10RipserTaskIfE9run_asyncERNS0_8ExecutorEENKUlRKSt6vectorImSaImEEE_clESA_EUlvE_JEET_St14__invoke_otherOT0_DpOT1_
   fun:_ZSt10__invoke_rIvRZZN4mpcf2ph10RipserTaskIfE9run_asyncERNS0_8ExecutorEENKUlRKSt6vectorImSaImEEE_clESA_EUlvE_JEENSt9enable_ifIX16is_invocable_r_vIT_T0_DpT1_EESF_E4typeEOSG_DpOSH_
   fun:_ZNSt17_Function_handlerIFvvEZZN4mpcf2ph10RipserTaskIfE9run_asyncERNS1_8ExecutorEENKUlRKSt6vectorImSaImEEE_clESB_EUlvE_E9_M_invokeERKSt9_Any_data
   fun:_ZNKSt8functionIFvvEEclEv
   fun:_ZN2tf8Executor19_invoke_static_taskERNS_6WorkerEPNS_4NodeE
   fun:_ZN2tf8Executor7_invokeERNS_6WorkerEPNS_4NodeE
   fun:_ZN2tf8Executor13_exploit_taskERNS_6WorkerERPNS_4NodeE
   fun:_ZZN2tf8Executor6_spawnEmSt10shared_ptrINS_15WorkerInterfaceEEENKUlvE_clEv
}
{
   <insert_a_suppression_name_here>
   Helgrind:Race
   fun:_ZNSt6vectorIN4mpcf2ph15PersistencePairIfEESaIS3_EEaSERKS5_
   fun:_ZN4mpcf2ph7BarcodeIfEaSERKSt6vectorINS0_15PersistencePairIfEESaIS5_EE
   fun:_ZN4mpcf2ph6detail41compute_persistence_euclidean_single_implIfEEvRKNS_6TensorINS3_IT_EEEERNS3_INS0_7BarcodeIS4_EEEEmRKSt6vectorImSaImEE
   fun:_ZZZN4mpcf2ph10RipserTaskIfE9run_asyncERNS_8ExecutorEENKUlRKSt6vectorImSaImEEE_clES9_ENKUlvE_clEv
   fun:_ZSt13__invoke_implIvRZZN4mpcf2ph10RipserTaskIfE9run_asyncERNS0_8ExecutorEENKUlRKSt6vectorImSaImEEE_clESA_EUlvE_JEET_St14__invoke_otherOT0_DpOT1_
   fun:_ZSt10__invoke_rIvRZZN4mpcf2ph10RipserTaskIfE9run_asyncERNS0_8ExecutorEENKUlRKSt6vectorImSaImEEE_clESA_EUlvE_JEENSt9enable_ifIX16is_invocable_r_vIT_T0_DpT1_EESF_E4typeEOSG_DpOSH_
   fun:_ZNSt17_Function_handlerIFvvEZZN4mpcf2ph10RipserTaskIfE9run_asyncERNS1_8ExecutorEENKUlRKSt6vectorImSaImEEE_clESB_EUlvE_E9_M_invokeERKSt9_Any_data
   fun:_ZNKSt8functionIFvvEEclEv
   fun:_ZN2tf8Executor19_invoke_static_taskERNS_6WorkerEPNS_4NodeE
   fun:_ZN2tf8Executor7_invokeERNS_6WorkerEPNS_4NodeE
   fun:_ZN2tf8Executor13_exploit_taskERNS_6WorkerERPNS_4NodeE
   fun:_ZZN2tf8Executor6_spawnEmSt10shared_ptrINS_15WorkerInterfaceEEENKUlvE_clEv
}
{
   <insert_a_suppression_name_here>
   Helgrind:Race
   fun:_ZNKSt6vectorIN4mpcf2ph15PersistencePairIfEESaIS3_EE4sizeEv
   fun:_ZNSt6vectorIN4mpcf2ph15PersistencePairIfEESaIS3_EEaSERKS5_
   fun:_ZN4mpcf2ph7BarcodeIfEaSERKSt6vectorINS0_15PersistencePairIfEESaIS5_EE
   fun:_ZN4mpcf2ph6detail41compute_persistence_euclidean_single_implIfEEvRKNS_6TensorINS3_IT_EEEERNS3_INS0_7BarcodeIS4_EEEEmRKSt6vectorImSaImEE
   fun:_ZZZN4mpcf2ph10RipserTaskIfE9run_asyncERNS_8ExecutorEENKUlRKSt6vectorImSaImEEE_clES9_ENKUlvE_clEv
   fun:_ZSt13__invoke_implIvRZZN4mpcf2ph10RipserTaskIfE9run_asyncERNS0_8ExecutorEENKUlRKSt6vectorImSaImEEE_clESA_EUlvE_JEET_St14__invoke_otherOT0_DpOT1_
   fun:_ZSt10__invoke_rIvRZZN4mpcf2ph10RipserTaskIfE9run_asyncERNS0_8ExecutorEENKUlRKSt6vectorImSaImEEE_clESA_EUlvE_JEENSt9enable_ifIX16is_invocable_r_vIT_T0_DpT1_EESF_E4typeEOSG_DpOSH_
   fun:_ZNSt17_Function_handlerIFvvEZZN4mpcf2ph10RipserTaskIfE9run_asyncERNS1_8ExecutorEENKUlRKSt6vectorImSaImEEE_clESB_EUlvE_E9_M_invokeERKSt9_Any_data
   fun:_ZNKSt8functionIFvvEEclEv
   fun:_ZN2tf8Executor19_invoke_static_taskERNS_6WorkerEPNS_4NodeE
   fun:_ZN2tf8Executor7_invokeERNS_6WorkerEPNS_4NodeE
   fun:_ZN2tf8Executor13_exploit_taskERNS_6WorkerERPNS_4NodeE
}
{
   <insert_a_suppression_name_here>
   Helgrind:Race
   fun:_ZZZN4mpcf2ph10RipserTaskIfE9run_asyncERNS_8ExecutorEENKUlRKSt6vectorImSaImEEE_clES9_ENKUlvE_clEv
   fun:_ZSt13__invoke_implIvRZZN4mpcf2ph10RipserTaskIfE9run_asyncERNS0_8ExecutorEENKUlRKSt6vectorImSaImEEE_clESA_EUlvE_JEET_St14__invoke_otherOT0_DpOT1_
   fun:_ZSt10__invoke_rIvRZZN4mpcf2ph10RipserTaskIfE9run_asyncERNS0_8ExecutorEENKUlRKSt6vectorImSaImEEE_clESA_EUlvE_JEENSt9enable_ifIX16is_invocable_r_vIT_T0_DpT1_EESF_E4typeEOSG_DpOSH_
   fun:_ZNSt17_Function_handlerIFvvEZZN4mpcf2ph10RipserTaskIfE9run_asyncERNS1_8ExecutorEENKUlRKSt6vectorImSaImEEE_clESB_EUlvE_E9_M_invokeERKSt9_Any_data
   fun:_ZNKSt8functionIFvvEEclEv
   fun:_ZN2tf8Executor19_invoke_static_taskERNS_6WorkerEPNS_4NodeE
   fun:_ZN2tf8Executor7_invokeERNS_6WorkerEPNS_4NodeE
   fun:_ZN2tf8Executor13_exploit_taskERNS_6WorkerERPNS_4NodeE
   fun:_ZZN2tf8Executor6_spawnEmSt10shared_ptrINS_15WorkerInterfaceEEENKUlvE_clEv
   fun:_ZSt13__invoke_implIvZN2tf8Executor6_spawnEmSt10shared_ptrINS0_15WorkerInterfaceEEEUlvE_JEET_St14__invoke_otherOT0_DpOT1_
   fun:_ZSt8__invokeIZN2tf8Executor6_spawnEmSt10shared_ptrINS0_15WorkerInterfaceEEEUlvE_JEENSt15__invoke_resultIT_JDpT0_EE4typeEOS7_DpOS8_
   fun:_ZNSt6thread8_InvokerISt5tupleIJZN2tf8Executor6_spawnEmSt10shared_ptrINS2_15WorkerInterfaceEEEUlvE_EEE9_M_invokeIJLm0EEEEvSt12_Index_tupleIJXspT_EEE
}
{
   <insert_a_suppression_name_here>
   Helgrind:Race
   fun:fetch_add
   fun:_ZSt25atomic_fetch_add_explicitImET_PSt6atomicIS0_ENS2_15difference_typeESt12memory_order
   fun:_ZSt16atomic_fetch_addImET_PSt6atomicIS0_ENS2_15difference_typeE
   fun:_ZN4mpcf13StoppableTaskIvE12add_progressEm
   fun:_ZZZN4mpcf2ph10RipserTaskIfE9run_asyncERNS_8ExecutorEENKUlRKSt6vectorImSaImEEE_clES9_ENKUlvE_clEv
   fun:_ZSt13__invoke_implIvRZZN4mpcf2ph10RipserTaskIfE9run_asyncERNS0_8ExecutorEENKUlRKSt6vectorImSaImEEE_clESA_EUlvE_JEET_St14__invoke_otherOT0_DpOT1_
   fun:_ZSt10__invoke_rIvRZZN4mpcf2ph10RipserTaskIfE9run_asyncERNS0_8ExecutorEENKUlRKSt6vectorImSaImEEE_clESA_EUlvE_JEENSt9enable_ifIX16is_invocable_r_vIT_T0_DpT1_EESF_E4typeEOSG_DpOSH_
   fun:_ZNSt17_Function_handlerIFvvEZZN4mpcf2ph10RipserTaskIfE9run_asyncERNS1_8ExecutorEENKUlRKSt6vectorImSaImEEE_clESB_EUlvE_E9_M_invokeERKSt9_Any_data
   fun:_ZNKSt8functionIFvvEEclEv
   fun:_ZN2tf8Executor19_invoke_static_taskERNS_6WorkerEPNS_4NodeE
   fun:_ZN2tf8Executor7_invokeERNS_6WorkerEPNS_4NodeE
   fun:_ZN2tf8Executor13_exploit_taskERNS_6WorkerERPNS_4NodeE
   fun:_ZZN2tf8Executor6_spawnEmSt10shared_ptrINS_15WorkerInterfaceEEENKUlvE_clEv
}
{
   <insert_a_suppression_name_here>
   Helgrind:Race
   fun:fetch_sub
   fun:_ZN2tf8Executor19_tear_down_nonasyncERNS_6WorkerEPNS_4NodeERS4_
   fun:_ZN2tf8Executor7_invokeERNS_6WorkerEPNS_4NodeE
   fun:_ZN2tf8Executor13_exploit_taskERNS_6WorkerERPNS_4NodeE
   fun:_ZZN2tf8Executor6_spawnEmSt10shared_ptrINS_15WorkerInterfaceEEENKUlvE_clEv
   fun:_ZSt13__invoke_implIvZN2tf8Executor6_spawnEmSt10shared_ptrINS0_15WorkerInterfaceEEEUlvE_JEET_St14__invoke_otherOT0_DpOT1_
   fun:_ZSt8__invokeIZN2tf8Executor6_spawnEmSt10shared_ptrINS0_15WorkerInterfaceEEEUlvE_JEENSt15__invoke_resultIT_JDpT0_EE4typeEOS7_DpOS8_
   fun:_ZNSt6thread8_InvokerISt5tupleIJZN2tf8Executor6_spawnEmSt10shared_ptrINS2_15WorkerInterfaceEEEUlvE_EEE9_M_invokeIJLm0EEEEvSt12_Index_tupleIJXspT_EEE
   fun:_ZNSt6thread8_InvokerISt5tupleIJZN2tf8Executor6_spawnEmSt10shared_ptrINS2_15WorkerInterfaceEEEUlvE_EEEclEv
   fun:_ZNSt6thread11_State_implINS_8_InvokerISt5tupleIJZN2tf8Executor6_spawnEmSt10shared_ptrINS3_15WorkerInterfaceEEEUlvE_EEEEE6_M_runEv
   obj:/usr/lib/x86_64-linux-gnu/libstdc++.so.6.0.33
   obj:/usr/libexec/valgrind/vgpreload_helgrind-amd64-linux.so
   fun:start_thread
}
{
   <insert_a_suppression_name_here>
   Helgrind:Race
   fun:load
   fun:_ZNK2tf8Topology9cancelledEv
   fun:_ZN2tf8Executor19_tear_down_topologyERNS_6WorkerEPNS_8TopologyERPNS_4NodeE
   fun:_ZN2tf8Executor19_tear_down_nonasyncERNS_6WorkerEPNS_4NodeERS4_
   fun:_ZN2tf8Executor7_invokeERNS_6WorkerEPNS_4NodeE
   fun:_ZN2tf8Executor13_exploit_taskERNS_6WorkerERPNS_4NodeE
   fun:_ZZN2tf8Executor6_spawnEmSt10shared_ptrINS_15WorkerInterfaceEEENKUlvE_clEv
   fun:_ZSt13__invoke_implIvZN2tf8Executor6_spawnEmSt10shared_ptrINS0_15WorkerInterfaceEEEUlvE_JEET_St14__invoke_otherOT0_DpOT1_
   fun:_ZSt8__invokeIZN2tf8Executor6_spawnEmSt10shared_ptrINS0_15WorkerInterfaceEEEUlvE_JEENSt15__invoke_resultIT_JDpT0_EE4typeEOS7_DpOS8_
   fun:_ZNSt6thread8_InvokerISt5tupleIJZN2tf8Executor6_spawnEmSt10shared_ptrINS2_15WorkerInterfaceEEEUlvE_EEE9_M_invokeIJLm0EEEEvSt12_Index_tupleIJXspT_EEE
   fun:_ZNSt6thread8_InvokerISt5tupleIJZN2tf8Executor6_spawnEmSt10shared_ptrINS2_15WorkerInterfaceEEEUlvE_EEEclEv
   fun:_ZNSt6thread11_State_implINS_8_InvokerISt5tupleIJZN2tf8Executor6_spawnEmSt10shared_ptrINS3_15WorkerInterfaceEEEUlvE_EEEEE6_M_runEv
   obj:/usr/lib/x86_64-linux-gnu/libstdc++.so.6.0.33
}
{
   <insert_a_suppression_name_here>
   Helgrind:Race
   fun:_ZN2tf8Executor25_invoke_runtime_task_implERNS_6WorkerEPNS_4NodeERSt8functionIFvRNS_7RuntimeEEE
   fun:_ZN2tf8Executor18_invoke_async_taskERNS_6WorkerEPNS_4NodeE
   fun:_ZN2tf8Executor7_invokeERNS_6WorkerEPNS_4NodeE
   fun:_ZN2tf8Executor13_exploit_taskERNS_6WorkerERPNS_4NodeE
   fun:_ZZN2tf8Executor6_spawnEmSt10shared_ptrINS_15WorkerInterfaceEEENKUlvE_clEv
   fun:_ZSt13__invoke_implIvZN2tf8Executor6_spawnEmSt10shared_ptrINS0_15WorkerInterfaceEEEUlvE_JEET_St14__invoke_otherOT0_DpOT1_
   fun:_ZSt8__invokeIZN2tf8Executor6_spawnEmSt10shared_ptrINS0_15WorkerInterfaceEEEUlvE_JEENSt15__invoke_resultIT_JDpT0_EE4typeEOS7_DpOS8_
   fun:_ZNSt6thread8_InvokerISt5tupleIJZN2tf8Executor6_spawnEmSt10shared_ptrINS2_15WorkerInterfaceEEEUlvE_EEE9_M_invokeIJLm0EEEEvSt12_Index_tupleIJXspT_EEE
   fun:_ZNSt6thread8_InvokerISt5tupleIJZN2tf8Executor6_spawnEmSt10shared_ptrINS2_15WorkerInterfaceEEEUlvE_EEEclEv
   fun:_ZNSt6thread11_State_implINS_8_InvokerISt5tupleIJZN2tf8Executor6_spawnEmSt10shared_ptrINS3_15WorkerInterfaceEEEUlvE_EEEEE6_M_runEv
   obj:/usr/lib/x86_64-linux-gnu/libstdc++.so.6.0.33
   obj:/usr/libexec/valgrind/vgpreload_helgrind-amd64-linux.so
}
{
   <insert_a_suppression_name_here>
   Helgrind:Race
   fun:_ZN2tf8Executor25_invoke_runtime_task_implERNS_6WorkerEPNS_4NodeERSt8functionIFvRNS_7RuntimeEEE
   fun:_ZN2tf8Executor18_invoke_async_taskERNS_6WorkerEPNS_4NodeE
   fun:_ZN2tf8Executor7_invokeERNS_6WorkerEPNS_4NodeE
   fun:_ZN2tf8Executor13_exploit_taskERNS_6WorkerERPNS_4NodeE
   fun:_ZZN2tf8Executor6_spawnEmSt10shared_ptrINS_15WorkerInterfaceEEENKUlvE_clEv
   fun:_ZSt13__invoke_implIvZN2tf8Executor6_spawnEmSt10shared_ptrINS0_15WorkerInterfaceEEEUlvE_JEET_St14__invoke_otherOT0_DpOT1_
   fun:_ZSt8__invokeIZN2tf8Executor6_spawnEmSt10shared_ptrINS0_15WorkerInterfaceEEEUlvE_JEENSt15__invoke_resultIT_JDpT0_EE4typeEOS7_DpOS8_
   fun:_ZNSt6thread8_InvokerISt5tupleIJZN2tf8Executor6_spawnEmSt10shared_ptrINS2_15WorkerInterfaceEEEUlvE_EEE9_M_invokeIJLm0EEEEvSt12_Index_tupleIJXspT_EEE
   fun:_ZNSt6thread8_InvokerISt5tupleIJZN2tf8Executor6_spawnEmSt10shared_ptrINS2_15WorkerInterfaceEEEUlvE_EEEclEv
   fun:_ZNSt6thread11_State_implINS_8_InvokerISt5tupleIJZN2tf8Executor6_spawnEmSt10shared_ptrINS3_15WorkerInterfaceEEEUlvE_EEEEE6_M_runEv
   obj:/usr/lib/x86_64-linux-gnu/libstdc++.so.6.0.33
   obj:/usr/libexec/valgrind/vgpreload_helgrind-amd64-linux.so
}
{
   <insert_a_suppression_name_here>
   Helgrind:Race
   fun:_ZNKSt7variantIJSt8functionIFvvEES0_IFvRN2tf7RuntimeEEES0_IFvS5_bEEEE5indexEv
   fun:_ZSt10__do_visitIvZNSt8__detail9__variant16_Variant_storageILb0EJSt8functionIFvvEES3_IFvRN2tf7RuntimeEEES3_IFvS8_bEEEE8_M_resetEvEUlOT_E_JRSt7variantIJS5_SA_SC_EEEEDcOT0_DpOT1_
   fun:_ZNSt8__detail9__variant16_Variant_storageILb0EJSt8functionIFvvEES2_IFvRN2tf7RuntimeEEES2_IFvS7_bEEEE8_M_resetEv
   fun:_ZNSt8__detail9__variant16_Variant_storageILb0EJSt8functionIFvvEES2_IFvRN2tf7RuntimeEEES2_IFvS7_bEEEED1Ev
   fun:_ZNSt8__detail9__variant15_Copy_ctor_baseILb0EJSt8functionIFvvEES2_IFvRN2tf7RuntimeEEES2_IFvS7_bEEEED1Ev
   fun:_ZNSt8__detail9__variant15_Move_ctor_baseILb0EJSt8functionIFvvEES2_IFvRN2tf7RuntimeEEES2_IFvS7_bEEEED1Ev
   fun:_ZNSt8__detail9__variant17_Copy_assign_baseILb0EJSt8functionIFvvEES2_IFvRN2tf7RuntimeEEES2_IFvS7_bEEEED1Ev
   fun:_ZNSt8__detail9__variant17_Move_assign_baseILb0EJSt8functionIFvvEES2_IFvRN2tf7RuntimeEEES2_IFvS7_bEEEED1Ev
   fun:_ZNSt8__detail9__variant13_Variant_baseIJSt8functionIFvvEES2_IFvRN2tf7RuntimeEEES2_IFvS7_bEEEED1Ev
   fun:_ZNSt7variantIJSt8functionIFvvEES0_IFvRN2tf7RuntimeEEES0_IFvS5_bEEEED1Ev
   fun:_ZN2tf4Node5AsyncD1Ev
   fun:_ZSt10destroy_atIN2tf4Node5AsyncEEvPT_
}
{
   <insert_a_suppression_name_here>
   Helgrind:Race
   fun:_ZNKSt12__shared_ptrINSt13__future_base13_State_baseV2ELN9__gnu_cxx12_Lock_policyE2EEcvbEv
   fun:_ZNSt7promiseIvED1Ev
   fun:_ZN2tf8TopologyD1Ev
   fun:_ZSt10destroy_atIN2tf8TopologyEEvPT_
   fun:_ZSt8_DestroyIN2tf8TopologyEEvPT_
   fun:destroy<tf::Topology>
   fun:_ZNSt23_Sp_counted_ptr_inplaceIN2tf8TopologyESaIvELN9__gnu_cxx12_Lock_policyE2EE10_M_disposeEv
   fun:_ZNSt16_Sp_counted_baseILN9__gnu_cxx12_Lock_policyE2EE19_M_release_last_useEv
   fun:_ZNSt16_Sp_counted_baseILN9__gnu_cxx12_Lock_policyE2EE24_M_release_last_use_coldEv
   fun:_ZNSt16_Sp_counted_baseILN9__gnu_cxx12_Lock_policyE2EE10_M_releaseEv
   fun:_ZNSt14__shared_countILN9__gnu_cxx12_Lock_policyE2EED1Ev
   fun:_ZNSt12__shared_ptrIN2tf8TopologyELN9__gnu_cxx12_Lock_policyE2EED1Ev
   fun:_ZNSt10shared_ptrIN2tf8TopologyEED1Ev
}
{
   <insert_a_suppression_name_here>
   Helgrind:Race
   fun:_ZNSt15__uniq_ptr_implINSt13__future_base7_ResultIvEENS0_12_Result_base8_DeleterEE7releaseEv
   fun:_ZNSt10unique_ptrINSt13__future_base7_ResultIvEENS0_12_Result_base8_DeleterEE7releaseEv
   fun:_ZNSt10unique_ptrINSt13__future_base12_Result_baseENS1_8_DeleterEEC1INS0_7_ResultIvEES2_vEEOS_IT_T0_E
   fun:_ZNSt7promiseIvED1Ev
   fun:_ZN2tf8TopologyD1Ev
   fun:_ZSt10destroy_atIN2tf8TopologyEEvPT_
   fun:_ZSt8_DestroyIN2tf8TopologyEEvPT_
   fun:destroy<tf::Topology>
   fun:_ZNSt23_Sp_counted_ptr_inplaceIN2tf8TopologyESaIvELN9__gnu_cxx12_Lock_policyE2EE10_M_disposeEv
   fun:_ZNSt16_Sp_counted_baseILN9__gnu_cxx12_Lock_policyE2EE19_M_release_last_useEv
   fun:_ZNSt16_Sp_counted_baseILN9__gnu_cxx12_Lock_policyE2EE24_M_release_last_use_coldEv
   fun:_ZNSt16_Sp_counted_baseILN9__gnu_cxx12_Lock_policyE2EE10_M_releaseEv
   fun:_ZNSt14__shared_countILN9__gnu_cxx12_Lock_policyE2EED1Ev
}
{
   <insert_a_suppression_name_here>
   Helgrind:Race
   fun:_ZNSt15__uniq_ptr_implINSt13__future_base7_ResultIvEENS0_12_Result_base8_DeleterEE7releaseEv
   fun:_ZNSt10unique_ptrINSt13__future_base7_ResultIvEENS0_12_Result_base8_DeleterEE7releaseEv
   fun:_ZNSt10unique_ptrINSt13__future_base12_Result_baseENS1_8_DeleterEEC1INS0_7_ResultIvEES2_vEEOS_IT_T0_E
   fun:_ZNSt7promiseIvED1Ev
   fun:_ZN2tf8TopologyD1Ev
   fun:_ZSt10destroy_atIN2tf8TopologyEEvPT_
   fun:_ZSt8_DestroyIN2tf8TopologyEEvPT_
   fun:destroy<tf::Topology>
   fun:_ZNSt23_Sp_counted_ptr_inplaceIN2tf8TopologyESaIvELN9__gnu_cxx12_Lock_policyE2EE10_M_disposeEv
   fun:_ZNSt16_Sp_counted_baseILN9__gnu_cxx12_Lock_policyE2EE19_M_release_last_useEv
   fun:_ZNSt16_Sp_counted_baseILN9__gnu_cxx12_Lock_policyE2EE24_M_release_last_use_coldEv
   fun:_ZNSt16_Sp_counted_baseILN9__gnu_cxx12_Lock_policyE2EE10_M_releaseEv
   fun:_ZNSt14__shared_countILN9__gnu_cxx12_Lock_policyE2EED1Ev
}
{
   <insert_a_suppression_name_here>
   Helgrind:Race
   fun:_ZNSt14_Function_base13_Base_managerIZZN4mpcf2ph10RipserTaskIfE9run_asyncERNS1_8ExecutorEENKUlRKSt6vectorImSaImEEE_clESB_EUlvE_E10_M_destroyERSt9_Any_dataSt17integral_constantIbLb0EE
   fun:_ZNSt14_Function_base13_Base_managerIZZN4mpcf2ph10RipserTaskIfE9run_asyncERNS1_8ExecutorEENKUlRKSt6vectorImSaImEEE_clESB_EUlvE_E10_M_managerERSt9_Any_dataRKSF_St18_Manager_operation
   fun:_ZNSt17_Function_handlerIFvvEZZN4mpcf2ph10RipserTaskIfE9run_asyncERNS1_8ExecutorEENKUlRKSt6vectorImSaImEEE_clESB_EUlvE_E10_M_managerERSt9_Any_dataRKSF_St18_Manager_operation
   fun:_ZNSt14_Function_baseD1Ev
   fun:_ZNSt8functionIFvvEED1Ev
   fun:_ZN2tf4Node6StaticD1Ev
   fun:_ZSt10destroy_atIN2tf4Node6StaticEEvPT_
   fun:_ZSt8_DestroyIN2tf4Node6StaticEEvPT_
   fun:_ZZNSt8__detail9__variant16_Variant_storageILb0EJSt9monostateN2tf4Node6StaticENS4_7RuntimeENS4_20NonpreemptiveRuntimeENS4_7SubflowENS4_9ConditionENS4_14MultiConditionENS4_6ModuleENS4_5AsyncENS4_14DependentAsyncEEE8_M_resetEvENUlOT_E_clIRS5_EEDaSG_
   fun:_ZSt13__invoke_implIvZNSt8__detail9__variant16_Variant_storageILb0EJSt9monostateN2tf4Node6StaticENS5_7RuntimeENS5_20NonpreemptiveRuntimeENS5_7SubflowENS5_9ConditionENS5_14MultiConditionENS5_6ModuleENS5_5AsyncENS5_14DependentAsyncEEE8_M_resetEvEUlOT_E_JRS6_EESG_St14__invoke_otherOT0_DpOT1_
   fun:_ZSt10__invoke_rIvZNSt8__detail9__variant16_Variant_storageILb0EJSt9monostateN2tf4Node6StaticENS5_7RuntimeENS5_20NonpreemptiveRuntimeENS5_7SubflowENS5_9ConditionENS5_14MultiConditionENS5_6ModuleENS5_5AsyncENS5_14DependentAsyncEEE8_M_resetEvEUlOT_E_JRS6_EENSt9enable_ifIX16is_invocable_r_vISG_T0_DpT1_EESG_E4typeEOSL_DpOSM_
   fun:_ZNSt8__detail9__variant17__gen_vtable_implINS0_12_Multi_arrayIPFvOZNS0_16_Variant_storageILb0EJSt9monostateN2tf4Node6StaticENS6_7RuntimeENS6_20NonpreemptiveRuntimeENS6_7SubflowENS6_9ConditionENS6_14MultiConditionENS6_6ModuleENS6_5AsyncENS6_14DependentAsyncEEE8_M_resetEvEUlOT_E_RSt7variantIJS4_S7_S8_S9_SA_SB_SC_SD_SE_SF_EEEJEEESt16integer_sequenceImJLm1EEEE14__visit_invokeESK_SN_
}
{
   <insert_a_suppression_name_here>
   Helgrind:Race
   fun:_ZNSt6vectorImSaImEED1Ev
   fun:_ZZZN4mpcf2ph10RipserTaskIfE9run_asyncERNS_8ExecutorEENKUlRKSt6vectorImSaImEEE_clES9_ENUlvE_D1Ev
   fun:_ZNSt14_Function_base13_Base_managerIZZN4mpcf2ph10RipserTaskIfE9run_asyncERNS1_8ExecutorEENKUlRKSt6vectorImSaImEEE_clESB_EUlvE_E10_M_destroyERSt9_Any_dataSt17integral_constantIbLb0EE
   fun:_ZNSt14_Function_base13_Base_managerIZZN4mpcf2ph10RipserTaskIfE9run_asyncERNS1_8ExecutorEENKUlRKSt6vectorImSaImEEE_clESB_EUlvE_E10_M_managerERSt9_Any_dataRKSF_St18_Manager_operation
   fun:_ZNSt17_Function_handlerIFvvEZZN4mpcf2ph10RipserTaskIfE9run_asyncERNS1_8ExecutorEENKUlRKSt6vectorImSaImEEE_clESB_EUlvE_E10_M_managerERSt9_Any_dataRKSF_St18_Manager_operation
   fun:_ZNSt14_Function_baseD1Ev
   fun:_ZNSt8functionIFvvEED1Ev
   fun:_ZN2tf4Node6StaticD1Ev
   fun:_ZSt10destroy_atIN2tf4Node6StaticEEvPT_
   fun:_ZSt8_DestroyIN2tf4Node6StaticEEvPT_
   fun:_ZZNSt8__detail9__variant16_Variant_storageILb0EJSt9monostateN2tf4Node6StaticENS4_7RuntimeENS4_20NonpreemptiveRuntimeENS4_7SubflowENS4_9ConditionENS4_14MultiConditionENS4_6ModuleENS4_5AsyncENS4_14DependentAsyncEEE8_M_resetEvENUlOT_E_clIRS5_EEDaSG_
   fun:_ZSt13__invoke_implIvZNSt8__detail9__variant16_Variant_storageILb0EJSt9monostateN2tf4Node6StaticENS5_7RuntimeENS5_20NonpreemptiveRuntimeENS5_7SubflowENS5_9ConditionENS5_14MultiConditionENS5_6ModuleENS5_5AsyncENS5_14DependentAsyncEEE8_M_resetEvEUlOT_E_JRS6_EESG_St14__invoke_otherOT0_DpOT1_
}
{
   <insert_a_suppression_name_here>
   Helgrind:Race
   fun:_ZNSt6vectorImSaImEED1Ev
   fun:_ZZZN4mpcf2ph10RipserTaskIfE9run_asyncERNS_8ExecutorEENKUlRKSt6vectorImSaImEEE_clES9_ENUlvE_D1Ev
   fun:_ZNSt14_Function_base13_Base_managerIZZN4mpcf2ph10RipserTaskIfE9run_asyncERNS1_8ExecutorEENKUlRKSt6vectorImSaImEEE_clESB_EUlvE_E10_M_destroyERSt9_Any_dataSt17integral_constantIbLb0EE
   fun:_ZNSt14_Function_base13_Base_managerIZZN4mpcf2ph10RipserTaskIfE9run_asyncERNS1_8ExecutorEENKUlRKSt6vectorImSaImEEE_clESB_EUlvE_E10_M_managerERSt9_Any_dataRKSF_St18_Manager_operation
   fun:_ZNSt17_Function_handlerIFvvEZZN4mpcf2ph10RipserTaskIfE9run_asyncERNS1_8ExecutorEENKUlRKSt6vectorImSaImEEE_clESB_EUlvE_E10_M_managerERSt9_Any_dataRKSF_St18_Manager_operation
   fun:_ZNSt14_Function_baseD1Ev
   fun:_ZNSt8functionIFvvEED1Ev
   fun:_ZN2tf4Node6StaticD1Ev
   fun:_ZSt10destroy_atIN2tf4Node6StaticEEvPT_
   fun:_ZSt8_DestroyIN2tf4Node6StaticEEvPT_
   fun:_ZZNSt8__detail9__variant16_Variant_storageILb0EJSt9monostateN2tf4Node6StaticENS4_7RuntimeENS4_20NonpreemptiveRuntimeENS4_7SubflowENS4_9ConditionENS4_14MultiConditionENS4_6ModuleENS4_5AsyncENS4_14DependentAsyncEEE8_M_resetEvENUlOT_E_clIRS5_EEDaSG_
   fun:_ZSt13__invoke_implIvZNSt8__detail9__variant16_Variant_storageILb0EJSt9monostateN2tf4Node6StaticENS5_7RuntimeENS5_20NonpreemptiveRuntimeENS5_7SubflowENS5_9ConditionENS5_14MultiConditionENS5_6ModuleENS5_5AsyncENS5_14DependentAsyncEEE8_M_resetEvEUlOT_E_JRS6_EESG_St14__invoke_otherOT0_DpOT1_
}
{
   <insert_a_suppression_name_here>
   Helgrind:Race
   fun:_ZNSt6vectorIN4mpcf2ph15PersistencePairIdEESaIS3_EED1Ev
   fun:_ZN4mpcf2ph7BarcodeIdED1Ev
   fun:_ZSt10destroy_atIN4mpcf2ph7BarcodeIdEEEvPT_
   fun:destroy<mpcf::ph::Barcode<double> >
   fun:_ZNSt22_Sp_counted_array_baseISaIN4mpcf2ph7BarcodeIdEEEE16_M_dispose_arrayEPS3_
   fun:_ZNSt17_Sp_counted_arrayISaIN4mpcf2ph7BarcodeIdEEELN9__gnu_cxx12_Lock_policyE2EE10_M_disposeEv
   fun:_ZNSt16_Sp_counted_baseILN9__gnu_cxx12_Lock_policyE2EE10_M_releaseEv
   fun:_ZNSt14__shared_countILN9__gnu_cxx12_Lock_policyE2EED1Ev
   fun:_ZNSt12__shared_ptrIA_N4mpcf2ph7BarcodeIdEELN9__gnu_cxx12_Lock_policyE2EED1Ev
   fun:_ZNSt10shared_ptrIA_N4mpcf2ph7BarcodeIdEEED1Ev
   fun:_ZN4mpcf6TensorINS_2ph7BarcodeIdEEED1Ev
   fun:_ZNKSt14default_deleteIN4mpcf6TensorINS0_2ph7BarcodeIdEEEEEclEPS5_
   fun:_ZNSt10unique_ptrIN4mpcf6TensorINS0_2ph7BarcodeIdEEEESt14default_deleteIS5_EED1Ev
}
{
   <insert_a_suppression_name_here>
   Helgrind:Race
   fun:_ZNSt6vectorIN4mpcf2ph15PersistencePairIdEESaIS3_EED1Ev
   fun:_ZN4mpcf2ph7BarcodeIdED1Ev
   fun:_ZSt10destroy_atIN4mpcf2ph7BarcodeIdEEEvPT_
   fun:destroy<mpcf::ph::Barcode<double> >
   fun:_ZNSt22_Sp_counted_array_baseISaIN4mpcf2ph7BarcodeIdEEEE16_M_dispose_arrayEPS3_
   fun:_ZNSt17_Sp_counted_arrayISaIN4mpcf2ph7BarcodeIdEEELN9__gnu_cxx12_Lock_policyE2EE10_M_disposeEv
   fun:_ZNSt16_Sp_counted_baseILN9__gnu_cxx12_Lock_policyE2EE10_M_releaseEv
   fun:_ZNSt14__shared_countILN9__gnu_cxx12_Lock_policyE2EED1Ev
   fun:_ZNSt12__shared_ptrIA_N4mpcf2ph7BarcodeIdEELN9__gnu_cxx12_Lock_policyE2EED1Ev
   fun:_ZNSt10shared_ptrIA_N4mpcf2ph7BarcodeIdEEED1Ev
   fun:_ZN4mpcf6TensorINS_2ph7BarcodeIdEEED1Ev
   fun:_ZNKSt14default_deleteIN4mpcf6TensorINS0_2ph7BarcodeIdEEEEEclEPS5_
   fun:_ZNSt10unique_ptrIN4mpcf6TensorINS0_2ph7BarcodeIdEEEESt14default_deleteIS5_EED1Ev
}
{
   <insert_a_suppression_name_here>
   Helgrind:Race
   fun:_ZNSt12_Vector_baseIN4mpcf2ph15PersistencePairIdEESaIS3_EED1Ev
   fun:_ZNSt6vectorIN4mpcf2ph15PersistencePairIdEESaIS3_EED1Ev
   fun:_ZN4mpcf2ph7BarcodeIdED1Ev
   fun:_ZSt10destroy_atIN4mpcf2ph7BarcodeIdEEEvPT_
   fun:destroy<mpcf::ph::Barcode<double> >
   fun:_ZNSt22_Sp_counted_array_baseISaIN4mpcf2ph7BarcodeIdEEEE16_M_dispose_arrayEPS3_
   fun:_ZNSt17_Sp_counted_arrayISaIN4mpcf2ph7BarcodeIdEEELN9__gnu_cxx12_Lock_policyE2EE10_M_disposeEv
   fun:_ZNSt16_Sp_counted_baseILN9__gnu_cxx12_Lock_policyE2EE10_M_releaseEv
   fun:_ZNSt14__shared_countILN9__gnu_cxx12_Lock_policyE2EED1Ev
   fun:_ZNSt12__shared_ptrIA_N4mpcf2ph7BarcodeIdEELN9__gnu_cxx12_Lock_policyE2EED1Ev
   fun:_ZNSt10shared_ptrIA_N4mpcf2ph7BarcodeIdEEED1Ev
   fun:_ZN4mpcf6TensorINS_2ph7BarcodeIdEEED1Ev
   fun:_ZNKSt14default_deleteIN4mpcf6TensorINS0_2ph7BarcodeIdEEEEEclEPS5_
}
{
   <insert_a_suppression_name_here>
   Helgrind:Race
   fun:_ZNSt6vectorIN4mpcf2ph15PersistencePairIfEESaIS3_EED1Ev
   fun:_ZN4mpcf2ph7BarcodeIfED1Ev
   fun:_ZSt10destroy_atIN4mpcf2ph7BarcodeIfEEEvPT_
   fun:destroy<mpcf::ph::Barcode<float> >
   fun:_ZNSt22_Sp_counted_array_baseISaIN4mpcf2ph7BarcodeIfEEEE16_M_dispose_arrayEPS3_
   fun:_ZNSt17_Sp_counted_arrayISaIN4mpcf2ph7BarcodeIfEEELN9__gnu_cxx12_Lock_policyE2EE10_M_disposeEv
   fun:_ZNSt16_Sp_counted_baseILN9__gnu_cxx12_Lock_policyE2EE10_M_releaseEv
   fun:_ZNSt14__shared_countILN9__gnu_cxx12_Lock_policyE2EED1Ev
   fun:_ZNSt12__shared_ptrIA_N4mpcf2ph7BarcodeIfEELN9__gnu_cxx12_Lock_policyE2EED1Ev
   fun:_ZNSt10shared_ptrIA_N4mpcf2ph7BarcodeIfEEED1Ev
   fun:_ZN4mpcf6TensorINS_2ph7BarcodeIfEEED1Ev
   fun:_ZNKSt14default_deleteIN4mpcf6TensorINS0_2ph7BarcodeIfEEEEEclEPS5_
   fun:_ZNSt10unique_ptrIN4mpcf6TensorINS0_2ph7BarcodeIfEEEESt14default_deleteIS5_EED1Ev
}
{
   <insert_a_suppression_name_here>
   Helgrind:Race
   fun:_ZNSt6vectorIN4mpcf2ph15PersistencePairIfEESaIS3_EED1Ev
   fun:_ZN4mpcf2ph7BarcodeIfED1Ev
   fun:_ZSt10destroy_atIN4mpcf2ph7BarcodeIfEEEvPT_
   fun:destroy<mpcf::ph::Barcode<float> >
   fun:_ZNSt22_Sp_counted_array_baseISaIN4mpcf2ph7BarcodeIfEEEE16_M_dispose_arrayEPS3_
   fun:_ZNSt17_Sp_counted_arrayISaIN4mpcf2ph7BarcodeIfEEELN9__gnu_cxx12_Lock_policyE2EE10_M_disposeEv
   fun:_ZNSt16_Sp_counted_baseILN9__gnu_cxx12_Lock_policyE2EE10_M_releaseEv
   fun:_ZNSt14__shared_countILN9__gnu_cxx12_Lock_policyE2EED1Ev
   fun:_ZNSt12__shared_ptrIA_N4mpcf2ph7BarcodeIfEELN9__gnu_cxx12_Lock_policyE2EED1Ev
   fun:_ZNSt10shared_ptrIA_N4mpcf2ph7BarcodeIfEEED1Ev
   fun:_ZN4mpcf6TensorINS_2ph7BarcodeIfEEED1Ev
   fun:_ZNKSt14default_deleteIN4mpcf6TensorINS0_2ph7BarcodeIfEEEEEclEPS5_
   fun:_ZNSt10unique_ptrIN4mpcf6TensorINS0_2ph7BarcodeIfEEEESt14default_deleteIS5_EED1Ev
}
{
   <insert_a_suppression_name_here>
   Helgrind:Race
   fun:_ZNSt12_Vector_baseIN4mpcf2ph15PersistencePairIfEESaIS3_EED1Ev
   fun:_ZNSt6vectorIN4mpcf2ph15PersistencePairIfEESaIS3_EED1Ev
   fun:_ZN4mpcf2ph7BarcodeIfED1Ev
   fun:_ZSt10destroy_atIN4mpcf2ph7BarcodeIfEEEvPT_
   fun:destroy<mpcf::ph::Barcode<float> >
   fun:_ZNSt22_Sp_counted_array_baseISaIN4mpcf2ph7BarcodeIfEEEE16_M_dispose_arrayEPS3_
   fun:_ZNSt17_Sp_counted_arrayISaIN4mpcf2ph7BarcodeIfEEELN9__gnu_cxx12_Lock_policyE2EE10_M_disposeEv
   fun:_ZNSt16_Sp_counted_baseILN9__gnu_cxx12_Lock_policyE2EE10_M_releaseEv
   fun:_ZNSt14__shared_countILN9__gnu_cxx12_Lock_policyE2EED1Ev
   fun:_ZNSt12__shared_ptrIA_N4mpcf2ph7BarcodeIfEELN9__gnu_cxx12_Lock_policyE2EED1Ev
   fun:_ZNSt10shared_ptrIA_N4mpcf2ph7BarcodeIfEEED1Ev
   fun:_ZN4mpcf6TensorINS_2ph7BarcodeIfEEED1Ev
   fun:_ZNKSt14default_deleteIN4mpcf6TensorINS0_2ph7BarcodeIfEEEEEclEPS5_
}
{
   <insert_a_suppression_name_here>
   Helgrind:Race
   fun:_ZZZN4mpcf2ph10RipserTaskIdE9run_asyncERNS_8ExecutorEENKUlRKSt6vectorImSaImEEE_clES9_ENKUlvE_clEv
   fun:_ZSt13__invoke_implIvRZZN4mpcf2ph10RipserTaskIdE9run_asyncERNS0_8ExecutorEENKUlRKSt6vectorImSaImEEE_clESA_EUlvE_JEET_St14__invoke_otherOT0_DpOT1_
   fun:_ZSt10__invoke_rIvRZZN4mpcf2ph10RipserTaskIdE9run_asyncERNS0_8ExecutorEENKUlRKSt6vectorImSaImEEE_clESA_EUlvE_JEENSt9enable_ifIX16is_invocable_r_vIT_T0_DpT1_EESF_E4typeEOSG_DpOSH_
   fun:_ZNSt17_Function_handlerIFvvEZZN4mpcf2ph10RipserTaskIdE9run_asyncERNS1_8ExecutorEENKUlRKSt6vectorImSaImEEE_clESB_EUlvE_E9_M_invokeERKSt9_Any_data
   fun:_ZNKSt8functionIFvvEEclEv
   fun:_ZN2tf8Executor19_invoke_static_taskERNS_6WorkerEPNS_4NodeE
   fun:_ZN2tf8Executor7_invokeERNS_6WorkerEPNS_4NodeE
   fun:_ZN2tf8Executor13_exploit_taskERNS_6WorkerERPNS_4NodeE
   fun:_ZZN2tf8Executor6_spawnEmSt10shared_ptrINS_15WorkerInterfaceEEENKUlvE_clEv
   fun:_ZSt13__invoke_implIvZN2tf8Executor6_spawnEmSt10shared_ptrINS0_15WorkerInterfaceEEEUlvE_JEET_St14__invoke_otherOT0_DpOT1_
   fun:_ZSt8__invokeIZN2tf8Executor6_spawnEmSt10shared_ptrINS0_15WorkerInterfaceEEEUlvE_JEENSt15__invoke_resultIT_JDpT0_EE4typeEOS7_DpOS8_
   fun:_ZNSt6thread8_InvokerISt5tupleIJZN2tf8Executor6_spawnEmSt10shared_ptrINS2_15WorkerInterfaceEEEUlvE_EEE9_M_invokeIJLm0EEEEvSt12_Index_tupleIJXspT_EEE
}
{
   <insert_a_suppression_name_here>
   Helgrind:Race
   fun:_ZZZN4mpcf2ph10RipserTaskIdE9run_asyncERNS_8ExecutorEENKUlRKSt6vectorImSaImEEE_clES9_ENKUlvE_clEv
   fun:_ZSt13__invoke_implIvRZZN4mpcf2ph10RipserTaskIdE9run_asyncERNS0_8ExecutorEENKUlRKSt6vectorImSaImEEE_clESA_EUlvE_JEET_St14__invoke_otherOT0_DpOT1_
   fun:_ZSt10__invoke_rIvRZZN4mpcf2ph10RipserTaskIdE9run_asyncERNS0_8ExecutorEENKUlRKSt6vectorImSaImEEE_clESA_EUlvE_JEENSt9enable_ifIX16is_invocable_r_vIT_T0_DpT1_EESF_E4typeEOSG_DpOSH_
   fun:_ZNSt17_Function_handlerIFvvEZZN4mpcf2ph10RipserTaskIdE9run_asyncERNS1_8ExecutorEENKUlRKSt6vectorImSaImEEE_clESB_EUlvE_E9_M_invokeERKSt9_Any_data
   fun:_ZNKSt8functionIFvvEEclEv
   fun:_ZN2tf8Executor19_invoke_static_taskERNS_6WorkerEPNS_4NodeE
   fun:_ZN2tf8Executor7_invokeERNS_6WorkerEPNS_4NodeE
   fun:_ZN2tf8Executor13_exploit_taskERNS_6WorkerERPNS_4NodeE
   fun:_ZZN2tf8Executor6_spawnEmSt10shared_ptrINS_15WorkerInterfaceEEENKUlvE_clEv
   fun:_ZSt13__invoke_implIvZN2tf8Executor6_spawnEmSt10shared_ptrINS0_15WorkerInterfaceEEEUlvE_JEET_St14__invoke_otherOT0_DpOT1_
   fun:_ZSt8__invokeIZN2tf8Executor6_spawnEmSt10shared_ptrINS0_15WorkerInterfaceEEEUlvE_JEENSt15__invoke_resultIT_JDpT0_EE4typeEOS7_DpOS8_
   fun:_ZNSt6thread8_InvokerISt5tupleIJZN2tf8Executor6_spawnEmSt10shared_ptrINS2_15WorkerInterfaceEEEUlvE_EEE9_M_invokeIJLm0EEEEvSt12_Index_tupleIJXspT_EEE
}
{
   <insert_a_suppression_name_here>
   Helgrind:Race
   fun:_ZZZN4mpcf2ph10RipserTaskIdE9run_asyncERNS_8ExecutorEENKUlRKSt6vectorImSaImEEE_clES9_ENKUlvE_clEv
   fun:_ZSt13__invoke_implIvRZZN4mpcf2ph10RipserTaskIdE9run_asyncERNS0_8ExecutorEENKUlRKSt6vectorImSaImEEE_clESA_EUlvE_JEET_St14__invoke_otherOT0_DpOT1_
   fun:_ZSt10__invoke_rIvRZZN4mpcf2ph10RipserTaskIdE9run_asyncERNS0_8ExecutorEENKUlRKSt6vectorImSaImEEE_clESA_EUlvE_JEENSt9enable_ifIX16is_invocable_r_vIT_T0_DpT1_EESF_E4typeEOSG_DpOSH_
   fun:_ZNSt17_Function_handlerIFvvEZZN4mpcf2ph10RipserTaskIdE9run_asyncERNS1_8ExecutorEENKUlRKSt6vectorImSaImEEE_clESB_EUlvE_E9_M_invokeERKSt9_Any_data
   fun:_ZNKSt8functionIFvvEEclEv
   fun:_ZN2tf8Executor19_invoke_static_taskERNS_6WorkerEPNS_4NodeE
   fun:_ZN2tf8Executor7_invokeERNS_6WorkerEPNS_4NodeE
   fun:_ZN2tf8Executor13_exploit_taskERNS_6WorkerERPNS_4NodeE
   fun:_ZZN2tf8Executor6_spawnEmSt10shared_ptrINS_15WorkerInterfaceEEENKUlvE_clEv
   fun:_ZSt13__invoke_implIvZN2tf8Executor6_spawnEmSt10shared_ptrINS0_15WorkerInterfaceEEEUlvE_JEET_St14__invoke_otherOT0_DpOT1_
   fun:_ZSt8__invokeIZN2tf8Executor6_spawnEmSt10shared_ptrINS0_15WorkerInterfaceEEEUlvE_JEENSt15__invoke_resultIT_JDpT0_EE4typeEOS7_DpOS8_
   fun:_ZNSt6thread8_InvokerISt5tupleIJZN2tf8Executor6_spawnEmSt10shared_ptrINS2_15WorkerInterfaceEEEUlvE_EEE9_M_invokeIJLm0EEEEvSt12_Index_tupleIJXspT_EEE
}
{
   <insert_a_suppression_name_here>
   Helgrind:Race
   fun:memmove
   fun:_ZNSt11__copy_moveILb0ELb1ESt26random_access_iterator_tagE8__copy_mIKmmEEPT0_PT_S7_S5_
   fun:_ZSt14__copy_move_a2ILb0EPKmPmET1_T0_S4_S3_
   fun:_ZSt14__copy_move_a1ILb0EPKmPmET1_T0_S4_S3_
   fun:_ZSt13__copy_move_aILb0EN9__gnu_cxx17__normal_iteratorIPKmSt6vectorImSaImEEEEPmET1_T0_SA_S9_
   fun:_ZSt4copyIN9__gnu_cxx17__normal_iteratorIPKmSt6vectorImSaImEEEEPmET0_T_SA_S9_
   fun:_ZNSt20__uninitialized_copyILb1EE13__uninit_copyIN9__gnu_cxx17__normal_iteratorIPKmSt6vectorImSaImEEEEPmEET0_T_SC_SB_
   fun:_ZSt18uninitialized_copyIN9__gnu_cxx17__normal_iteratorIPKmSt6vectorImSaImEEEEPmET0_T_SA_S9_
   fun:_ZSt22__uninitialized_copy_aIN9__gnu_cxx17__normal_iteratorIPKmSt6vectorImSaImEEEEPmmET0_T_SA_S9_RSaIT1_E
   fun:_ZNSt6vectorImSaImEE19_M_range_initializeIN9__gnu_cxx17__normal_iteratorIPKmS1_EEEEvT_S8_St20forward_iterator_tag
   fun:_ZNSt6vectorImSaImEEC1IN9__gnu_cxx17__normal_iteratorIPKmS1_EEvEET_S8_RKS0_
   fun:_ZN4mpcf2ph6detail41compute_persistence_euclidean_single_implIdEEvRKNS_6TensorINS3_IT_EEEERNS3_INS0_7BarcodeIS4_EEEEmRKSt6vectorImSaImEE
}
{
   <insert_a_suppression_name_here>
   Helgrind:Race
   fun:_ZNK4mpcf6TensorINS0_IdEEE19index_to_data_indexERKSt6vectorImSaImEE
   fun:_ZNK4mpcf6TensorINS0_IdEEE12index_to_refERKSt6vectorImSaImEE
   fun:_ZNK4mpcf6TensorINS0_IdEEEclERKSt6vectorImSaImEE
   fun:_ZN4mpcf2ph6detail41compute_persistence_euclidean_single_implIdEEvRKNS_6TensorINS3_IT_EEEERNS3_INS0_7BarcodeIS4_EEEEmRKSt6vectorImSaImEE
   fun:_ZZZN4mpcf2ph10RipserTaskIdE9run_asyncERNS_8ExecutorEENKUlRKSt6vectorImSaImEEE_clES9_ENKUlvE_clEv
   fun:_ZSt13__invoke_implIvRZZN4mpcf2ph10RipserTaskIdE9run_asyncERNS0_8ExecutorEENKUlRKSt6vectorImSaImEEE_clESA_EUlvE_JEET_St14__invoke_otherOT0_DpOT1_
   fun:_ZSt10__invoke_rIvRZZN4mpcf2ph10RipserTaskIdE9run_asyncERNS0_8ExecutorEENKUlRKSt6vectorImSaImEEE_clESA_EUlvE_JEENSt9enable_ifIX16is_invocable_r_vIT_T0_DpT1_EESF_E4typeEOSG_DpOSH_
   fun:_ZNSt17_Function_handlerIFvvEZZN4mpcf2ph10RipserTaskIdE9run_asyncERNS1_8ExecutorEENKUlRKSt6vectorImSaImEEE_clESB_EUlvE_E9_M_invokeERKSt9_Any_data
   fun:_ZNKSt8functionIFvvEEclEv
   fun:_ZN2tf8Executor19_invoke_static_taskERNS_6WorkerEPNS_4NodeE
   fun:_ZN2tf8Executor7_invokeERNS_6WorkerEPNS_4NodeE
   fun:_ZN2tf8Executor13_exploit_taskERNS_6WorkerERPNS_4NodeE
}
{
   <insert_a_suppression_name_here>
   Helgrind:Race
   fun:_ZSt13inner_productIN9__gnu_cxx17__normal_iteratorIPKmSt6vectorImSaImEEEES7_mET1_T_S9_T0_S8_
   fun:_ZNK4mpcf6TensorINS0_IdEEE19index_to_data_indexERKSt6vectorImSaImEE
   fun:_ZNK4mpcf6TensorINS0_IdEEE12index_to_refERKSt6vectorImSaImEE
   fun:_ZNK4mpcf6TensorINS0_IdEEEclERKSt6vectorImSaImEE
   fun:_ZN4mpcf2ph6detail41compute_persistence_euclidean_single_implIdEEvRKNS_6TensorINS3_IT_EEEERNS3_INS0_7BarcodeIS4_EEEEmRKSt6vectorImSaImEE
   fun:_ZZZN4mpcf2ph10RipserTaskIdE9run_asyncERNS_8ExecutorEENKUlRKSt6vectorImSaImEEE_clES9_ENKUlvE_clEv
   fun:_ZSt13__invoke_implIvRZZN4mpcf2ph10RipserTaskIdE9run_asyncERNS0_8ExecutorEENKUlRKSt6vectorImSaImEEE_clESA_EUlvE_JEET_St14__invoke_otherOT0_DpOT1_
   fun:_ZSt10__invoke_rIvRZZN4mpcf2ph10RipserTaskIdE9run_asyncERNS0_8ExecutorEENKUlRKSt6vectorImSaImEEE_clESA_EUlvE_JEENSt9enable_ifIX16is_invocable_r_vIT_T0_DpT1_EESF_E4typeEOSG_DpOSH_
   fun:_ZNSt17_Function_handlerIFvvEZZN4mpcf2ph10RipserTaskIdE9run_asyncERNS1_8ExecutorEENKUlRKSt6vectorImSaImEEE_clESB_EUlvE_E9_M_invokeERKSt9_Any_data
   fun:_ZNKSt8functionIFvvEEclEv
   fun:_ZN2tf8Executor19_invoke_static_taskERNS_6WorkerEPNS_4NodeE
   fun:_ZN2tf8Executor7_invokeERNS_6WorkerEPNS_4NodeE
}
{
   <insert_a_suppression_name_here>
   Helgrind:Race
   fun:_ZNK4mpcf6TensorINS0_IdEEE19index_to_data_indexERKSt6vectorImSaImEE
   fun:_ZNK4mpcf6TensorINS0_IdEEE12index_to_refERKSt6vectorImSaImEE
   fun:_ZNK4mpcf6TensorINS0_IdEEEclERKSt6vectorImSaImEE
   fun:_ZN4mpcf2ph6detail41compute_persistence_euclidean_single_implIdEEvRKNS_6TensorINS3_IT_EEEERNS3_INS0_7BarcodeIS4_EEEEmRKSt6vectorImSaImEE
   fun:_ZZZN4mpcf2ph10RipserTaskIdE9run_asyncERNS_8ExecutorEENKUlRKSt6vectorImSaImEEE_clES9_ENKUlvE_clEv
   fun:_ZSt13__invoke_implIvRZZN4mpcf2ph10RipserTaskIdE9run_asyncERNS0_8ExecutorEENKUlRKSt6vectorImSaImEEE_clESA_EUlvE_JEET_St14__invoke_otherOT0_DpOT1_
   fun:_ZSt10__invoke_rIvRZZN4mpcf2ph10RipserTaskIdE9run_asyncERNS0_8ExecutorEENKUlRKSt6vectorImSaImEEE_clESA_EUlvE_JEENSt9enable_ifIX16is_invocable_r_vIT_T0_DpT1_EESF_E4typeEOSG_DpOSH_
   fun:_ZNSt17_Function_handlerIFvvEZZN4mpcf2ph10RipserTaskIdE9run_asyncERNS1_8ExecutorEENKUlRKSt6vectorImSaImEEE_clESB_EUlvE_E9_M_invokeERKSt9_Any_data
   fun:_ZNKSt8functionIFvvEEclEv
   fun:_ZN2tf8Executor19_invoke_static_taskERNS_6WorkerEPNS_4NodeE
   fun:_ZN2tf8Executor7_invokeERNS_6WorkerEPNS_4NodeE
   fun:_ZN2tf8Executor13_exploit_taskERNS_6WorkerERPNS_4NodeE
}
{
   <insert_a_suppression_name_here>
   Helgrind:Race
   fun:_ZNKSt12__shared_ptrIA_N4mpcf6TensorIdEELN9__gnu_cxx12_Lock_policyE2EE3getEv
   fun:_ZNKSt19__shared_ptr_accessIA_N4mpcf6TensorIdEELN9__gnu_cxx12_Lock_policyE2ELb1ELb0EE6_M_getEv
   fun:_ZNKSt19__shared_ptr_accessIA_N4mpcf6TensorIdEELN9__gnu_cxx12_Lock_policyE2ELb1ELb0EEixEl
   fun:_ZNK4mpcf6TensorINS0_IdEEE12index_to_refERKSt6vectorImSaImEE
   fun:_ZNK4mpcf6TensorINS0_IdEEEclERKSt6vectorImSaImEE
   fun:_ZN4mpcf2ph6detail41compute_persistence_euclidean_single_implIdEEvRKNS_6TensorINS3_IT_EEEERNS3_INS0_7BarcodeIS4_EEEEmRKSt6vectorImSaImEE
   fun:_ZZZN4mpcf2ph10RipserTaskIdE9run_asyncERNS_8ExecutorEENKUlRKSt6vectorImSaImEEE_clES9_ENKUlvE_clEv
   fun:_ZSt13__invoke_implIvRZZN4mpcf2ph10RipserTaskIdE9run_asyncERNS0_8ExecutorEENKUlRKSt6vectorImSaImEEE_clESA_EUlvE_JEET_St14__invoke_otherOT0_DpOT1_
   fun:_ZSt10__invoke_rIvRZZN4mpcf2ph10RipserTaskIdE9run_asyncERNS0_8ExecutorEENKUlRKSt6vectorImSaImEEE_clESA_EUlvE_JEENSt9enable_ifIX16is_invocable_r_vIT_T0_DpT1_EESF_E4typeEOSG_DpOSH_
   fun:_ZNSt17_Function_handlerIFvvEZZN4mpcf2ph10RipserTaskIdE9run_asyncERNS1_8ExecutorEENKUlRKSt6vectorImSaImEEE_clESB_EUlvE_E9_M_invokeERKSt9_Any_data
   fun:_ZNKSt8functionIFvvEEclEv
   fun:_ZN2tf8Executor19_invoke_static_taskERNS_6WorkerEPNS_4NodeE
}
{
   <insert_a_suppression_name_here>
   Helgrind:Race
   fun:_ZNKSt6vectorImSaImEE4sizeEv
   fun:_ZNK4mpcf6TensorIdE4rankEv
   fun:_ZN4mpcf2ph6detail41compute_persistence_euclidean_single_implIdEEvRKNS_6TensorINS3_IT_EEEERNS3_INS0_7BarcodeIS4_EEEEmRKSt6vectorImSaImEE
   fun:_ZZZN4mpcf2ph10RipserTaskIdE9run_asyncERNS_8ExecutorEENKUlRKSt6vectorImSaImEEE_clES9_ENKUlvE_clEv
   fun:_ZSt13__invoke_implIvRZZN4mpcf2ph10RipserTaskIdE9run_asyncERNS0_8ExecutorEENKUlRKSt6vectorImSaImEEE_clESA_EUlvE_JEET_St14__invoke_otherOT0_DpOT1_
   fun:_ZSt10__invoke_rIvRZZN4mpcf2ph10RipserTaskIdE9run_asyncERNS0_8ExecutorEENKUlRKSt6vectorImSaImEEE_clESA_EUlvE_JEENSt9enable_ifIX16is_invocable_r_vIT_T0_DpT1_EESF_E4typeEOSG_DpOSH_
   fun:_ZNSt17_Function_handlerIFvvEZZN4mpcf2ph10RipserTaskIdE9run_asyncERNS1_8ExecutorEENKUlRKSt6vectorImSaImEEE_clESB_EUlvE_E9_M_invokeERKSt9_Any_data
   fun:_ZNKSt8functionIFvvEEclEv
   fun:_ZN2tf8Executor19_invoke_static_taskERNS_6WorkerEPNS_4NodeE
   fun:_ZN2tf8Executor7_invokeERNS_6WorkerEPNS_4NodeE
   fun:_ZN2tf8Executor13_exploit_taskERNS_6WorkerERPNS_4NodeE
   fun:_ZZN2tf8Executor6_spawnEmSt10shared_ptrINS_15WorkerInterfaceEEENKUlvE_clEv
}
{
   <insert_a_suppression_name_here>
   Helgrind:Race
   fun:_ZNKSt6vectorImSaImEE4sizeEv
   fun:_ZNK4mpcf6TensorIdE4rankEv
   fun:_ZN4mpcf2ph6detail41compute_persistence_euclidean_single_implIdEEvRKNS_6TensorINS3_IT_EEEERNS3_INS0_7BarcodeIS4_EEEEmRKSt6vectorImSaImEE
   fun:_ZZZN4mpcf2ph10RipserTaskIdE9run_asyncERNS_8ExecutorEENKUlRKSt6vectorImSaImEEE_clES9_ENKUlvE_clEv
   fun:_ZSt13__invoke_implIvRZZN4mpcf2ph10RipserTaskIdE9run_asyncERNS0_8ExecutorEENKUlRKSt6vectorImSaImEEE_clESA_EUlvE_JEET_St14__invoke_otherOT0_DpOT1_
   fun:_ZSt10__invoke_rIvRZZN4mpcf2ph10RipserTaskIdE9run_asyncERNS0_8ExecutorEENKUlRKSt6vectorImSaImEEE_clESA_EUlvE_JEENSt9enable_ifIX16is_invocable_r_vIT_T0_DpT1_EESF_E4typeEOSG_DpOSH_
   fun:_ZNSt17_Function_handlerIFvvEZZN4mpcf2ph10RipserTaskIdE9run_asyncERNS1_8ExecutorEENKUlRKSt6vectorImSaImEEE_clESB_EUlvE_E9_M_invokeERKSt9_Any_data
   fun:_ZNKSt8functionIFvvEEclEv
   fun:_ZN2tf8Executor19_invoke_static_taskERNS_6WorkerEPNS_4NodeE
   fun:_ZN2tf8Executor7_invokeERNS_6WorkerEPNS_4NodeE
   fun:_ZN2tf8Executor13_exploit_taskERNS_6WorkerERPNS_4NodeE
   fun:_ZZN2tf8Executor6_spawnEmSt10shared_ptrINS_15WorkerInterfaceEEENKUlvE_clEv
}
{
   <insert_a_suppression_name_here>
   Helgrind:Race
   fun:_ZNKSt7variantIJSt9monostateN2tf4Node6StaticENS2_7RuntimeENS2_20NonpreemptiveRuntimeENS2_7SubflowENS2_9ConditionENS2_14MultiConditionENS2_6ModuleENS2_5AsyncENS2_14DependentAsyncEEE5indexEv
   fun:_ZSt6get_ifILm1EJSt9monostateN2tf4Node6StaticENS2_7RuntimeENS2_20NonpreemptiveRuntimeENS2_7SubflowENS2_9ConditionENS2_14MultiConditionENS2_6ModuleENS2_5AsyncENS2_14DependentAsyncEEENSt11add_pointerINSt19variant_alternativeIXT_ESt7variantIJDpT0_EEE4typeEE4typeEPSH_
   fun:_ZSt6get_ifIN2tf4Node6StaticEJSt9monostateS2_NS1_7RuntimeENS1_20NonpreemptiveRuntimeENS1_7SubflowENS1_9ConditionENS1_14MultiConditionENS1_6ModuleENS1_5AsyncENS1_14DependentAsyncEEENSt11add_pointerIT_E4typeEPSt7variantIJDpT0_EE
   fun:_ZN2tf8Executor19_invoke_static_taskERNS_6WorkerEPNS_4NodeE
   fun:_ZN2tf8Executor7_invokeERNS_6WorkerEPNS_4NodeE
   fun:_ZN2tf8Executor13_exploit_taskERNS_6WorkerERPNS_4NodeE
   fun:_ZZN2tf8Executor6_spawnEmSt10shared_ptrINS_15WorkerInterfaceEEENKUlvE_clEv
   fun:_ZSt13__invoke_implIvZN2tf8Executor6_spawnEmSt10shared_ptrINS0_15WorkerInterfaceEEEUlvE_JEET_St14__invoke_otherOT0_DpOT1_
   fun:_ZSt8__invokeIZN2tf8Executor6_spawnEmSt10shared_ptrINS0_15WorkerInterfaceEEEUlvE_JEENSt15__invoke_resultIT_JDpT0_EE4typeEOS7_DpOS8_
   fun:_ZNSt6thread8_InvokerISt5tupleIJZN2tf8Executor6_spawnEmSt10shared_ptrINS2_15WorkerInterfaceEEEUlvE_EEE9_M_invokeIJLm0EEEEvSt12_Index_tupleIJXspT_EEE
   fun:_ZNSt6thread8_InvokerISt5tupleIJZN2tf8Executor6_spawnEmSt10shared_ptrINS2_15WorkerInterfaceEEEUlvE_EEEclEv
   fun:_ZNSt6thread11_State_implINS_8_InvokerISt5tupleIJZN2tf8Executor6_spawnEmSt10shared_ptrINS3_15WorkerInterfaceEEEUlvE_EEEEE6_M_runEv
}
{
   <insert_a_suppression_name_here>
   Helgrind:Race
   fun:_ZN2tf8Executor7_invokeERNS_6WorkerEPNS_4NodeE
   fun:_ZN2tf8Executor13_exploit_taskERNS_6WorkerERPNS_4NodeE
   fun:_ZZN2tf8Executor6_spawnEmSt10shared_ptrINS_15WorkerInterfaceEEENKUlvE_clEv
   fun:_ZSt13__invoke_implIvZN2tf8Executor6_spawnEmSt10shared_ptrINS0_15WorkerInterfaceEEEUlvE_JEET_St14__invoke_otherOT0_DpOT1_
   fun:_ZSt8__invokeIZN2tf8Executor6_spawnEmSt10shared_ptrINS0_15WorkerInterfaceEEEUlvE_JEENSt15__invoke_resultIT_JDpT0_EE4typeEOS7_DpOS8_
   fun:_ZNSt6thread8_InvokerISt5tupleIJZN2tf8Executor6_spawnEmSt10shared_ptrINS2_15WorkerInterfaceEEEUlvE_EEE9_M_invokeIJLm0EEEEvSt12_Index_tupleIJXspT_EEE
   fun:_ZNSt6thread8_InvokerISt5tupleIJZN2tf8Executor6_spawnEmSt10shared_ptrINS2_15WorkerInterfaceEEEUlvE_EEEclEv
   fun:_ZNSt6thread11_State_implINS_8_InvokerISt5tupleIJZN2tf8Executor6_spawnEmSt10shared_ptrINS3_15WorkerInterfaceEEEUlvE_EEEEE6_M_runEv
   obj:/usr/lib/x86_64-linux-gnu/libstdc++.so.6.0.33
   obj:/usr/libexec/valgrind/vgpreload_helgrind-amd64-linux.so
   fun:start_thread
   fun:clone
}
{
   <insert_a_suppression_name_here>
   Helgrind:Race
   fun:_ZNK2tf4Node16num_predecessorsEv
   fun:_ZN2tf8Executor13_set_up_graphERNS_5GraphEPNS_8TopologyEPNS_8NodeBaseE
   fun:_ZN2tf8Executor27_schedule_graph_with_parentERNS_6WorkerERNS_5GraphEPNS_8TopologyEPNS_8NodeBaseE
   fun:_ZZN2tf8Executor9run_untilIZNS0_5run_nIZNS0_3runEONS_8TaskflowEEUlvE_EENS_6FutureIvEES4_mOT_EUlvE_S5_EES7_S4_S9_OT0_ENUlRNS_7RuntimeEE_clESE_
   fun:_ZSt13__invoke_implIvRZN2tf8Executor9run_untilIZNS1_5run_nIZNS1_3runEONS0_8TaskflowEEUlvE_EENS0_6FutureIvEES5_mOT_EUlvE_S6_EES8_S5_SA_OT0_EUlRNS0_7RuntimeEE_JSF_EES9_St14__invoke_otherSD_DpOT1_
   fun:_ZSt10__invoke_rIvRZN2tf8Executor9run_untilIZNS1_5run_nIZNS1_3runEONS0_8TaskflowEEUlvE_EENS0_6FutureIvEES5_mOT_EUlvE_S6_EES8_S5_SA_OT0_EUlRNS0_7RuntimeEE_JSF_EENSt9enable_ifIX16is_invocable_r_vIS9_SC_DpT1_EES9_E4typeESD_DpOSJ_
   fun:_ZNSt17_Function_handlerIFvRN2tf7RuntimeEEZNS0_8Executor9run_untilIZNS4_5run_nIZNS4_3runEONS0_8TaskflowEEUlvE_EENS0_6FutureIvEES8_mOT_EUlvE_S9_EESB_S8_SD_OT0_EUlS2_E_E9_M_invokeERKSt9_Any_dataS2_
   fun:_ZNKSt8functionIFvRN2tf7RuntimeEEEclES2_
   fun:_ZN2tf8Executor25_invoke_runtime_task_implERNS_6WorkerEPNS_4NodeERSt8functionIFvRNS_7RuntimeEEE
   fun:_ZN2tf8Executor18_invoke_async_taskERNS_6WorkerEPNS_4NodeE
   fun:_ZN2tf8Executor7_invokeERNS_6WorkerEPNS_4NodeE
   fun:_ZN2tf8Executor13_exploit_taskERNS_6WorkerERPNS_4NodeE
}
{
   <insert_a_suppression_name_here>
   Helgrind:Race
   fun:_ZN9__gnu_cxx5__ops10_Iter_predIZN4mpcf2ph6detail41compute_persistence_euclidean_single_implIdEEvRKNS2_6TensorINS6_IT_EEEERNS6_INS3_7BarcodeIS7_EEEEmRKSt6vectorImSaImEEEUlmE_EclINS_17__normal_iteratorIPKmSI_EEEEbS7_
   fun:_ZSt9__find_ifIN9__gnu_cxx17__normal_iteratorIPKmSt6vectorImSaImEEEENS0_5__ops10_Iter_predIZN4mpcf2ph6detail41compute_persistence_euclidean_single_implIdEEvRKNSA_6TensorINSE_IT_EEEERNSE_INSB_7BarcodeISF_EEEEmRKS6_EUlmE_EEESF_SF_SF_T0_St26random_access_iterator_tag
   fun:_ZSt9__find_ifIN9__gnu_cxx17__normal_iteratorIPKmSt6vectorImSaImEEEENS0_5__ops10_Iter_predIZN4mpcf2ph6detail41compute_persistence_euclidean_single_implIdEEvRKNSA_6TensorINSE_IT_EEEERNSE_INSB_7BarcodeISF_EEEEmRKS6_EUlmE_EEESF_SF_SF_T0_
   fun:_ZSt7find_ifIN9__gnu_cxx17__normal_iteratorIPKmSt6vectorImSaImEEEEZN4mpcf2ph6detail41compute_persistence_euclidean_single_implIdEEvRKNS8_6TensorINSC_IT_EEEERNSC_INS9_7BarcodeISD_EEEEmRKS6_EUlmE_ESD_SD_SD_T0_
   fun:_ZSt7none_ofIN9__gnu_cxx17__normal_iteratorIPKmSt6vectorImSaImEEEEZN4mpcf2ph6detail41compute_persistence_euclidean_single_implIdEEvRKNS8_6TensorINSC_IT_EEEERNSC_INS9_7BarcodeISD_EEEEmRKS6_EUlmE_EbSD_SD_T0_
   fun:_ZSt6any_ofIN9__gnu_cxx17__normal_iteratorIPKmSt6vectorImSaImEEEEZN4mpcf2ph6detail41compute_persistence_euclidean_single_implIdEEvRKNS8_6TensorINSC_IT_EEEERNSC_INS9_7BarcodeISD_EEEEmRKS6_EUlmE_EbSD_SD_T0_
   fun:_ZN4mpcf2ph6detail41compute_persistence_euclidean_single_implIdEEvRKNS_6TensorINS3_IT_EEEERNS3_INS0_7BarcodeIS4_EEEEmRKSt6vectorImSaImEE
   fun:_ZZZN4mpcf2ph10RipserTaskIdE9run_asyncERNS_8ExecutorEENKUlRKSt6vectorImSaImEEE_clES9_ENKUlvE_clEv
   fun:_ZSt13__invoke_implIvRZZN4mpcf2ph10RipserTaskIdE9run_asyncERNS0_8ExecutorEENKUlRKSt6vectorImSaImEEE_clESA_EUlvE_JEET_St14__invoke_otherOT0_DpOT1_
   fun:_ZSt10__invoke_rIvRZZN4mpcf2ph10RipserTaskIdE9run_asyncERNS0_8ExecutorEENKUlRKSt6vectorImSaImEEE_clESA_EUlvE_JEENSt9enable_ifIX16is_invocable_r_vIT_T0_DpT1_EESF_E4typeEOSG_DpOSH_
   fun:_ZNSt17_Function_handlerIFvvEZZN4mpcf2ph10RipserTaskIdE9run_asyncERNS1_8ExecutorEENKUlRKSt6vectorImSaImEEE_clESB_EUlvE_E9_M_invokeERKSt9_Any_data
   fun:_ZNKSt8functionIFvvEEclEv
}
{
   <insert_a_suppression_name_here>
   Helgrind:Race
   fun:_ZN9__gnu_cxx5__ops10_Iter_predIZN4mpcf2ph6detail41compute_persistence_euclidean_single_implIdEEvRKNS2_6TensorINS6_IT_EEEERNS6_INS3_7BarcodeIS7_EEEEmRKSt6vectorImSaImEEEUlmE_EclINS_17__normal_iteratorIPKmSI_EEEEbS7_
   fun:_ZSt9__find_ifIN9__gnu_cxx17__normal_iteratorIPKmSt6vectorImSaImEEEENS0_5__ops10_Iter_predIZN4mpcf2ph6detail41compute_persistence_euclidean_single_implIdEEvRKNSA_6TensorINSE_IT_EEEERNSE_INSB_7BarcodeISF_EEEEmRKS6_EUlmE_EEESF_SF_SF_T0_St26random_access_iterator_tag
   fun:_ZSt9__find_ifIN9__gnu_cxx17__normal_iteratorIPKmSt6vectorImSaImEEEENS0_5__ops10_Iter_predIZN4mpcf2ph6detail41compute_persistence_euclidean_single_implIdEEvRKNSA_6TensorINSE_IT_EEEERNSE_INSB_7BarcodeISF_EEEEmRKS6_EUlmE_EEESF_SF_SF_T0_
   fun:_ZSt7find_ifIN9__gnu_cxx17__normal_iteratorIPKmSt6vectorImSaImEEEEZN4mpcf2ph6detail41compute_persistence_euclidean_single_implIdEEvRKNS8_6TensorINSC_IT_EEEERNSC_INS9_7BarcodeISD_EEEEmRKS6_EUlmE_ESD_SD_SD_T0_
   fun:_ZSt7none_ofIN9__gnu_cxx17__normal_iteratorIPKmSt6vectorImSaImEEEEZN4mpcf2ph6detail41compute_persistence_euclidean_single_implIdEEvRKNS8_6TensorINSC_IT_EEEERNSC_INS9_7BarcodeISD_EEEEmRKS6_EUlmE_EbSD_SD_T0_
   fun:_ZSt6any_ofIN9__gnu_cxx17__normal_iteratorIPKmSt6vectorImSaImEEEEZN4mpcf2ph6detail41compute_persistence_euclidean_single_implIdEEvRKNS8_6TensorINSC_IT_EEEERNSC_INS9_7BarcodeISD_EEEEmRKS6_EUlmE_EbSD_SD_T0_
   fun:_ZN4mpcf2ph6detail41compute_persistence_euclidean_single_implIdEEvRKNS_6TensorINS3_IT_EEEERNS3_INS0_7BarcodeIS4_EEEEmRKSt6vectorImSaImEE
   fun:_ZZZN4mpcf2ph10RipserTaskIdE9run_asyncERNS_8ExecutorEENKUlRKSt6vectorImSaImEEE_clES9_ENKUlvE_clEv
   fun:_ZSt13__invoke_implIvRZZN4mpcf2ph10RipserTaskIdE9run_asyncERNS0_8ExecutorEENKUlRKSt6vectorImSaImEEE_clESA_EUlvE_JEET_St14__invoke_otherOT0_DpOT1_
   fun:_ZSt10__invoke_rIvRZZN4mpcf2ph10RipserTaskIdE9run_asyncERNS0_8ExecutorEENKUlRKSt6vectorImSaImEEE_clESA_EUlvE_JEENSt9enable_ifIX16is_invocable_r_vIT_T0_DpT1_EESF_E4typeEOSG_DpOSH_
   fun:_ZNSt17_Function_handlerIFvvEZZN4mpcf2ph10RipserTaskIdE9run_asyncERNS1_8ExecutorEENKUlRKSt6vectorImSaImEEE_clESB_EUlvE_E9_M_invokeERKSt9_Any_data
   fun:_ZNKSt8functionIFvvEEclEv
}
{
   <insert_a_suppression_name_here>
   Helgrind:Race
   fun:_ZNK4mpcf6TensorIdE19index_to_data_indexERKSt6vectorImSaImEE
   fun:_ZNK4mpcf6TensorIdE12index_to_refERKSt6vectorImSaImEE
   fun:_ZNK4mpcf6TensorIdEclERKSt6vectorImSaImEE
   fun:_ZN4mpcf2ph6detail41compute_persistence_euclidean_single_implIdEEvRKNS_6TensorINS3_IT_EEEERNS3_INS0_7BarcodeIS4_EEEEmRKSt6vectorImSaImEE
   fun:_ZZZN4mpcf2ph10RipserTaskIdE9run_asyncERNS_8ExecutorEENKUlRKSt6vectorImSaImEEE_clES9_ENKUlvE_clEv
   fun:_ZSt13__invoke_implIvRZZN4mpcf2ph10RipserTaskIdE9run_asyncERNS0_8ExecutorEENKUlRKSt6vectorImSaImEEE_clESA_EUlvE_JEET_St14__invoke_otherOT0_DpOT1_
   fun:_ZSt10__invoke_rIvRZZN4mpcf2ph10RipserTaskIdE9run_asyncERNS0_8ExecutorEENKUlRKSt6vectorImSaImEEE_clESA_EUlvE_JEENSt9enable_ifIX16is_invocable_r_vIT_T0_DpT1_EESF_E4typeEOSG_DpOSH_
   fun:_ZNSt17_Function_handlerIFvvEZZN4mpcf2ph10RipserTaskIdE9run_asyncERNS1_8ExecutorEENKUlRKSt6vectorImSaImEEE_clESB_EUlvE_E9_M_invokeERKSt9_Any_data
   fun:_ZNKSt8functionIFvvEEclEv
   fun:_ZN2tf8Executor19_invoke_static_taskERNS_6WorkerEPNS_4NodeE
   fun:_ZN2tf8Executor7_invokeERNS_6WorkerEPNS_4NodeE
   fun:_ZN2tf8Executor13_exploit_taskERNS_6WorkerERPNS_4NodeE
}
{
   <insert_a_suppression_name_here>
   Helgrind:Race
   fun:_ZSt13inner_productIN9__gnu_cxx17__normal_iteratorIPKmSt6vectorImSaImEEEES7_mET1_T_S9_T0_S8_
   fun:_ZNK4mpcf6TensorIdE19index_to_data_indexERKSt6vectorImSaImEE
   fun:_ZNK4mpcf6TensorIdE12index_to_refERKSt6vectorImSaImEE
   fun:_ZNK4mpcf6TensorIdEclERKSt6vectorImSaImEE
   fun:_ZN4mpcf2ph6detail41compute_persistence_euclidean_single_implIdEEvRKNS_6TensorINS3_IT_EEEERNS3_INS0_7BarcodeIS4_EEEEmRKSt6vectorImSaImEE
   fun:_ZZZN4mpcf2ph10RipserTaskIdE9run_asyncERNS_8ExecutorEENKUlRKSt6vectorImSaImEEE_clES9_ENKUlvE_clEv
   fun:_ZSt13__invoke_implIvRZZN4mpcf2ph10RipserTaskIdE9run_asyncERNS0_8ExecutorEENKUlRKSt6vectorImSaImEEE_clESA_EUlvE_JEET_St14__invoke_otherOT0_DpOT1_
   fun:_ZSt10__invoke_rIvRZZN4mpcf2ph10RipserTaskIdE9run_asyncERNS0_8ExecutorEENKUlRKSt6vectorImSaImEEE_clESA_EUlvE_JEENSt9enable_ifIX16is_invocable_r_vIT_T0_DpT1_EESF_E4typeEOSG_DpOSH_
   fun:_ZNSt17_Function_handlerIFvvEZZN4mpcf2ph10RipserTaskIdE9run_asyncERNS1_8ExecutorEENKUlRKSt6vectorImSaImEEE_clESB_EUlvE_E9_M_invokeERKSt9_Any_data
   fun:_ZNKSt8functionIFvvEEclEv
   fun:_ZN2tf8Executor19_invoke_static_taskERNS_6WorkerEPNS_4NodeE
   fun:_ZN2tf8Executor7_invokeERNS_6WorkerEPNS_4NodeE
}
{
   <insert_a_suppression_name_here>
   Helgrind:Race
   fun:_ZNK4mpcf6TensorIdE19index_to_data_indexERKSt6vectorImSaImEE
   fun:_ZNK4mpcf6TensorIdE12index_to_refERKSt6vectorImSaImEE
   fun:_ZNK4mpcf6TensorIdEclERKSt6vectorImSaImEE
   fun:_ZN4mpcf2ph6detail41compute_persistence_euclidean_single_implIdEEvRKNS_6TensorINS3_IT_EEEERNS3_INS0_7BarcodeIS4_EEEEmRKSt6vectorImSaImEE
   fun:_ZZZN4mpcf2ph10RipserTaskIdE9run_asyncERNS_8ExecutorEENKUlRKSt6vectorImSaImEEE_clES9_ENKUlvE_clEv
   fun:_ZSt13__invoke_implIvRZZN4mpcf2ph10RipserTaskIdE9run_asyncERNS0_8ExecutorEENKUlRKSt6vectorImSaImEEE_clESA_EUlvE_JEET_St14__invoke_otherOT0_DpOT1_
   fun:_ZSt10__invoke_rIvRZZN4mpcf2ph10RipserTaskIdE9run_asyncERNS0_8ExecutorEENKUlRKSt6vectorImSaImEEE_clESA_EUlvE_JEENSt9enable_ifIX16is_invocable_r_vIT_T0_DpT1_EESF_E4typeEOSG_DpOSH_
   fun:_ZNSt17_Function_handlerIFvvEZZN4mpcf2ph10RipserTaskIdE9run_asyncERNS1_8ExecutorEENKUlRKSt6vectorImSaImEEE_clESB_EUlvE_E9_M_invokeERKSt9_Any_data
   fun:_ZNKSt8functionIFvvEEclEv
   fun:_ZN2tf8Executor19_invoke_static_taskERNS_6WorkerEPNS_4NodeE
   fun:_ZN2tf8Executor7_invokeERNS_6WorkerEPNS_4NodeE
   fun:_ZN2tf8Executor13_exploit_taskERNS_6WorkerERPNS_4NodeE
}
{
   <insert_a_suppression_name_here>
   Helgrind:Race
   fun:_ZNKSt12__shared_ptrIA_dLN9__gnu_cxx12_Lock_policyE2EE3getEv
   fun:_ZNKSt19__shared_ptr_accessIA_dLN9__gnu_cxx12_Lock_policyE2ELb1ELb0EE6_M_getEv
   fun:_ZNKSt19__shared_ptr_accessIA_dLN9__gnu_cxx12_Lock_policyE2ELb1ELb0EEixEl
   fun:_ZNK4mpcf6TensorIdE12index_to_refERKSt6vectorImSaImEE
   fun:_ZNK4mpcf6TensorIdEclERKSt6vectorImSaImEE
   fun:_ZN4mpcf2ph6detail41compute_persistence_euclidean_single_implIdEEvRKNS_6TensorINS3_IT_EEEERNS3_INS0_7BarcodeIS4_EEEEmRKSt6vectorImSaImEE
   fun:_ZZZN4mpcf2ph10RipserTaskIdE9run_asyncERNS_8ExecutorEENKUlRKSt6vectorImSaImEEE_clES9_ENKUlvE_clEv
   fun:_ZSt13__invoke_implIvRZZN4mpcf2ph10RipserTaskIdE9run_asyncERNS0_8ExecutorEENKUlRKSt6vectorImSaImEEE_clESA_EUlvE_JEET_St14__invoke_otherOT0_DpOT1_
   fun:_ZSt10__invoke_rIvRZZN4mpcf2ph10RipserTaskIdE9run_asyncERNS0_8ExecutorEENKUlRKSt6vectorImSaImEEE_clESA_EUlvE_JEENSt9enable_ifIX16is_invocable_r_vIT_T0_DpT1_EESF_E4typeEOSG_DpOSH_
   fun:_ZNSt17_Function_handlerIFvvEZZN4mpcf2ph10RipserTaskIdE9run_asyncERNS1_8ExecutorEENKUlRKSt6vectorImSaImEEE_clESB_EUlvE_E9_M_invokeERKSt9_Any_data
   fun:_ZNKSt8functionIFvvEEclEv
   fun:_ZN2tf8Executor19_invoke_static_taskERNS_6WorkerEPNS_4NodeE
}
{
   <insert_a_suppression_name_here>
   Helgrind:Race
   fun:_ZN4mpcf2ph6detail41compute_persistence_euclidean_single_implIdEEvRKNS_6TensorINS3_IT_EEEERNS3_INS0_7BarcodeIS4_EEEEmRKSt6vectorImSaImEE
   fun:_ZZZN4mpcf2ph10RipserTaskIdE9run_asyncERNS_8ExecutorEENKUlRKSt6vectorImSaImEEE_clES9_ENKUlvE_clEv
   fun:_ZSt13__invoke_implIvRZZN4mpcf2ph10RipserTaskIdE9run_asyncERNS0_8ExecutorEENKUlRKSt6vectorImSaImEEE_clESA_EUlvE_JEET_St14__invoke_otherOT0_DpOT1_
   fun:_ZSt10__invoke_rIvRZZN4mpcf2ph10RipserTaskIdE9run_asyncERNS0_8ExecutorEENKUlRKSt6vectorImSaImEEE_clESA_EUlvE_JEENSt9enable_ifIX16is_invocable_r_vIT_T0_DpT1_EESF_E4typeEOSG_DpOSH_
   fun:_ZNSt17_Function_handlerIFvvEZZN4mpcf2ph10RipserTaskIdE9run_asyncERNS1_8ExecutorEENKUlRKSt6vectorImSaImEEE_clESB_EUlvE_E9_M_invokeERKSt9_Any_data
   fun:_ZNKSt8functionIFvvEEclEv
   fun:_ZN2tf8Executor19_invoke_static_taskERNS_6WorkerEPNS_4NodeE
   fun:_ZN2tf8Executor7_invokeERNS_6WorkerEPNS_4NodeE
   fun:_ZN2tf8Executor13_exploit_taskERNS_6WorkerERPNS_4NodeE
   fun:_ZZN2tf8Executor6_spawnEmSt10shared_ptrINS_15WorkerInterfaceEEENKUlvE_clEv
   fun:_ZSt13__invoke_implIvZN2tf8Executor6_spawnEmSt10shared_ptrINS0_15WorkerInterfaceEEEUlvE_JEET_St14__invoke_otherOT0_DpOT1_
   fun:_ZSt8__invokeIZN2tf8Executor6_spawnEmSt10shared_ptrINS0_15WorkerInterfaceEEEUlvE_JEENSt15__invoke_resultIT_JDpT0_EE4typeEOS7_DpOS8_
}
{
   <insert_a_suppression_name_here>
   Helgrind:Race
   fun:_ZNKSt6vectorIN4mpcf2ph15PersistencePairIdEESaIS3_EE4sizeEv
   fun:_ZNSt6vectorIN4mpcf2ph15PersistencePairIdEESaIS3_EEC1ERKS5_
   fun:_ZN4mpcf2ph7BarcodeIdEC1ERKS2_
   fun:_ZZN7mpcf_py30register_typed_tensor_bindingsIN4mpcf2ph7BarcodeIdEEEEvRN8pybind117module_ERKNSt7__cxx1112basic_stringIcSt11char_traitsIcESaIcEEESF_ENKUlRNS1_6TensorIS4_EEmE_clESI_m
   fun:_ZNO8pybind116detail15argument_loaderIJRN4mpcf6TensorINS2_2ph7BarcodeIdEEEEmEE9call_implIS6_RZN7mpcf_py30register_typed_tensor_bindingsIS6_EEvRNS_7module_ERKNSt7__cxx1112basic_stringIcSt11char_traitsIcESaIcEEESM_EUlS8_mE_JLm0ELm1EENS0_9void_typeEEET_OT0_St16integer_sequenceImJXspT1_EEEOT2_
   fun:_ZNO8pybind116detail15argument_loaderIJRN4mpcf6TensorINS2_2ph7BarcodeIdEEEEmEE4callIS6_NS0_9void_typeERZN7mpcf_py30register_typed_tensor_bindingsIS6_EEvRNS_7module_ERKNSt7__cxx1112basic_stringIcSt11char_traitsIcESaIcEEESN_EUlS8_mE_EENSt9enable_ifIXntsrSt7is_voidIT_E5valueESS_E4typeEOT1_
   fun:_ZZN8pybind1112cpp_function10initializeIZN7mpcf_py30register_typed_tensor_bindingsIN4mpcf2ph7BarcodeIdEEEEvRNS_7module_ERKNSt7__cxx1112basic_stringIcSt11char_traitsIcESaIcEEESH_EUlRNS4_6TensorIS7_EEmE_S7_JSK_mEJNS_4nameENS_9is_methodENS_7siblingEEEEvOT_PFT0_DpT1_EDpRKT2_ENKUlRNS_6detail13function_callEE_clES12_
   fun:_ZZN8pybind1112cpp_function10initializeIZN7mpcf_py30register_typed_tensor_bindingsIN4mpcf2ph7BarcodeIdEEEEvRNS_7module_ERKNSt7__cxx1112basic_stringIcSt11char_traitsIcESaIcEEESH_EUlRNS4_6TensorIS7_EEmE_S7_JSK_mEJNS_4nameENS_9is_methodENS_7siblingEEEEvOT_PFT0_DpT1_EDpRKT2_ENUlRNS_6detail13function_callEE_4_FUNES12_
   fun:_ZN8pybind1112cpp_function10dispatcherEP7_objectPKS2_mS2_
   obj:/usr/bin/python3.13
   fun:PyObject_Vectorcall
   obj:/usr/bin/python3.13
}
{
   <insert_a_suppression_name_here>
   Helgrind:Race
   fun:_ZNKSt6vectorIN4mpcf2ph15PersistencePairIdEESaIS3_EE4sizeEv
   fun:_ZNSt6vectorIN4mpcf2ph15PersistencePairIdEESaIS3_EEC1ERKS5_
   fun:_ZN4mpcf2ph7BarcodeIdEC1ERKS2_
   fun:_ZZN7mpcf_py30register_typed_tensor_bindingsIN4mpcf2ph7BarcodeIdEEEEvRN8pybind117module_ERKNSt7__cxx1112basic_stringIcSt11char_traitsIcESaIcEEESF_ENKUlRNS1_6TensorIS4_EEmE_clESI_m
   fun:_ZNO8pybind116detail15argument_loaderIJRN4mpcf6TensorINS2_2ph7BarcodeIdEEEEmEE9call_implIS6_RZN7mpcf_py30register_typed_tensor_bindingsIS6_EEvRNS_7module_ERKNSt7__cxx1112basic_stringIcSt11char_traitsIcESaIcEEESM_EUlS8_mE_JLm0ELm1EENS0_9void_typeEEET_OT0_St16integer_sequenceImJXspT1_EEEOT2_
   fun:_ZNO8pybind116detail15argument_loaderIJRN4mpcf6TensorINS2_2ph7BarcodeIdEEEEmEE4callIS6_NS0_9void_typeERZN7mpcf_py30register_typed_tensor_bindingsIS6_EEvRNS_7module_ERKNSt7__cxx1112basic_stringIcSt11char_traitsIcESaIcEEESN_EUlS8_mE_EENSt9enable_ifIXntsrSt7is_voidIT_E5valueESS_E4typeEOT1_
   fun:_ZZN8pybind1112cpp_function10initializeIZN7mpcf_py30register_typed_tensor_bindingsIN4mpcf2ph7BarcodeIdEEEEvRNS_7module_ERKNSt7__cxx1112basic_stringIcSt11char_traitsIcESaIcEEESH_EUlRNS4_6TensorIS7_EEmE_S7_JSK_mEJNS_4nameENS_9is_methodENS_7siblingEEEEvOT_PFT0_DpT1_EDpRKT2_ENKUlRNS_6detail13function_callEE_clES12_
   fun:_ZZN8pybind1112cpp_function10initializeIZN7mpcf_py30register_typed_tensor_bindingsIN4mpcf2ph7BarcodeIdEEEEvRNS_7module_ERKNSt7__cxx1112basic_stringIcSt11char_traitsIcESaIcEEESH_EUlRNS4_6TensorIS7_EEmE_S7_JSK_mEJNS_4nameENS_9is_methodENS_7siblingEEEEvOT_PFT0_DpT1_EDpRKT2_ENUlRNS_6detail13function_callEE_4_FUNES12_
   fun:_ZN8pybind1112cpp_function10dispatcherEP7_objectPKS2_mS2_
   obj:/usr/bin/python3.13
   fun:PyObject_Vectorcall
   obj:/usr/bin/python3.13
}
{
   <insert_a_suppression_name_here>
   Helgrind:Race
   fun:_ZSt10_ConstructIN4mpcf2ph15PersistencePairIdEEJRKS3_EEvPT_DpOT0_
   fun:_ZSt16__do_uninit_copyIN9__gnu_cxx17__normal_iteratorIPKN4mpcf2ph15PersistencePairIdEESt6vectorIS5_SaIS5_EEEEPS5_ET0_T_SE_SD_
   fun:_ZNSt20__uninitialized_copyILb0EE13__uninit_copyIN9__gnu_cxx17__normal_iteratorIPKN4mpcf2ph15PersistencePairIdEESt6vectorIS7_SaIS7_EEEEPS7_EET0_T_SG_SF_
   fun:_ZSt18uninitialized_copyIN9__gnu_cxx17__normal_iteratorIPKN4mpcf2ph15PersistencePairIdEESt6vectorIS5_SaIS5_EEEEPS5_ET0_T_SE_SD_
   fun:_ZSt22__uninitialized_copy_aIN9__gnu_cxx17__normal_iteratorIPKN4mpcf2ph15PersistencePairIdEESt6vectorIS5_SaIS5_EEEEPS5_S5_ET0_T_SE_SD_RSaIT1_E
   fun:_ZNSt6vectorIN4mpcf2ph15PersistencePairIdEESaIS3_EEC1ERKS5_
   fun:_ZN4mpcf2ph7BarcodeIdEC1ERKS2_
   fun:_ZZN7mpcf_py30register_typed_tensor_bindingsIN4mpcf2ph7BarcodeIdEEEEvRN8pybind117module_ERKNSt7__cxx1112basic_stringIcSt11char_traitsIcESaIcEEESF_ENKUlRNS1_6TensorIS4_EEmE_clESI_m
   fun:_ZNO8pybind116detail15argument_loaderIJRN4mpcf6TensorINS2_2ph7BarcodeIdEEEEmEE9call_implIS6_RZN7mpcf_py30register_typed_tensor_bindingsIS6_EEvRNS_7module_ERKNSt7__cxx1112basic_stringIcSt11char_traitsIcESaIcEEESM_EUlS8_mE_JLm0ELm1EENS0_9void_typeEEET_OT0_St16integer_sequenceImJXspT1_EEEOT2_
   fun:_ZNO8pybind116detail15argument_loaderIJRN4mpcf6TensorINS2_2ph7BarcodeIdEEEEmEE4callIS6_NS0_9void_typeERZN7mpcf_py30register_typed_tensor_bindingsIS6_EEvRNS_7module_ERKNSt7__cxx1112basic_stringIcSt11char_traitsIcESaIcEEESN_EUlS8_mE_EENSt9enable_ifIXntsrSt7is_voidIT_E5valueESS_E4typeEOT1_
   fun:_ZZN8pybind1112cpp_function10initializeIZN7mpcf_py30register_typed_tensor_bindingsIN4mpcf2ph7BarcodeIdEEEEvRNS_7module_ERKNSt7__cxx1112basic_stringIcSt11char_traitsIcESaIcEEESH_EUlRNS4_6TensorIS7_EEmE_S7_JSK_mEJNS_4nameENS_9is_methodENS_7siblingEEEEvOT_PFT0_DpT1_EDpRKT2_ENKUlRNS_6detail13function_callEE_clES12_
   fun:_ZZN8pybind1112cpp_function10initializeIZN7mpcf_py30register_typed_tensor_bindingsIN4mpcf2ph7BarcodeIdEEEEvRNS_7module_ERKNSt7__cxx1112basic_stringIcSt11char_traitsIcESaIcEEESH_EUlRNS4_6TensorIS7_EEmE_S7_JSK_mEJNS_4nameENS_9is_methodENS_7siblingEEEEvOT_PFT0_DpT1_EDpRKT2_ENUlRNS_6detail13function_callEE_4_FUNES12_
}
{
   <insert_a_suppression_name_here>
   Helgrind:Race
   fun:_ZSt10_ConstructIN4mpcf2ph15PersistencePairIdEEJRKS3_EEvPT_DpOT0_
   fun:_ZSt16__do_uninit_copyIN9__gnu_cxx17__normal_iteratorIPKN4mpcf2ph15PersistencePairIdEESt6vectorIS5_SaIS5_EEEEPS5_ET0_T_SE_SD_
   fun:_ZNSt20__uninitialized_copyILb0EE13__uninit_copyIN9__gnu_cxx17__normal_iteratorIPKN4mpcf2ph15PersistencePairIdEESt6vectorIS7_SaIS7_EEEEPS7_EET0_T_SG_SF_
   fun:_ZSt18uninitialized_copyIN9__gnu_cxx17__normal_iteratorIPKN4mpcf2ph15PersistencePairIdEESt6vectorIS5_SaIS5_EEEEPS5_ET0_T_SE_SD_
   fun:_ZSt22__uninitialized_copy_aIN9__gnu_cxx17__normal_iteratorIPKN4mpcf2ph15PersistencePairIdEESt6vectorIS5_SaIS5_EEEEPS5_S5_ET0_T_SE_SD_RSaIT1_E
   fun:_ZNSt6vectorIN4mpcf2ph15PersistencePairIdEESaIS3_EEC1ERKS5_
   fun:_ZN4mpcf2ph7BarcodeIdEC1ERKS2_
   fun:_ZZN7mpcf_py30register_typed_tensor_bindingsIN4mpcf2ph7BarcodeIdEEEEvRN8pybind117module_ERKNSt7__cxx1112basic_stringIcSt11char_traitsIcESaIcEEESF_ENKUlRNS1_6TensorIS4_EEmE_clESI_m
   fun:_ZNO8pybind116detail15argument_loaderIJRN4mpcf6TensorINS2_2ph7BarcodeIdEEEEmEE9call_implIS6_RZN7mpcf_py30register_typed_tensor_bindingsIS6_EEvRNS_7module_ERKNSt7__cxx1112basic_stringIcSt11char_traitsIcESaIcEEESM_EUlS8_mE_JLm0ELm1EENS0_9void_typeEEET_OT0_St16integer_sequenceImJXspT1_EEEOT2_
   fun:_ZNO8pybind116detail15argument_loaderIJRN4mpcf6TensorINS2_2ph7BarcodeIdEEEEmEE4callIS6_NS0_9void_typeERZN7mpcf_py30register_typed_tensor_bindingsIS6_EEvRNS_7module_ERKNSt7__cxx1112basic_stringIcSt11char_traitsIcESaIcEEESN_EUlS8_mE_EENSt9enable_ifIXntsrSt7is_voidIT_E5valueESS_E4typeEOT1_
   fun:_ZZN8pybind1112cpp_function10initializeIZN7mpcf_py30register_typed_tensor_bindingsIN4mpcf2ph7BarcodeIdEEEEvRNS_7module_ERKNSt7__cxx1112basic_stringIcSt11char_traitsIcESaIcEEESH_EUlRNS4_6TensorIS7_EEmE_S7_JSK_mEJNS_4nameENS_9is_methodENS_7siblingEEEEvOT_PFT0_DpT1_EDpRKT2_ENKUlRNS_6detail13function_callEE_clES12_
   fun:_ZZN8pybind1112cpp_function10initializeIZN7mpcf_py30register_typed_tensor_bindingsIN4mpcf2ph7BarcodeIdEEEEvRNS_7module_ERKNSt7__cxx1112basic_stringIcSt11char_traitsIcESaIcEEESH_EUlRNS4_6TensorIS7_EEmE_S7_JSK_mEJNS_4nameENS_9is_methodENS_7siblingEEEEvOT_PFT0_DpT1_EDpRKT2_ENUlRNS_6detail13function_callEE_4_FUNES12_
}
{
   <insert_a_suppression_name_here>
   Helgrind:Race
   fun:memmove
   fun:_ZNSt11__copy_moveILb0ELb1ESt26random_access_iterator_tagE8__copy_mIKmmEEPT0_PT_S7_S5_
   fun:_ZSt14__copy_move_a2ILb0EPKmPmET1_T0_S4_S3_
   fun:_ZSt14__copy_move_a1ILb0EPKmPmET1_T0_S4_S3_
   fun:_ZSt13__copy_move_aILb0EN9__gnu_cxx17__normal_iteratorIPKmSt6vectorImSaImEEEEPmET1_T0_SA_S9_
   fun:_ZSt4copyIN9__gnu_cxx17__normal_iteratorIPKmSt6vectorImSaImEEEEPmET0_T_SA_S9_
   fun:_ZNSt20__uninitialized_copyILb1EE13__uninit_copyIN9__gnu_cxx17__normal_iteratorIPKmSt6vectorImSaImEEEEPmEET0_T_SC_SB_
   fun:_ZSt18uninitialized_copyIN9__gnu_cxx17__normal_iteratorIPKmSt6vectorImSaImEEEEPmET0_T_SA_S9_
   fun:_ZSt22__uninitialized_copy_aIN9__gnu_cxx17__normal_iteratorIPKmSt6vectorImSaImEEEEPmmET0_T_SA_S9_RSaIT1_E
   fun:_ZNSt6vectorImSaImEEC1ERKS1_
   fun:_ZN4mpcf2ph6detail41compute_persistence_euclidean_single_implIdEEvRKNS_6TensorINS3_IT_EEEERNS3_INS0_7BarcodeIS4_EEEEmRKSt6vectorImSaImEE
   fun:_ZZZN4mpcf2ph10RipserTaskIdE9run_asyncERNS_8ExecutorEENKUlRKSt6vectorImSaImEEE_clES9_ENKUlvE_clEv
}
{
   <insert_a_suppression_name_here>
   Helgrind:Race
   fun:memmove
   fun:_ZNSt11__copy_moveILb0ELb1ESt26random_access_iterator_tagE8__copy_mIKmmEEPT0_PT_S7_S5_
   fun:_ZSt14__copy_move_a2ILb0EPKmPmET1_T0_S4_S3_
   fun:_ZSt14__copy_move_a1ILb0EPKmPmET1_T0_S4_S3_
   fun:_ZSt13__copy_move_aILb0EN9__gnu_cxx17__normal_iteratorIPKmSt6vectorImSaImEEEEPmET1_T0_SA_S9_
   fun:_ZSt4copyIN9__gnu_cxx17__normal_iteratorIPKmSt6vectorImSaImEEEEPmET0_T_SA_S9_
   fun:_ZNSt20__uninitialized_copyILb1EE13__uninit_copyIN9__gnu_cxx17__normal_iteratorIPKmSt6vectorImSaImEEEEPmEET0_T_SC_SB_
   fun:_ZSt18uninitialized_copyIN9__gnu_cxx17__normal_iteratorIPKmSt6vectorImSaImEEEEPmET0_T_SA_S9_
   fun:_ZSt22__uninitialized_copy_aIN9__gnu_cxx17__normal_iteratorIPKmSt6vectorImSaImEEEEPmmET0_T_SA_S9_RSaIT1_E
   fun:_ZNSt6vectorImSaImEEC1ERKS1_
   fun:_ZN4mpcf2ph6detail41compute_persistence_euclidean_single_implIdEEvRKNS_6TensorINS3_IT_EEEERNS3_INS0_7BarcodeIS4_EEEEmRKSt6vectorImSaImEE
   fun:_ZZZN4mpcf2ph10RipserTaskIdE9run_asyncERNS_8ExecutorEENKUlRKSt6vectorImSaImEEE_clES9_ENKUlvE_clEv
}
{
   <insert_a_suppression_name_here>
   Helgrind:Race
   fun:memmove
   fun:_ZNSt11__copy_moveILb0ELb1ESt26random_access_iterator_tagE8__copy_mIKmmEEPT0_PT_S7_S5_
   fun:_ZSt14__copy_move_a2ILb0EPKmPmET1_T0_S4_S3_
   fun:_ZSt14__copy_move_a1ILb0EPKmPmET1_T0_S4_S3_
   fun:_ZSt13__copy_move_aILb0EN9__gnu_cxx17__normal_iteratorIPKmSt6vectorImSaImEEEEPmET1_T0_SA_S9_
   fun:_ZSt4copyIN9__gnu_cxx17__normal_iteratorIPKmSt6vectorImSaImEEEEPmET0_T_SA_S9_
   fun:_ZNSt20__uninitialized_copyILb1EE13__uninit_copyIN9__gnu_cxx17__normal_iteratorIPKmSt6vectorImSaImEEEEPmEET0_T_SC_SB_
   fun:_ZSt18uninitialized_copyIN9__gnu_cxx17__normal_iteratorIPKmSt6vectorImSaImEEEEPmET0_T_SA_S9_
   fun:_ZSt22__uninitialized_copy_aIN9__gnu_cxx17__normal_iteratorIPKmSt6vectorImSaImEEEEPmmET0_T_SA_S9_RSaIT1_E
   fun:_ZNSt6vectorImSaImEEC1ERKS1_
   fun:_ZN4mpcf2ph6detail41compute_persistence_euclidean_single_implIdEEvRKNS_6TensorINS3_IT_EEEERNS3_INS0_7BarcodeIS4_EEEEmRKSt6vectorImSaImEE
   fun:_ZZZN4mpcf2ph10RipserTaskIdE9run_asyncERNS_8ExecutorEENKUlRKSt6vectorImSaImEEE_clES9_ENKUlvE_clEv
}
{
   <insert_a_suppression_name_here>
   Helgrind:Race
   fun:memmove
   fun:_ZNSt11__copy_moveILb0ELb1ESt26random_access_iterator_tagE8__copy_mIKmmEEPT0_PT_S7_S5_
   fun:_ZSt14__copy_move_a2ILb0EPKmPmET1_T0_S4_S3_
   fun:_ZSt14__copy_move_a1ILb0EPKmPmET1_T0_S4_S3_
   fun:_ZSt13__copy_move_aILb0EN9__gnu_cxx17__normal_iteratorIPKmSt6vectorImSaImEEEEPmET1_T0_SA_S9_
   fun:_ZSt4copyIN9__gnu_cxx17__normal_iteratorIPKmSt6vectorImSaImEEEEPmET0_T_SA_S9_
   fun:_ZNSt20__uninitialized_copyILb1EE13__uninit_copyIN9__gnu_cxx17__normal_iteratorIPKmSt6vectorImSaImEEEEPmEET0_T_SC_SB_
   fun:_ZSt18uninitialized_copyIN9__gnu_cxx17__normal_iteratorIPKmSt6vectorImSaImEEEEPmET0_T_SA_S9_
   fun:_ZSt22__uninitialized_copy_aIN9__gnu_cxx17__normal_iteratorIPKmSt6vectorImSaImEEEEPmmET0_T_SA_S9_RSaIT1_E
   fun:_ZNSt6vectorImSaImEEC1ERKS1_
   fun:_ZN4mpcf2ph6detail41compute_persistence_euclidean_single_implIdEEvRKNS_6TensorINS3_IT_EEEERNS3_INS0_7BarcodeIS4_EEEEmRKSt6vectorImSaImEE
   fun:_ZZZN4mpcf2ph10RipserTaskIdE9run_asyncERNS_8ExecutorEENKUlRKSt6vectorImSaImEEE_clES9_ENKUlvE_clEv
}
{
   <insert_a_suppression_name_here>
   Helgrind:Race
   fun:_ZNSt6vectorIN4mpcf2ph15PersistencePairIdEESaIS3_EEaSERKS5_
   fun:_ZN4mpcf2ph7BarcodeIdEaSERKSt6vectorINS0_15PersistencePairIdEESaIS5_EE
   fun:_ZN4mpcf2ph6detail41compute_persistence_euclidean_single_implIdEEvRKNS_6TensorINS3_IT_EEEERNS3_INS0_7BarcodeIS4_EEEEmRKSt6vectorImSaImEE
   fun:_ZZZN4mpcf2ph10RipserTaskIdE9run_asyncERNS_8ExecutorEENKUlRKSt6vectorImSaImEEE_clES9_ENKUlvE_clEv
   fun:_ZSt13__invoke_implIvRZZN4mpcf2ph10RipserTaskIdE9run_asyncERNS0_8ExecutorEENKUlRKSt6vectorImSaImEEE_clESA_EUlvE_JEET_St14__invoke_otherOT0_DpOT1_
   fun:_ZSt10__invoke_rIvRZZN4mpcf2ph10RipserTaskIdE9run_asyncERNS0_8ExecutorEENKUlRKSt6vectorImSaImEEE_clESA_EUlvE_JEENSt9enable_ifIX16is_invocable_r_vIT_T0_DpT1_EESF_E4typeEOSG_DpOSH_
   fun:_ZNSt17_Function_handlerIFvvEZZN4mpcf2ph10RipserTaskIdE9run_asyncERNS1_8ExecutorEENKUlRKSt6vectorImSaImEEE_clESB_EUlvE_E9_M_invokeERKSt9_Any_data
   fun:_ZNKSt8functionIFvvEEclEv
   fun:_ZN2tf8Executor19_invoke_static_taskERNS_6WorkerEPNS_4NodeE
   fun:_ZN2tf8Executor7_invokeERNS_6WorkerEPNS_4NodeE
   fun:_ZN2tf8Executor13_exploit_taskERNS_6WorkerERPNS_4NodeE
   fun:_ZZN2tf8Executor6_spawnEmSt10shared_ptrINS_15WorkerInterfaceEEENKUlvE_clEv
}
{
   <insert_a_suppression_name_here>
   Helgrind:Race
   fun:_ZNSt6vectorIN4mpcf2ph15PersistencePairIdEESaIS3_EEaSERKS5_
   fun:_ZN4mpcf2ph7BarcodeIdEaSERKSt6vectorINS0_15PersistencePairIdEESaIS5_EE
   fun:_ZN4mpcf2ph6detail41compute_persistence_euclidean_single_implIdEEvRKNS_6TensorINS3_IT_EEEERNS3_INS0_7BarcodeIS4_EEEEmRKSt6vectorImSaImEE
   fun:_ZZZN4mpcf2ph10RipserTaskIdE9run_asyncERNS_8ExecutorEENKUlRKSt6vectorImSaImEEE_clES9_ENKUlvE_clEv
   fun:_ZSt13__invoke_implIvRZZN4mpcf2ph10RipserTaskIdE9run_asyncERNS0_8ExecutorEENKUlRKSt6vectorImSaImEEE_clESA_EUlvE_JEET_St14__invoke_otherOT0_DpOT1_
   fun:_ZSt10__invoke_rIvRZZN4mpcf2ph10RipserTaskIdE9run_asyncERNS0_8ExecutorEENKUlRKSt6vectorImSaImEEE_clESA_EUlvE_JEENSt9enable_ifIX16is_invocable_r_vIT_T0_DpT1_EESF_E4typeEOSG_DpOSH_
   fun:_ZNSt17_Function_handlerIFvvEZZN4mpcf2ph10RipserTaskIdE9run_asyncERNS1_8ExecutorEENKUlRKSt6vectorImSaImEEE_clESB_EUlvE_E9_M_invokeERKSt9_Any_data
   fun:_ZNKSt8functionIFvvEEclEv
   fun:_ZN2tf8Executor19_invoke_static_taskERNS_6WorkerEPNS_4NodeE
   fun:_ZN2tf8Executor7_invokeERNS_6WorkerEPNS_4NodeE
   fun:_ZN2tf8Executor13_exploit_taskERNS_6WorkerERPNS_4NodeE
   fun:_ZZN2tf8Executor6_spawnEmSt10shared_ptrINS_15WorkerInterfaceEEENKUlvE_clEv
}
{
   <insert_a_suppression_name_here>
   Helgrind:Race
   fun:_ZNKSt6vectorImSaImEEixEm
   fun:_ZNK4mpcf6TensorIdE5shapeEm
   fun:_ZN4mpcf2ph6detail41compute_persistence_euclidean_single_implIdEEvRKNS_6TensorINS3_IT_EEEERNS3_INS0_7BarcodeIS4_EEEEmRKSt6vectorImSaImEE
   fun:_ZZZN4mpcf2ph10RipserTaskIdE9run_asyncERNS_8ExecutorEENKUlRKSt6vectorImSaImEEE_clES9_ENKUlvE_clEv
   fun:_ZSt13__invoke_implIvRZZN4mpcf2ph10RipserTaskIdE9run_asyncERNS0_8ExecutorEENKUlRKSt6vectorImSaImEEE_clESA_EUlvE_JEET_St14__invoke_otherOT0_DpOT1_
   fun:_ZSt10__invoke_rIvRZZN4mpcf2ph10RipserTaskIdE9run_asyncERNS0_8ExecutorEENKUlRKSt6vectorImSaImEEE_clESA_EUlvE_JEENSt9enable_ifIX16is_invocable_r_vIT_T0_DpT1_EESF_E4typeEOSG_DpOSH_
   fun:_ZNSt17_Function_handlerIFvvEZZN4mpcf2ph10RipserTaskIdE9run_asyncERNS1_8ExecutorEENKUlRKSt6vectorImSaImEEE_clESB_EUlvE_E9_M_invokeERKSt9_Any_data
   fun:_ZNKSt8functionIFvvEEclEv
   fun:_ZN2tf8Executor19_invoke_static_taskERNS_6WorkerEPNS_4NodeE
   fun:_ZN2tf8Executor7_invokeERNS_6WorkerEPNS_4NodeE
   fun:_ZN2tf8Executor13_exploit_taskERNS_6WorkerERPNS_4NodeE
   fun:_ZZN2tf8Executor6_spawnEmSt10shared_ptrINS_15WorkerInterfaceEEENKUlvE_clEv
}
{
   <insert_a_suppression_name_here>
   Helgrind:Race
   fun:_ZNK4mpcf6TensorIdE5shapeEm
   fun:_ZN4mpcf2ph6detail41compute_persistence_euclidean_single_implIdEEvRKNS_6TensorINS3_IT_EEEERNS3_INS0_7BarcodeIS4_EEEEmRKSt6vectorImSaImEE
   fun:_ZZZN4mpcf2ph10RipserTaskIdE9run_asyncERNS_8ExecutorEENKUlRKSt6vectorImSaImEEE_clES9_ENKUlvE_clEv
   fun:_ZSt13__invoke_implIvRZZN4mpcf2ph10RipserTaskIdE9run_asyncERNS0_8ExecutorEENKUlRKSt6vectorImSaImEEE_clESA_EUlvE_JEET_St14__invoke_otherOT0_DpOT1_
   fun:_ZSt10__invoke_rIvRZZN4mpcf2ph10RipserTaskIdE9run_asyncERNS0_8ExecutorEENKUlRKSt6vectorImSaImEEE_clESA_EUlvE_JEENSt9enable_ifIX16is_invocable_r_vIT_T0_DpT1_EESF_E4typeEOSG_DpOSH_
   fun:_ZNSt17_Function_handlerIFvvEZZN4mpcf2ph10RipserTaskIdE9run_asyncERNS1_8ExecutorEENKUlRKSt6vectorImSaImEEE_clESB_EUlvE_E9_M_invokeERKSt9_Any_data
   fun:_ZNKSt8functionIFvvEEclEv
   fun:_ZN2tf8Executor19_invoke_static_taskERNS_6WorkerEPNS_4NodeE
   fun:_ZN2tf8Executor7_invokeERNS_6WorkerEPNS_4NodeE
   fun:_ZN2tf8Executor13_exploit_taskERNS_6WorkerERPNS_4NodeE
   fun:_ZZN2tf8Executor6_spawnEmSt10shared_ptrINS_15WorkerInterfaceEEENKUlvE_clEv
   fun:_ZSt13__invoke_implIvZN2tf8Executor6_spawnEmSt10shared_ptrINS0_15WorkerInterfaceEEEUlvE_JEET_St14__invoke_otherOT0_DpOT1_
}
{
   <insert_a_suppression_name_here>
   Helgrind:Race
   fun:_ZNK4mpcf6TensorIdE5shapeEm
   fun:_ZN4mpcf2ph6detail41compute_persistence_euclidean_single_implIdEEvRKNS_6TensorINS3_IT_EEEERNS3_INS0_7BarcodeIS4_EEEEmRKSt6vectorImSaImEE
   fun:_ZZZN4mpcf2ph10RipserTaskIdE9run_asyncERNS_8ExecutorEENKUlRKSt6vectorImSaImEEE_clES9_ENKUlvE_clEv
   fun:_ZSt13__invoke_implIvRZZN4mpcf2ph10RipserTaskIdE9run_asyncERNS0_8ExecutorEENKUlRKSt6vectorImSaImEEE_clESA_EUlvE_JEET_St14__invoke_otherOT0_DpOT1_
   fun:_ZSt10__invoke_rIvRZZN4mpcf2ph10RipserTaskIdE9run_asyncERNS0_8ExecutorEENKUlRKSt6vectorImSaImEEE_clESA_EUlvE_JEENSt9enable_ifIX16is_invocable_r_vIT_T0_DpT1_EESF_E4typeEOSG_DpOSH_
   fun:_ZNSt17_Function_handlerIFvvEZZN4mpcf2ph10RipserTaskIdE9run_asyncERNS1_8ExecutorEENKUlRKSt6vectorImSaImEEE_clESB_EUlvE_E9_M_invokeERKSt9_Any_data
   fun:_ZNKSt8functionIFvvEEclEv
   fun:_ZN2tf8Executor19_invoke_static_taskERNS_6WorkerEPNS_4NodeE
   fun:_ZN2tf8Executor7_invokeERNS_6WorkerEPNS_4NodeE
   fun:_ZN2tf8Executor13_exploit_taskERNS_6WorkerERPNS_4NodeE
   fun:_ZZN2tf8Executor6_spawnEmSt10shared_ptrINS_15WorkerInterfaceEEENKUlvE_clEv
   fun:_ZSt13__invoke_implIvZN2tf8Executor6_spawnEmSt10shared_ptrINS0_15WorkerInterfaceEEEUlvE_JEET_St14__invoke_otherOT0_DpOT1_
}
{
   <insert_a_suppression_name_here>
   Helgrind:Race
   fun:_ZZZN4mpcf2ph10RipserTaskIdE9run_asyncERNS_8ExecutorEENKUlRKSt6vectorImSaImEEE_clES9_ENKUlvE_clEv
   fun:_ZSt13__invoke_implIvRZZN4mpcf2ph10RipserTaskIdE9run_asyncERNS0_8ExecutorEENKUlRKSt6vectorImSaImEEE_clESA_EUlvE_JEET_St14__invoke_otherOT0_DpOT1_
   fun:_ZSt10__invoke_rIvRZZN4mpcf2ph10RipserTaskIdE9run_asyncERNS0_8ExecutorEENKUlRKSt6vectorImSaImEEE_clESA_EUlvE_JEENSt9enable_ifIX16is_invocable_r_vIT_T0_DpT1_EESF_E4typeEOSG_DpOSH_
   fun:_ZNSt17_Function_handlerIFvvEZZN4mpcf2ph10RipserTaskIdE9run_asyncERNS1_8ExecutorEENKUlRKSt6vectorImSaImEEE_clESB_EUlvE_E9_M_invokeERKSt9_Any_data
   fun:_ZNKSt8functionIFvvEEclEv
   fun:_ZN2tf8Executor19_invoke_static_taskERNS_6WorkerEPNS_4NodeE
   fun:_ZN2tf8Executor7_invokeERNS_6WorkerEPNS_4NodeE
   fun:_ZN2tf8Executor13_exploit_taskERNS_6WorkerERPNS_4NodeE
   fun:_ZZN2tf8Executor6_spawnEmSt10shared_ptrINS_15WorkerInterfaceEEENKUlvE_clEv
   fun:_ZSt13__invoke_implIvZN2tf8Executor6_spawnEmSt10shared_ptrINS0_15WorkerInterfaceEEEUlvE_JEET_St14__invoke_otherOT0_DpOT1_
   fun:_ZSt8__invokeIZN2tf8Executor6_spawnEmSt10shared_ptrINS0_15WorkerInterfaceEEEUlvE_JEENSt15__invoke_resultIT_JDpT0_EE4typeEOS7_DpOS8_
   fun:_ZNSt6thread8_InvokerISt5tupleIJZN2tf8Executor6_spawnEmSt10shared_ptrINS2_15WorkerInterfaceEEEUlvE_EEE9_M_invokeIJLm0EEEEvSt12_Index_tupleIJXspT_EEE
}
{
   <insert_a_suppression_name_here>
   Helgrind:Race
   fun:_ZZZN4mpcf2ph10RipserTaskIdE9run_asyncERNS_8ExecutorEENKUlRKSt6vectorImSaImEEE_clES9_ENKUlvE_clEv
   fun:_ZSt13__invoke_implIvRZZN4mpcf2ph10RipserTaskIdE9run_asyncERNS0_8ExecutorEENKUlRKSt6vectorImSaImEEE_clESA_EUlvE_JEET_St14__invoke_otherOT0_DpOT1_
   fun:_ZSt10__invoke_rIvRZZN4mpcf2ph10RipserTaskIdE9run_asyncERNS0_8ExecutorEENKUlRKSt6vectorImSaImEEE_clESA_EUlvE_JEENSt9enable_ifIX16is_invocable_r_vIT_T0_DpT1_EESF_E4typeEOSG_DpOSH_
   fun:_ZNSt17_Function_handlerIFvvEZZN4mpcf2ph10RipserTaskIdE9run_asyncERNS1_8ExecutorEENKUlRKSt6vectorImSaImEEE_clESB_EUlvE_E9_M_invokeERKSt9_Any_data
   fun:_ZNKSt8functionIFvvEEclEv
   fun:_ZN2tf8Executor19_invoke_static_taskERNS_6WorkerEPNS_4NodeE
   fun:_ZN2tf8Executor7_invokeERNS_6WorkerEPNS_4NodeE
   fun:_ZN2tf8Executor13_exploit_taskERNS_6WorkerERPNS_4NodeE
   fun:_ZZN2tf8Executor6_spawnEmSt10shared_ptrINS_15WorkerInterfaceEEENKUlvE_clEv
   fun:_ZSt13__invoke_implIvZN2tf8Executor6_spawnEmSt10shared_ptrINS0_15WorkerInterfaceEEEUlvE_JEET_St14__invoke_otherOT0_DpOT1_
   fun:_ZSt8__invokeIZN2tf8Executor6_spawnEmSt10shared_ptrINS0_15WorkerInterfaceEEEUlvE_JEENSt15__invoke_resultIT_JDpT0_EE4typeEOS7_DpOS8_
   fun:_ZNSt6thread8_InvokerISt5tupleIJZN2tf8Executor6_spawnEmSt10shared_ptrINS2_15WorkerInterfaceEEEUlvE_EEE9_M_invokeIJLm0EEEEvSt12_Index_tupleIJXspT_EEE
}
{
   <insert_a_suppression_name_here>
   Helgrind:Race
   fun:_ZZZN4mpcf2ph10RipserTaskIdE9run_asyncERNS_8ExecutorEENKUlRKSt6vectorImSaImEEE_clES9_ENKUlvE_clEv
   fun:_ZSt13__invoke_implIvRZZN4mpcf2ph10RipserTaskIdE9run_asyncERNS0_8ExecutorEENKUlRKSt6vectorImSaImEEE_clESA_EUlvE_JEET_St14__invoke_otherOT0_DpOT1_
   fun:_ZSt10__invoke_rIvRZZN4mpcf2ph10RipserTaskIdE9run_asyncERNS0_8ExecutorEENKUlRKSt6vectorImSaImEEE_clESA_EUlvE_JEENSt9enable_ifIX16is_invocable_r_vIT_T0_DpT1_EESF_E4typeEOSG_DpOSH_
   fun:_ZNSt17_Function_handlerIFvvEZZN4mpcf2ph10RipserTaskIdE9run_asyncERNS1_8ExecutorEENKUlRKSt6vectorImSaImEEE_clESB_EUlvE_E9_M_invokeERKSt9_Any_data
   fun:_ZNKSt8functionIFvvEEclEv
   fun:_ZN2tf8Executor19_invoke_static_taskERNS_6WorkerEPNS_4NodeE
   fun:_ZN2tf8Executor7_invokeERNS_6WorkerEPNS_4NodeE
   fun:_ZN2tf8Executor13_exploit_taskERNS_6WorkerERPNS_4NodeE
   fun:_ZZN2tf8Executor6_spawnEmSt10shared_ptrINS_15WorkerInterfaceEEENKUlvE_clEv
   fun:_ZSt13__invoke_implIvZN2tf8Executor6_spawnEmSt10shared_ptrINS0_15WorkerInterfaceEEEUlvE_JEET_St14__invoke_otherOT0_DpOT1_
   fun:_ZSt8__invokeIZN2tf8Executor6_spawnEmSt10shared_ptrINS0_15WorkerInterfaceEEEUlvE_JEENSt15__invoke_resultIT_JDpT0_EE4typeEOS7_DpOS8_
   fun:_ZNSt6thread8_InvokerISt5tupleIJZN2tf8Executor6_spawnEmSt10shared_ptrINS2_15WorkerInterfaceEEEUlvE_EEE9_M_invokeIJLm0EEEEvSt12_Index_tupleIJXspT_EEE
}
{
   <insert_a_suppression_name_here>
   Helgrind:Race
   fun:_ZNK4mpcf6TensorIdE5shapeEm
   fun:_ZN4mpcf2ph6detail41compute_persistence_euclidean_single_implIdEEvRKNS_6TensorINS3_IT_EEEERNS3_INS0_7BarcodeIS4_EEEEmRKSt6vectorImSaImEE
   fun:_ZZZN4mpcf2ph10RipserTaskIdE9run_asyncERNS_8ExecutorEENKUlRKSt6vectorImSaImEEE_clES9_ENKUlvE_clEv
   fun:_ZSt13__invoke_implIvRZZN4mpcf2ph10RipserTaskIdE9run_asyncERNS0_8ExecutorEENKUlRKSt6vectorImSaImEEE_clESA_EUlvE_JEET_St14__invoke_otherOT0_DpOT1_
   fun:_ZSt10__invoke_rIvRZZN4mpcf2ph10RipserTaskIdE9run_asyncERNS0_8ExecutorEENKUlRKSt6vectorImSaImEEE_clESA_EUlvE_JEENSt9enable_ifIX16is_invocable_r_vIT_T0_DpT1_EESF_E4typeEOSG_DpOSH_
   fun:_ZNSt17_Function_handlerIFvvEZZN4mpcf2ph10RipserTaskIdE9run_asyncERNS1_8ExecutorEENKUlRKSt6vectorImSaImEEE_clESB_EUlvE_E9_M_invokeERKSt9_Any_data
   fun:_ZNKSt8functionIFvvEEclEv
   fun:_ZN2tf8Executor19_invoke_static_taskERNS_6WorkerEPNS_4NodeE
   fun:_ZN2tf8Executor7_invokeERNS_6WorkerEPNS_4NodeE
   fun:_ZN2tf8Executor13_exploit_taskERNS_6WorkerERPNS_4NodeE
   fun:_ZZN2tf8Executor6_spawnEmSt10shared_ptrINS_15WorkerInterfaceEEENKUlvE_clEv
   fun:_ZSt13__invoke_implIvZN2tf8Executor6_spawnEmSt10shared_ptrINS0_15WorkerInterfaceEEEUlvE_JEET_St14__invoke_otherOT0_DpOT1_
}
{
   <insert_a_suppression_name_here>
   Helgrind:Race
   fun:_ZNK4mpcf6TensorIdE5shapeEm
   fun:_ZN4mpcf2ph6detail41compute_persistence_euclidean_single_implIdEEvRKNS_6TensorINS3_IT_EEEERNS3_INS0_7BarcodeIS4_EEEEmRKSt6vectorImSaImEE
   fun:_ZZZN4mpcf2ph10RipserTaskIdE9run_asyncERNS_8ExecutorEENKUlRKSt6vectorImSaImEEE_clES9_ENKUlvE_clEv
   fun:_ZSt13__invoke_implIvRZZN4mpcf2ph10RipserTaskIdE9run_asyncERNS0_8ExecutorEENKUlRKSt6vectorImSaImEEE_clESA_EUlvE_JEET_St14__invoke_otherOT0_DpOT1_
   fun:_ZSt10__invoke_rIvRZZN4mpcf2ph10RipserTaskIdE9run_asyncERNS0_8ExecutorEENKUlRKSt6vectorImSaImEEE_clESA_EUlvE_JEENSt9enable_ifIX16is_invocable_r_vIT_T0_DpT1_EESF_E4typeEOSG_DpOSH_
   fun:_ZNSt17_Function_handlerIFvvEZZN4mpcf2ph10RipserTaskIdE9run_asyncERNS1_8ExecutorEENKUlRKSt6vectorImSaImEEE_clESB_EUlvE_E9_M_invokeERKSt9_Any_data
   fun:_ZNKSt8functionIFvvEEclEv
   fun:_ZN2tf8Executor19_invoke_static_taskERNS_6WorkerEPNS_4NodeE
   fun:_ZN2tf8Executor7_invokeERNS_6WorkerEPNS_4NodeE
   fun:_ZN2tf8Executor13_exploit_taskERNS_6WorkerERPNS_4NodeE
   fun:_ZZN2tf8Executor6_spawnEmSt10shared_ptrINS_15WorkerInterfaceEEENKUlvE_clEv
   fun:_ZSt13__invoke_implIvZN2tf8Executor6_spawnEmSt10shared_ptrINS0_15WorkerInterfaceEEEUlvE_JEET_St14__invoke_otherOT0_DpOT1_
}
{
   <insert_a_suppression_name_here>
   Helgrind:Race
   fun:_ZNK4mpcf6TensorIdE5shapeEm
   fun:_ZN4mpcf2ph6detail41compute_persistence_euclidean_single_implIdEEvRKNS_6TensorINS3_IT_EEEERNS3_INS0_7BarcodeIS4_EEEEmRKSt6vectorImSaImEE
   fun:_ZZZN4mpcf2ph10RipserTaskIdE9run_asyncERNS_8ExecutorEENKUlRKSt6vectorImSaImEEE_clES9_ENKUlvE_clEv
   fun:_ZSt13__invoke_implIvRZZN4mpcf2ph10RipserTaskIdE9run_asyncERNS0_8ExecutorEENKUlRKSt6vectorImSaImEEE_clESA_EUlvE_JEET_St14__invoke_otherOT0_DpOT1_
   fun:_ZSt10__invoke_rIvRZZN4mpcf2ph10RipserTaskIdE9run_asyncERNS0_8ExecutorEENKUlRKSt6vectorImSaImEEE_clESA_EUlvE_JEENSt9enable_ifIX16is_invocable_r_vIT_T0_DpT1_EESF_E4typeEOSG_DpOSH_
   fun:_ZNSt17_Function_handlerIFvvEZZN4mpcf2ph10RipserTaskIdE9run_asyncERNS1_8ExecutorEENKUlRKSt6vectorImSaImEEE_clESB_EUlvE_E9_M_invokeERKSt9_Any_data
   fun:_ZNKSt8functionIFvvEEclEv
   fun:_ZN2tf8Executor19_invoke_static_taskERNS_6WorkerEPNS_4NodeE
   fun:_ZN2tf8Executor7_invokeERNS_6WorkerEPNS_4NodeE
   fun:_ZN2tf8Executor13_exploit_taskERNS_6WorkerERPNS_4NodeE
   fun:_ZZN2tf8Executor6_spawnEmSt10shared_ptrINS_15WorkerInterfaceEEENKUlvE_clEv
   fun:_ZSt13__invoke_implIvZN2tf8Executor6_spawnEmSt10shared_ptrINS0_15WorkerInterfaceEEEUlvE_JEET_St14__invoke_otherOT0_DpOT1_
}
{
   <insert_a_suppression_name_here>
   Helgrind:Race
   fun:_ZNSt16_Sp_counted_baseILN9__gnu_cxx12_Lock_policyE2EE10_M_releaseEv
   fun:_ZNSt14__shared_countILN9__gnu_cxx12_Lock_policyE2EED1Ev
   fun:_ZNSt12__shared_ptrIN2tf8TopologyELN9__gnu_cxx12_Lock_policyE2EED1Ev
   fun:_ZNSt10shared_ptrIN2tf8TopologyEED1Ev
   fun:_ZZN2tf8Executor9run_untilIZNS0_5run_nIZNS0_3runEONS_8TaskflowEEUlvE_EENS_6FutureIvEES4_mOT_EUlvE_S5_EES7_S4_S9_OT0_ENUlRNS_7RuntimeEE_D1Ev
   fun:_ZNSt14_Function_base13_Base_managerIZN2tf8Executor9run_untilIZNS2_5run_nIZNS2_3runEONS1_8TaskflowEEUlvE_EENS1_6FutureIvEES6_mOT_EUlvE_S7_EES9_S6_SB_OT0_EUlRNS1_7RuntimeEE_E10_M_destroyERSt9_Any_dataSt17integral_constantIbLb0EE
   fun:_ZNSt14_Function_base13_Base_managerIZN2tf8Executor9run_untilIZNS2_5run_nIZNS2_3runEONS1_8TaskflowEEUlvE_EENS1_6FutureIvEES6_mOT_EUlvE_S7_EES9_S6_SB_OT0_EUlRNS1_7RuntimeEE_E10_M_managerERSt9_Any_dataRKSJ_St18_Manager_operation
   fun:_ZNSt17_Function_handlerIFvRN2tf7RuntimeEEZNS0_8Executor9run_untilIZNS4_5run_nIZNS4_3runEONS0_8TaskflowEEUlvE_EENS0_6FutureIvEES8_mOT_EUlvE_S9_EESB_S8_SD_OT0_EUlS2_E_E10_M_managerERSt9_Any_dataRKSJ_St18_Manager_operation
   fun:_ZNSt14_Function_baseD1Ev
   fun:_ZNSt8functionIFvRN2tf7RuntimeEEED1Ev
   fun:_ZSt10destroy_atISt8functionIFvRN2tf7RuntimeEEEEvPT_
   fun:_ZSt8_DestroyISt8functionIFvRN2tf7RuntimeEEEEvPT_
}
{
   <insert_a_suppression_name_here>
   Helgrind:Race
   fun:_ZNSt10unique_ptrINSt13__future_base7_ResultIvEENS0_12_Result_base8_DeleterEED1Ev
   fun:_ZNSt7promiseIvED1Ev
   fun:_ZN2tf8TopologyD1Ev
   fun:_ZSt10destroy_atIN2tf8TopologyEEvPT_
   fun:_ZSt8_DestroyIN2tf8TopologyEEvPT_
   fun:destroy<tf::Topology>
   fun:_ZNSt23_Sp_counted_ptr_inplaceIN2tf8TopologyESaIvELN9__gnu_cxx12_Lock_policyE2EE10_M_disposeEv
   fun:_ZNSt16_Sp_counted_baseILN9__gnu_cxx12_Lock_policyE2EE10_M_releaseEv
   fun:_ZNSt14__shared_countILN9__gnu_cxx12_Lock_policyE2EED1Ev
   fun:_ZNSt12__shared_ptrIN2tf8TopologyELN9__gnu_cxx12_Lock_policyE2EED1Ev
   fun:_ZNSt10shared_ptrIN2tf8TopologyEED1Ev
   fun:_ZZN2tf8Executor9run_untilIZNS0_5run_nIZNS0_3runEONS_8TaskflowEEUlvE_EENS_6FutureIvEES4_mOT_EUlvE_S5_EES7_S4_S9_OT0_ENUlRNS_7RuntimeEE_D1Ev
   fun:_ZNSt14_Function_base13_Base_managerIZN2tf8Executor9run_untilIZNS2_5run_nIZNS2_3runEONS1_8TaskflowEEUlvE_EENS1_6FutureIvEES6_mOT_EUlvE_S7_EES9_S6_SB_OT0_EUlRNS1_7RuntimeEE_E10_M_destroyERSt9_Any_dataSt17integral_constantIbLb0EE
}
{
   <insert_a_suppression_name_here>
   Helgrind:Race
   fun:_ZNSt10unique_ptrINSt13__future_base7_ResultIvEENS0_12_Result_base8_DeleterEED1Ev
   fun:_ZNSt7promiseIvED1Ev
   fun:_ZN2tf8TopologyD1Ev
   fun:_ZSt10destroy_atIN2tf8TopologyEEvPT_
   fun:_ZSt8_DestroyIN2tf8TopologyEEvPT_
   fun:destroy<tf::Topology>
   fun:_ZNSt23_Sp_counted_ptr_inplaceIN2tf8TopologyESaIvELN9__gnu_cxx12_Lock_policyE2EE10_M_disposeEv
   fun:_ZNSt16_Sp_counted_baseILN9__gnu_cxx12_Lock_policyE2EE10_M_releaseEv
   fun:_ZNSt14__shared_countILN9__gnu_cxx12_Lock_policyE2EED1Ev
   fun:_ZNSt12__shared_ptrIN2tf8TopologyELN9__gnu_cxx12_Lock_policyE2EED1Ev
   fun:_ZNSt10shared_ptrIN2tf8TopologyEED1Ev
   fun:_ZZN2tf8Executor9run_untilIZNS0_5run_nIZNS0_3runEONS_8TaskflowEEUlvE_EENS_6FutureIvEES4_mOT_EUlvE_S5_EES7_S4_S9_OT0_ENUlRNS_7RuntimeEE_D1Ev
   fun:_ZNSt14_Function_base13_Base_managerIZN2tf8Executor9run_untilIZNS2_5run_nIZNS2_3runEONS1_8TaskflowEEUlvE_EENS1_6FutureIvEES6_mOT_EUlvE_S7_EES9_S6_SB_OT0_EUlRNS1_7RuntimeEE_E10_M_destroyERSt9_Any_dataSt17integral_constantIbLb0EE
}
{
   <insert_a_suppression_name_here>
   Helgrind:Race
   fun:_ZSt10destroy_atINSt13__future_base13_State_baseV2EEvPT_
   fun:_ZSt8_DestroyINSt13__future_base13_State_baseV2EEvPT_
   fun:destroy<std::__future_base::_State_baseV2>
   fun:_ZNSt23_Sp_counted_ptr_inplaceINSt13__future_base13_State_baseV2ESaIvELN9__gnu_cxx12_Lock_policyE2EE10_M_disposeEv
   fun:_ZNSt16_Sp_counted_baseILN9__gnu_cxx12_Lock_policyE2EE10_M_releaseEv
   fun:_ZNSt14__shared_countILN9__gnu_cxx12_Lock_policyE2EED1Ev
   fun:_ZNSt12__shared_ptrINSt13__future_base13_State_baseV2ELN9__gnu_cxx12_Lock_policyE2EED1Ev
   fun:_ZNSt10shared_ptrINSt13__future_base13_State_baseV2EED1Ev
   fun:_ZNSt7promiseIvED1Ev
   fun:_ZN2tf8TopologyD1Ev
   fun:_ZSt10destroy_atIN2tf8TopologyEEvPT_
   fun:_ZSt8_DestroyIN2tf8TopologyEEvPT_
   fun:destroy<tf::Topology>
   fun:_ZNSt23_Sp_counted_ptr_inplaceIN2tf8TopologyESaIvELN9__gnu_cxx12_Lock_policyE2EE10_M_disposeEv
}
{
   <insert_a_suppression_name_here>
   Helgrind:Race
   fun:_ZNSt13__future_base13_State_baseV2D1Ev
   fun:_ZSt10destroy_atINSt13__future_base13_State_baseV2EEvPT_
   fun:_ZSt8_DestroyINSt13__future_base13_State_baseV2EEvPT_
   fun:destroy<std::__future_base::_State_baseV2>
   fun:_ZNSt23_Sp_counted_ptr_inplaceINSt13__future_base13_State_baseV2ESaIvELN9__gnu_cxx12_Lock_policyE2EE10_M_disposeEv
   fun:_ZNSt16_Sp_counted_baseILN9__gnu_cxx12_Lock_policyE2EE10_M_releaseEv
   fun:_ZNSt14__shared_countILN9__gnu_cxx12_Lock_policyE2EED1Ev
   fun:_ZNSt12__shared_ptrINSt13__future_base13_State_baseV2ELN9__gnu_cxx12_Lock_policyE2EED1Ev
   fun:_ZNSt10shared_ptrINSt13__future_base13_State_baseV2EED1Ev
   fun:_ZNSt7promiseIvED1Ev
   fun:_ZN2tf8TopologyD1Ev
   fun:_ZSt10destroy_atIN2tf8TopologyEEvPT_
   fun:_ZSt8_DestroyIN2tf8TopologyEEvPT_
}
{
   <insert_a_suppression_name_here>
   Helgrind:Race
   fun:_ZNKSt13__future_base12_Result_base8_DeleterclEPS0_
   fun:_ZNSt10unique_ptrINSt13__future_base12_Result_baseENS1_8_DeleterEED1Ev
   fun:_ZNSt13__future_base13_State_baseV2D1Ev
   fun:_ZSt10destroy_atINSt13__future_base13_State_baseV2EEvPT_
   fun:_ZSt8_DestroyINSt13__future_base13_State_baseV2EEvPT_
   fun:destroy<std::__future_base::_State_baseV2>
   fun:_ZNSt23_Sp_counted_ptr_inplaceINSt13__future_base13_State_baseV2ESaIvELN9__gnu_cxx12_Lock_policyE2EE10_M_disposeEv
   fun:_ZNSt16_Sp_counted_baseILN9__gnu_cxx12_Lock_policyE2EE10_M_releaseEv
   fun:_ZNSt14__shared_countILN9__gnu_cxx12_Lock_policyE2EED1Ev
   fun:_ZNSt12__shared_ptrINSt13__future_base13_State_baseV2ELN9__gnu_cxx12_Lock_policyE2EED1Ev
   fun:_ZNSt10shared_ptrINSt13__future_base13_State_baseV2EED1Ev
   fun:_ZNSt7promiseIvED1Ev
   fun:_ZN2tf8TopologyD1Ev
}
{
   <insert_a_suppression_name_here>
   Helgrind:Race
   fun:_ZNSt13__future_base7_ResultIvED1Ev
   fun:_ZNSt13__future_base7_ResultIvED0Ev
   fun:_ZNSt13__future_base7_ResultIvE10_M_destroyEv
   fun:_ZNKSt13__future_base12_Result_base8_DeleterclEPS0_
   fun:_ZNSt10unique_ptrINSt13__future_base12_Result_baseENS1_8_DeleterEED1Ev
   fun:_ZNSt13__future_base13_State_baseV2D1Ev
   fun:_ZSt10destroy_atINSt13__future_base13_State_baseV2EEvPT_
   fun:_ZSt8_DestroyINSt13__future_base13_State_baseV2EEvPT_
   fun:destroy<std::__future_base::_State_baseV2>
   fun:_ZNSt23_Sp_counted_ptr_inplaceINSt13__future_base13_State_baseV2ESaIvELN9__gnu_cxx12_Lock_policyE2EE10_M_disposeEv
   fun:_ZNSt16_Sp_counted_baseILN9__gnu_cxx12_Lock_policyE2EE10_M_releaseEv
   fun:_ZNSt14__shared_countILN9__gnu_cxx12_Lock_policyE2EED1Ev
   fun:_ZNSt12__shared_ptrINSt13__future_base13_State_baseV2ELN9__gnu_cxx12_Lock_policyE2EED1Ev
}
{
   <insert_a_suppression_name_here>
   Helgrind:Race
   fun:_ZNSt13__future_base12_Result_baseD1Ev
   fun:_ZNSt13__future_base7_ResultIvED1Ev
   fun:_ZNSt13__future_base7_ResultIvED0Ev
   fun:_ZNSt13__future_base7_ResultIvE10_M_destroyEv
   fun:_ZNKSt13__future_base12_Result_base8_DeleterclEPS0_
   fun:_ZNSt10unique_ptrINSt13__future_base12_Result_baseENS1_8_DeleterEED1Ev
   fun:_ZNSt13__future_base13_State_baseV2D1Ev
   fun:_ZSt10destroy_atINSt13__future_base13_State_baseV2EEvPT_
   fun:_ZSt8_DestroyINSt13__future_base13_State_baseV2EEvPT_
   fun:destroy<std::__future_base::_State_baseV2>
   fun:_ZNSt23_Sp_counted_ptr_inplaceINSt13__future_base13_State_baseV2ESaIvELN9__gnu_cxx12_Lock_policyE2EE10_M_disposeEv
   fun:_ZNSt16_Sp_counted_baseILN9__gnu_cxx12_Lock_policyE2EE10_M_releaseEv
   fun:_ZNSt14__shared_countILN9__gnu_cxx12_Lock_policyE2EED1Ev
}
{
   <insert_a_suppression_name_here>
   Helgrind:Race
   fun:_ZNSt23_Sp_counted_ptr_inplaceINSt13__future_base13_State_baseV2ESaIvELN9__gnu_cxx12_Lock_policyE2EED1Ev
   fun:_ZNSt23_Sp_counted_ptr_inplaceINSt13__future_base13_State_baseV2ESaIvELN9__gnu_cxx12_Lock_policyE2EE10_M_destroyEv
   fun:_ZNSt16_Sp_counted_baseILN9__gnu_cxx12_Lock_policyE2EE10_M_releaseEv
   fun:_ZNSt14__shared_countILN9__gnu_cxx12_Lock_policyE2EED1Ev
   fun:_ZNSt12__shared_ptrINSt13__future_base13_State_baseV2ELN9__gnu_cxx12_Lock_policyE2EED1Ev
   fun:_ZNSt10shared_ptrINSt13__future_base13_State_baseV2EED1Ev
   fun:_ZNSt7promiseIvED1Ev
   fun:_ZN2tf8TopologyD1Ev
   fun:_ZSt10destroy_atIN2tf8TopologyEEvPT_
   fun:_ZSt8_DestroyIN2tf8TopologyEEvPT_
   fun:destroy<tf::Topology>
   fun:_ZNSt23_Sp_counted_ptr_inplaceIN2tf8TopologyESaIvELN9__gnu_cxx12_Lock_policyE2EE10_M_disposeEv
   fun:_ZNSt16_Sp_counted_baseILN9__gnu_cxx12_Lock_policyE2EE10_M_releaseEv
}
{
   <insert_a_suppression_name_here>
   Helgrind:Race
   fun:_ZNSt12_Vector_baseImSaImEED1Ev
   fun:_ZNSt6vectorImSaImEED1Ev
   fun:_ZZZN4mpcf2ph10RipserTaskIdE9run_asyncERNS_8ExecutorEENKUlRKSt6vectorImSaImEEE_clES9_ENUlvE_D1Ev
   fun:_ZNSt14_Function_base13_Base_managerIZZN4mpcf2ph10RipserTaskIdE9run_asyncERNS1_8ExecutorEENKUlRKSt6vectorImSaImEEE_clESB_EUlvE_E10_M_destroyERSt9_Any_dataSt17integral_constantIbLb0EE
   fun:_ZNSt14_Function_base13_Base_managerIZZN4mpcf2ph10RipserTaskIdE9run_asyncERNS1_8ExecutorEENKUlRKSt6vectorImSaImEEE_clESB_EUlvE_E10_M_managerERSt9_Any_dataRKSF_St18_Manager_operation
   fun:_ZNSt17_Function_handlerIFvvEZZN4mpcf2ph10RipserTaskIdE9run_asyncERNS1_8ExecutorEENKUlRKSt6vectorImSaImEEE_clESB_EUlvE_E10_M_managerERSt9_Any_dataRKSF_St18_Manager_operation
   fun:_ZNSt14_Function_baseD1Ev
   fun:_ZNSt8functionIFvvEED1Ev
   fun:_ZN2tf4Node6StaticD1Ev
   fun:_ZSt10destroy_atIN2tf4Node6StaticEEvPT_
   fun:_ZSt8_DestroyIN2tf4Node6StaticEEvPT_
   fun:_ZZNSt8__detail9__variant16_Variant_storageILb0EJSt9monostateN2tf4Node6StaticENS4_7RuntimeENS4_20NonpreemptiveRuntimeENS4_7SubflowENS4_9ConditionENS4_14MultiConditionENS4_6ModuleENS4_5AsyncENS4_14DependentAsyncEEE8_M_resetEvENUlOT_E_clIRS5_EEDaSG_
}
{
   <insert_a_suppression_name_here>
   Helgrind:Race
   fun:_ZNSt6vectorIPN2tf4NodeESaIS2_EE5clearEv
   fun:_ZN2tf5Graph5clearEv
   fun:_ZN2tf5GraphD1Ev
   fun:_ZN2tf8TaskflowD1Ev
   fun:_ZNKSt14default_deleteIN2tf8TaskflowEEclEPS1_
   fun:_ZNSt10unique_ptrIN2tf8TaskflowESt14default_deleteIS1_EED1Ev
   fun:_ZN2tf3MoCISt10unique_ptrINS_8TaskflowESt14default_deleteIS2_EEED1Ev
   fun:_ZZN2tf8Executor9run_untilIZNS0_5run_nIZNS0_3runEONS_8TaskflowEEUlvE_EENS_6FutureIvEES4_mOT_EUlvE_S5_EES7_S4_S9_OT0_ENUlRNS_7RuntimeEE_D1Ev
   fun:_ZNSt14_Function_base13_Base_managerIZN2tf8Executor9run_untilIZNS2_5run_nIZNS2_3runEONS1_8TaskflowEEUlvE_EENS1_6FutureIvEES6_mOT_EUlvE_S7_EES9_S6_SB_OT0_EUlRNS1_7RuntimeEE_E10_M_destroyERSt9_Any_dataSt17integral_constantIbLb0EE
   fun:_ZNSt14_Function_base13_Base_managerIZN2tf8Executor9run_untilIZNS2_5run_nIZNS2_3runEONS1_8TaskflowEEUlvE_EENS1_6FutureIvEES6_mOT_EUlvE_S7_EES9_S6_SB_OT0_EUlRNS1_7RuntimeEE_E10_M_managerERSt9_Any_dataRKSJ_St18_Manager_operation
   fun:_ZNSt17_Function_handlerIFvRN2tf7RuntimeEEZNS0_8Executor9run_untilIZNS4_5run_nIZNS4_3runEONS0_8TaskflowEEUlvE_EENS0_6FutureIvEES8_mOT_EUlvE_S9_EESB_S8_SD_OT0_EUlS2_E_E10_M_managerERSt9_Any_dataRKSJ_St18_Manager_operation
   fun:_ZNSt14_Function_baseD1Ev
}
{
   <insert_a_suppression_name_here>
   Helgrind:Race
   fun:_ZNSt6vectorIPN2tf4NodeESaIS2_EE15_M_erase_at_endEPS2_
   fun:_ZNSt6vectorIPN2tf4NodeESaIS2_EE5clearEv
   fun:_ZN2tf5Graph5clearEv
   fun:_ZN2tf5GraphD1Ev
   fun:_ZN2tf8TaskflowD1Ev
   fun:_ZNKSt14default_deleteIN2tf8TaskflowEEclEPS1_
   fun:_ZNSt10unique_ptrIN2tf8TaskflowESt14default_deleteIS1_EED1Ev
   fun:_ZN2tf3MoCISt10unique_ptrINS_8TaskflowESt14default_deleteIS2_EEED1Ev
   fun:_ZZN2tf8Executor9run_untilIZNS0_5run_nIZNS0_3runEONS_8TaskflowEEUlvE_EENS_6FutureIvEES4_mOT_EUlvE_S5_EES7_S4_S9_OT0_ENUlRNS_7RuntimeEE_D1Ev
   fun:_ZNSt14_Function_base13_Base_managerIZN2tf8Executor9run_untilIZNS2_5run_nIZNS2_3runEONS1_8TaskflowEEUlvE_EENS1_6FutureIvEES6_mOT_EUlvE_S7_EES9_S6_SB_OT0_EUlRNS1_7RuntimeEE_E10_M_destroyERSt9_Any_dataSt17integral_constantIbLb0EE
   fun:_ZNSt14_Function_base13_Base_managerIZN2tf8Executor9run_untilIZNS2_5run_nIZNS2_3runEONS1_8TaskflowEEUlvE_EENS1_6FutureIvEES6_mOT_EUlvE_S7_EES9_S6_SB_OT0_EUlRNS1_7RuntimeEE_E10_M_managerERSt9_Any_dataRKSJ_St18_Manager_operation
   fun:_ZNSt17_Function_handlerIFvRN2tf7RuntimeEEZNS0_8Executor9run_untilIZNS4_5run_nIZNS4_3runEONS0_8TaskflowEEUlvE_EENS0_6FutureIvEES8_mOT_EUlvE_S9_EESB_S8_SD_OT0_EUlS2_E_E10_M_managerERSt9_Any_dataRKSJ_St18_Manager_operation
}
{
   <insert_a_suppression_name_here>
   Helgrind:Race
   fun:_ZNSt11_Deque_baseISt10shared_ptrIN2tf8TopologyEESaIS3_EED1Ev
   fun:_ZNSt5dequeISt10shared_ptrIN2tf8TopologyEESaIS3_EED1Ev
   fun:_ZNSt5queueISt10shared_ptrIN2tf8TopologyEESt5dequeIS3_SaIS3_EEED1Ev
   fun:_ZN2tf8TaskflowD1Ev
   fun:_ZNKSt14default_deleteIN2tf8TaskflowEEclEPS1_
   fun:_ZNSt10unique_ptrIN2tf8TaskflowESt14default_deleteIS1_EED1Ev
   fun:_ZN2tf3MoCISt10unique_ptrINS_8TaskflowESt14default_deleteIS2_EEED1Ev
   fun:_ZZN2tf8Executor9run_untilIZNS0_5run_nIZNS0_3runEONS_8TaskflowEEUlvE_EENS_6FutureIvEES4_mOT_EUlvE_S5_EES7_S4_S9_OT0_ENUlRNS_7RuntimeEE_D1Ev
   fun:_ZNSt14_Function_base13_Base_managerIZN2tf8Executor9run_untilIZNS2_5run_nIZNS2_3runEONS1_8TaskflowEEUlvE_EENS1_6FutureIvEES6_mOT_EUlvE_S7_EES9_S6_SB_OT0_EUlRNS1_7RuntimeEE_E10_M_destroyERSt9_Any_dataSt17integral_constantIbLb0EE
   fun:_ZNSt14_Function_base13_Base_managerIZN2tf8Executor9run_untilIZNS2_5run_nIZNS2_3runEONS1_8TaskflowEEUlvE_EENS1_6FutureIvEES6_mOT_EUlvE_S7_EES9_S6_SB_OT0_EUlRNS1_7RuntimeEE_E10_M_managerERSt9_Any_dataRKSJ_St18_Manager_operation
   fun:_ZNSt17_Function_handlerIFvRN2tf7RuntimeEEZNS0_8Executor9run_untilIZNS4_5run_nIZNS4_3runEONS0_8TaskflowEEUlvE_EENS0_6FutureIvEES8_mOT_EUlvE_S9_EESB_S8_SD_OT0_EUlS2_E_E10_M_managerERSt9_Any_dataRKSJ_St18_Manager_operation
   fun:_ZNSt14_Function_baseD1Ev
}
{
   <insert_a_suppression_name_here>
   Helgrind:Race
   fun:_ZNSt11_Deque_baseISt10shared_ptrIN2tf8TopologyEESaIS3_EED1Ev
   fun:_ZNSt5dequeISt10shared_ptrIN2tf8TopologyEESaIS3_EED1Ev
   fun:_ZNSt5queueISt10shared_ptrIN2tf8TopologyEESt5dequeIS3_SaIS3_EEED1Ev
   fun:_ZN2tf8TaskflowD1Ev
   fun:_ZNKSt14default_deleteIN2tf8TaskflowEEclEPS1_
   fun:_ZNSt10unique_ptrIN2tf8TaskflowESt14default_deleteIS1_EED1Ev
   fun:_ZN2tf3MoCISt10unique_ptrINS_8TaskflowESt14default_deleteIS2_EEED1Ev
   fun:_ZZN2tf8Executor9run_untilIZNS0_5run_nIZNS0_3runEONS_8TaskflowEEUlvE_EENS_6FutureIvEES4_mOT_EUlvE_S5_EES7_S4_S9_OT0_ENUlRNS_7RuntimeEE_D1Ev
   fun:_ZNSt14_Function_base13_Base_managerIZN2tf8Executor9run_untilIZNS2_5run_nIZNS2_3runEONS1_8TaskflowEEUlvE_EENS1_6FutureIvEES6_mOT_EUlvE_S7_EES9_S6_SB_OT0_EUlRNS1_7RuntimeEE_E10_M_destroyERSt9_Any_dataSt17integral_constantIbLb0EE
   fun:_ZNSt14_Function_base13_Base_managerIZN2tf8Executor9run_untilIZNS2_5run_nIZNS2_3runEONS1_8TaskflowEEUlvE_EENS1_6FutureIvEES6_mOT_EUlvE_S7_EES9_S6_SB_OT0_EUlRNS1_7RuntimeEE_E10_M_managerERSt9_Any_dataRKSJ_St18_Manager_operation
   fun:_ZNSt17_Function_handlerIFvRN2tf7RuntimeEEZNS0_8Executor9run_untilIZNS4_5run_nIZNS4_3runEONS0_8TaskflowEEUlvE_EENS0_6FutureIvEES8_mOT_EUlvE_S9_EESB_S8_SD_OT0_EUlS2_E_E10_M_managerERSt9_Any_dataRKSJ_St18_Manager_operation
   fun:_ZNSt14_Function_baseD1Ev
}
{
   <insert_a_suppression_name_here>
   Helgrind:Race
   fun:_ZNSt11_Deque_baseISt10shared_ptrIN2tf8TopologyEESaIS3_EED1Ev
   fun:_ZNSt5dequeISt10shared_ptrIN2tf8TopologyEESaIS3_EED1Ev
   fun:_ZNSt5queueISt10shared_ptrIN2tf8TopologyEESt5dequeIS3_SaIS3_EEED1Ev
   fun:_ZN2tf8TaskflowD1Ev
   fun:_ZNKSt14default_deleteIN2tf8TaskflowEEclEPS1_
   fun:_ZNSt10unique_ptrIN2tf8TaskflowESt14default_deleteIS1_EED1Ev
   fun:_ZN2tf3MoCISt10unique_ptrINS_8TaskflowESt14default_deleteIS2_EEED1Ev
   fun:_ZZN2tf8Executor9run_untilIZNS0_5run_nIZNS0_3runEONS_8TaskflowEEUlvE_EENS_6FutureIvEES4_mOT_EUlvE_S5_EES7_S4_S9_OT0_ENUlRNS_7RuntimeEE_D1Ev
   fun:_ZNSt14_Function_base13_Base_managerIZN2tf8Executor9run_untilIZNS2_5run_nIZNS2_3runEONS1_8TaskflowEEUlvE_EENS1_6FutureIvEES6_mOT_EUlvE_S7_EES9_S6_SB_OT0_EUlRNS1_7RuntimeEE_E10_M_destroyERSt9_Any_dataSt17integral_constantIbLb0EE
   fun:_ZNSt14_Function_base13_Base_managerIZN2tf8Executor9run_untilIZNS2_5run_nIZNS2_3runEONS1_8TaskflowEEUlvE_EENS1_6FutureIvEES6_mOT_EUlvE_S7_EES9_S6_SB_OT0_EUlRNS1_7RuntimeEE_E10_M_managerERSt9_Any_dataRKSJ_St18_Manager_operation
   fun:_ZNSt17_Function_handlerIFvRN2tf7RuntimeEEZNS0_8Executor9run_untilIZNS4_5run_nIZNS4_3runEONS0_8TaskflowEEUlvE_EENS0_6FutureIvEES8_mOT_EUlvE_S9_EESB_S8_SD_OT0_EUlS2_E_E10_M_managerERSt9_Any_dataRKSJ_St18_Manager_operation
   fun:_ZNSt14_Function_baseD1Ev
}
{
   <insert_a_suppression_name_here>
   Helgrind:Race
   fun:_ZNKSt7variantIJSt9monostateN2tf4Node6StaticENS2_7RuntimeENS2_20NonpreemptiveRuntimeENS2_7SubflowENS2_9ConditionENS2_14MultiConditionENS2_6ModuleENS2_5AsyncENS2_14DependentAsyncEEE5indexEv
   fun:_ZSt10__do_visitIvZNSt8__detail9__variant16_Variant_storageILb0EJSt9monostateN2tf4Node6StaticENS5_7RuntimeENS5_20NonpreemptiveRuntimeENS5_7SubflowENS5_9ConditionENS5_14MultiConditionENS5_6ModuleENS5_5AsyncENS5_14DependentAsyncEEE8_M_resetEvEUlOT_E_JRSt7variantIJS3_S6_S7_S8_S9_SA_SB_SC_SD_SE_EEEEDcOT0_DpOT1_
   fun:_ZNSt8__detail9__variant16_Variant_storageILb0EJSt9monostateN2tf4Node6StaticENS4_7RuntimeENS4_20NonpreemptiveRuntimeENS4_7SubflowENS4_9ConditionENS4_14MultiConditionENS4_6ModuleENS4_5AsyncENS4_14DependentAsyncEEE8_M_resetEv
   fun:_ZNSt8__detail9__variant16_Variant_storageILb0EJSt9monostateN2tf4Node6StaticENS4_7RuntimeENS4_20NonpreemptiveRuntimeENS4_7SubflowENS4_9ConditionENS4_14MultiConditionENS4_6ModuleENS4_5AsyncENS4_14DependentAsyncEEED1Ev
   fun:_ZNSt8__detail9__variant15_Copy_ctor_baseILb0EJSt9monostateN2tf4Node6StaticENS4_7RuntimeENS4_20NonpreemptiveRuntimeENS4_7SubflowENS4_9ConditionENS4_14MultiConditionENS4_6ModuleENS4_5AsyncENS4_14DependentAsyncEEED1Ev
   fun:_ZNSt8__detail9__variant15_Move_ctor_baseILb0EJSt9monostateN2tf4Node6StaticENS4_7RuntimeENS4_20NonpreemptiveRuntimeENS4_7SubflowENS4_9ConditionENS4_14MultiConditionENS4_6ModuleENS4_5AsyncENS4_14DependentAsyncEEED1Ev
   fun:_ZNSt8__detail9__variant17_Copy_assign_baseILb0EJSt9monostateN2tf4Node6StaticENS4_7RuntimeENS4_20NonpreemptiveRuntimeENS4_7SubflowENS4_9ConditionENS4_14MultiConditionENS4_6ModuleENS4_5AsyncENS4_14DependentAsyncEEED1Ev
   fun:_ZNSt8__detail9__variant17_Move_assign_baseILb0EJSt9monostateN2tf4Node6StaticENS4_7RuntimeENS4_20NonpreemptiveRuntimeENS4_7SubflowENS4_9ConditionENS4_14MultiConditionENS4_6ModuleENS4_5AsyncENS4_14DependentAsyncEEED1Ev
   fun:_ZNSt8__detail9__variant13_Variant_baseIJSt9monostateN2tf4Node6StaticENS4_7RuntimeENS4_20NonpreemptiveRuntimeENS4_7SubflowENS4_9ConditionENS4_14MultiConditionENS4_6ModuleENS4_5AsyncENS4_14DependentAsyncEEED1Ev
   fun:_ZNSt7variantIJSt9monostateN2tf4Node6StaticENS2_7RuntimeENS2_20NonpreemptiveRuntimeENS2_7SubflowENS2_9ConditionENS2_14MultiConditionENS2_6ModuleENS2_5AsyncENS2_14DependentAsyncEEED1Ev
   fun:_ZN2tf4NodeD1Ev
   fun:recycle
   fun:_ZN2tf5Graph5clearEv
}
{
   <insert_a_suppression_name_here>
   Helgrind:Race
   fun:_ZNSt6vectorIPN2tf4NodeESaIS2_EED1Ev
   fun:_ZN2tf5GraphD1Ev
   fun:_ZN2tf8TaskflowD1Ev
   fun:_ZNKSt14default_deleteIN2tf8TaskflowEEclEPS1_
   fun:_ZNSt10unique_ptrIN2tf8TaskflowESt14default_deleteIS1_EED1Ev
   fun:_ZN2tf3MoCISt10unique_ptrINS_8TaskflowESt14default_deleteIS2_EEED1Ev
   fun:_ZZN2tf8Executor9run_untilIZNS0_5run_nIZNS0_3runEONS_8TaskflowEEUlvE_EENS_6FutureIvEES4_mOT_EUlvE_S5_EES7_S4_S9_OT0_ENUlRNS_7RuntimeEE_D1Ev
   fun:_ZNSt14_Function_base13_Base_managerIZN2tf8Executor9run_untilIZNS2_5run_nIZNS2_3runEONS1_8TaskflowEEUlvE_EENS1_6FutureIvEES6_mOT_EUlvE_S7_EES9_S6_SB_OT0_EUlRNS1_7RuntimeEE_E10_M_destroyERSt9_Any_dataSt17integral_constantIbLb0EE
   fun:_ZNSt14_Function_base13_Base_managerIZN2tf8Executor9run_untilIZNS2_5run_nIZNS2_3runEONS1_8TaskflowEEUlvE_EENS1_6FutureIvEES6_mOT_EUlvE_S7_EES9_S6_SB_OT0_EUlRNS1_7RuntimeEE_E10_M_managerERSt9_Any_dataRKSJ_St18_Manager_operation
   fun:_ZNSt17_Function_handlerIFvRN2tf7RuntimeEEZNS0_8Executor9run_untilIZNS4_5run_nIZNS4_3runEONS0_8TaskflowEEUlvE_EENS0_6FutureIvEES8_mOT_EUlvE_S9_EESB_S8_SD_OT0_EUlS2_E_E10_M_managerERSt9_Any_dataRKSJ_St18_Manager_operation
   fun:_ZNSt14_Function_baseD1Ev
   fun:_ZNSt8functionIFvRN2tf7RuntimeEEED1Ev
}
{
   <insert_a_suppression_name_here>
   Helgrind:Race
   fun:_ZZN2tf8Executor9run_untilIZNS0_5run_nIZNS0_3runEONS_8TaskflowEEUlvE_EENS_6FutureIvEES4_mOT_EUlvE_S5_EES7_S4_S9_OT0_ENUlRNS_7RuntimeEE_clESE_
   fun:_ZSt13__invoke_implIvRZN2tf8Executor9run_untilIZNS1_5run_nIZNS1_3runEONS0_8TaskflowEEUlvE_EENS0_6FutureIvEES5_mOT_EUlvE_S6_EES8_S5_SA_OT0_EUlRNS0_7RuntimeEE_JSF_EES9_St14__invoke_otherSD_DpOT1_
   fun:_ZSt10__invoke_rIvRZN2tf8Executor9run_untilIZNS1_5run_nIZNS1_3runEONS0_8TaskflowEEUlvE_EENS0_6FutureIvEES5_mOT_EUlvE_S6_EES8_S5_SA_OT0_EUlRNS0_7RuntimeEE_JSF_EENSt9enable_ifIX16is_invocable_r_vIS9_SC_DpT1_EES9_E4typeESD_DpOSJ_
   fun:_ZNSt17_Function_handlerIFvRN2tf7RuntimeEEZNS0_8Executor9run_untilIZNS4_5run_nIZNS4_3runEONS0_8TaskflowEEUlvE_EENS0_6FutureIvEES8_mOT_EUlvE_S9_EESB_S8_SD_OT0_EUlS2_E_E9_M_invokeERKSt9_Any_dataS2_
   fun:_ZNKSt8functionIFvRN2tf7RuntimeEEEclES2_
   fun:_ZN2tf8Executor25_invoke_runtime_task_implERNS_6WorkerEPNS_4NodeERSt8functionIFvRNS_7RuntimeEEE
   fun:_ZN2tf8Executor18_invoke_async_taskERNS_6WorkerEPNS_4NodeE
   fun:_ZN2tf8Executor7_invokeERNS_6WorkerEPNS_4NodeE
   fun:_ZN2tf8Executor13_exploit_taskERNS_6WorkerERPNS_4NodeE
   fun:_ZZN2tf8Executor6_spawnEmSt10shared_ptrINS_15WorkerInterfaceEEENKUlvE_clEv
   fun:_ZSt13__invoke_implIvZN2tf8Executor6_spawnEmSt10shared_ptrINS0_15WorkerInterfaceEEEUlvE_JEET_St14__invoke_otherOT0_DpOT1_
   fun:_ZSt8__invokeIZN2tf8Executor6_spawnEmSt10shared_ptrINS0_15WorkerInterfaceEEEUlvE_JEENSt15__invoke_resultIT_JDpT0_EE4typeEOS7_DpOS8_
}
{
   <insert_a_suppression_name_here>
   Helgrind:Race
   fun:_ZNSt5dequeISt10shared_ptrIN2tf8TopologyEESaIS3_EE12emplace_backIJS3_EEERS3_DpOT_
   fun:_ZNSt5queueISt10shared_ptrIN2tf8TopologyEESt5dequeIS3_SaIS3_EEE7emplaceIJS3_EEEDcDpOT_
   fun:_ZN2tf8Taskflow14_fetch_enqueueESt10shared_ptrINS_8TopologyEE
   fun:_ZZN2tf8Executor9run_untilIZNS0_5run_nIZNS0_3runEONS_8TaskflowEEUlvE_EENS_6FutureIvEES4_mOT_EUlvE_S5_EES7_S4_S9_OT0_ENUlRNS_7RuntimeEE_clESE_
   fun:_ZSt13__invoke_implIvRZN2tf8Executor9run_untilIZNS1_5run_nIZNS1_3runEONS0_8TaskflowEEUlvE_EENS0_6FutureIvEES5_mOT_EUlvE_S6_EES8_S5_SA_OT0_EUlRNS0_7RuntimeEE_JSF_EES9_St14__invoke_otherSD_DpOT1_
   fun:_ZSt10__invoke_rIvRZN2tf8Executor9run_untilIZNS1_5run_nIZNS1_3runEONS0_8TaskflowEEUlvE_EENS0_6FutureIvEES5_mOT_EUlvE_S6_EES8_S5_SA_OT0_EUlRNS0_7RuntimeEE_JSF_EENSt9enable_ifIX16is_invocable_r_vIS9_SC_DpT1_EES9_E4typeESD_DpOSJ_
   fun:_ZNSt17_Function_handlerIFvRN2tf7RuntimeEEZNS0_8Executor9run_untilIZNS4_5run_nIZNS4_3runEONS0_8TaskflowEEUlvE_EENS0_6FutureIvEES8_mOT_EUlvE_S9_EESB_S8_SD_OT0_EUlS2_E_E9_M_invokeERKSt9_Any_dataS2_
   fun:_ZNKSt8functionIFvRN2tf7RuntimeEEEclES2_
   fun:_ZN2tf8Executor25_invoke_runtime_task_implERNS_6WorkerEPNS_4NodeERSt8functionIFvRNS_7RuntimeEEE
   fun:_ZN2tf8Executor18_invoke_async_taskERNS_6WorkerEPNS_4NodeE
   fun:_ZN2tf8Executor7_invokeERNS_6WorkerEPNS_4NodeE
   fun:_ZN2tf8Executor13_exploit_taskERNS_6WorkerERPNS_4NodeE
}
{
   <insert_a_suppression_name_here>
   Helgrind:Race
   fun:_ZSt4swapIPN2tf4NodeEENSt9enable_ifIXsrSt6__and_IJSt6__not_ISt15__is_tuple_likeIT_EESt21is_move_constructibleIS7_ESt18is_move_assignableIS7_EEE5valueEvE4typeERS7_SH_
   fun:_ZSt9iter_swapIN9__gnu_cxx17__normal_iteratorIPPN2tf4NodeESt6vectorIS4_SaIS4_EEEES9_EvT_T0_
   fun:_ZN2tf8Executor13_set_up_graphERNS_5GraphEPNS_8TopologyEPNS_8NodeBaseE
   fun:_ZN2tf8Executor27_schedule_graph_with_parentERNS_6WorkerERNS_5GraphEPNS_8TopologyEPNS_8NodeBaseE
   fun:_ZZN2tf8Executor9run_untilIZNS0_5run_nIZNS0_3runEONS_8TaskflowEEUlvE_EENS_6FutureIvEES4_mOT_EUlvE_S5_EES7_S4_S9_OT0_ENUlRNS_7RuntimeEE_clESE_
   fun:_ZSt13__invoke_implIvRZN2tf8Executor9run_untilIZNS1_5run_nIZNS1_3runEONS0_8TaskflowEEUlvE_EENS0_6FutureIvEES5_mOT_EUlvE_S6_EES8_S5_SA_OT0_EUlRNS0_7RuntimeEE_JSF_EES9_St14__invoke_otherSD_DpOT1_
   fun:_ZSt10__invoke_rIvRZN2tf8Executor9run_untilIZNS1_5run_nIZNS1_3runEONS0_8TaskflowEEUlvE_EENS0_6FutureIvEES5_mOT_EUlvE_S6_EES8_S5_SA_OT0_EUlRNS0_7RuntimeEE_JSF_EENSt9enable_ifIX16is_invocable_r_vIS9_SC_DpT1_EES9_E4typeESD_DpOSJ_
   fun:_ZNSt17_Function_handlerIFvRN2tf7RuntimeEEZNS0_8Executor9run_untilIZNS4_5run_nIZNS4_3runEONS0_8TaskflowEEUlvE_EENS0_6FutureIvEES8_mOT_EUlvE_S9_EESB_S8_SD_OT0_EUlS2_E_E9_M_invokeERKSt9_Any_dataS2_
   fun:_ZNKSt8functionIFvRN2tf7RuntimeEEEclES2_
   fun:_ZN2tf8Executor25_invoke_runtime_task_implERNS_6WorkerEPNS_4NodeERSt8functionIFvRNS_7RuntimeEEE
   fun:_ZN2tf8Executor18_invoke_async_taskERNS_6WorkerEPNS_4NodeE
   fun:_ZN2tf8Executor7_invokeERNS_6WorkerEPNS_4NodeE
}
{
   <insert_a_suppression_name_here>
   Helgrind:Race
   fun:_ZN2tf10BoundedWSQIPNS_4NodeELm8EE13try_bulk_pushIN9__gnu_cxx17__normal_iteratorIPS2_St6vectorIS2_SaIS2_EEEEEEmRT_m
   fun:_ZN2tf8Executor14_bulk_scheduleIN9__gnu_cxx17__normal_iteratorIPPNS_4NodeESt6vectorIS5_SaIS5_EEEEEEvRNS_6WorkerET_m
   fun:_ZN2tf8Executor27_schedule_graph_with_parentERNS_6WorkerERNS_5GraphEPNS_8TopologyEPNS_8NodeBaseE
   fun:_ZZN2tf8Executor9run_untilIZNS0_5run_nIZNS0_3runEONS_8TaskflowEEUlvE_EENS_6FutureIvEES4_mOT_EUlvE_S5_EES7_S4_S9_OT0_ENUlRNS_7RuntimeEE_clESE_
   fun:_ZSt13__invoke_implIvRZN2tf8Executor9run_untilIZNS1_5run_nIZNS1_3runEONS0_8TaskflowEEUlvE_EENS0_6FutureIvEES5_mOT_EUlvE_S6_EES8_S5_SA_OT0_EUlRNS0_7RuntimeEE_JSF_EES9_St14__invoke_otherSD_DpOT1_
   fun:_ZSt10__invoke_rIvRZN2tf8Executor9run_untilIZNS1_5run_nIZNS1_3runEONS0_8TaskflowEEUlvE_EENS0_6FutureIvEES5_mOT_EUlvE_S6_EES8_S5_SA_OT0_EUlRNS0_7RuntimeEE_JSF_EENSt9enable_ifIX16is_invocable_r_vIS9_SC_DpT1_EES9_E4typeESD_DpOSJ_
   fun:_ZNSt17_Function_handlerIFvRN2tf7RuntimeEEZNS0_8Executor9run_untilIZNS4_5run_nIZNS4_3runEONS0_8TaskflowEEUlvE_EENS0_6FutureIvEES8_mOT_EUlvE_S9_EESB_S8_SD_OT0_EUlS2_E_E9_M_invokeERKSt9_Any_dataS2_
   fun:_ZNKSt8functionIFvRN2tf7RuntimeEEEclES2_
   fun:_ZN2tf8Executor25_invoke_runtime_task_implERNS_6WorkerEPNS_4NodeERSt8functionIFvRNS_7RuntimeEEE
   fun:_ZN2tf8Executor18_invoke_async_taskERNS_6WorkerEPNS_4NodeE
   fun:_ZN2tf8Executor7_invokeERNS_6WorkerEPNS_4NodeE
   fun:_ZN2tf8Executor13_exploit_taskERNS_6WorkerERPNS_4NodeE
}
{
   <insert_a_suppression_name_here>
   Helgrind:Race
   fun:_ZNSt14_Function_base13_Base_managerIZZN4mpcf2ph23BarcodeToStableRankTaskIdE9run_asyncERNS1_8ExecutorEENKUlRKSt6vectorImSaImEEE_clESB_EUlvE_E14_M_get_pointerERKSt9_Any_data
   fun:_ZNSt17_Function_handlerIFvvEZZN4mpcf2ph23BarcodeToStableRankTaskIdE9run_asyncERNS1_8ExecutorEENKUlRKSt6vectorImSaImEEE_clESB_EUlvE_E9_M_invokeERKSt9_Any_data
   fun:_ZNKSt8functionIFvvEEclEv
   fun:_ZN2tf8Executor19_invoke_static_taskERNS_6WorkerEPNS_4NodeE
   fun:_ZN2tf8Executor7_invokeERNS_6WorkerEPNS_4NodeE
   fun:_ZN2tf8Executor13_exploit_taskERNS_6WorkerERPNS_4NodeE
   fun:_ZZN2tf8Executor6_spawnEmSt10shared_ptrINS_15WorkerInterfaceEEENKUlvE_clEv
   fun:_ZSt13__invoke_implIvZN2tf8Executor6_spawnEmSt10shared_ptrINS0_15WorkerInterfaceEEEUlvE_JEET_St14__invoke_otherOT0_DpOT1_
   fun:_ZSt8__invokeIZN2tf8Executor6_spawnEmSt10shared_ptrINS0_15WorkerInterfaceEEEUlvE_JEENSt15__invoke_resultIT_JDpT0_EE4typeEOS7_DpOS8_
   fun:_ZNSt6thread8_InvokerISt5tupleIJZN2tf8Executor6_spawnEmSt10shared_ptrINS2_15WorkerInterfaceEEEUlvE_EEE9_M_invokeIJLm0EEEEvSt12_Index_tupleIJXspT_EEE
   fun:_ZNSt6thread8_InvokerISt5tupleIJZN2tf8Executor6_spawnEmSt10shared_ptrINS2_15WorkerInterfaceEEEUlvE_EEEclEv
   fun:_ZNSt6thread11_State_implINS_8_InvokerISt5tupleIJZN2tf8Executor6_spawnEmSt10shared_ptrINS3_15WorkerInterfaceEEEUlvE_EEEEE6_M_runEv
}
{
   <insert_a_suppression_name_here>
   Helgrind:Race
   fun:_ZZZN4mpcf2ph23BarcodeToStableRankTaskIdE9run_asyncERNS_8ExecutorEENKUlRKSt6vectorImSaImEEE_clES9_ENKUlvE_clEv
   fun:_ZSt13__invoke_implIvRZZN4mpcf2ph23BarcodeToStableRankTaskIdE9run_asyncERNS0_8ExecutorEENKUlRKSt6vectorImSaImEEE_clESA_EUlvE_JEET_St14__invoke_otherOT0_DpOT1_
   fun:_ZSt10__invoke_rIvRZZN4mpcf2ph23BarcodeToStableRankTaskIdE9run_asyncERNS0_8ExecutorEENKUlRKSt6vectorImSaImEEE_clESA_EUlvE_JEENSt9enable_ifIX16is_invocable_r_vIT_T0_DpT1_EESF_E4typeEOSG_DpOSH_
   fun:_ZNSt17_Function_handlerIFvvEZZN4mpcf2ph23BarcodeToStableRankTaskIdE9run_asyncERNS1_8ExecutorEENKUlRKSt6vectorImSaImEEE_clESB_EUlvE_E9_M_invokeERKSt9_Any_data
   fun:_ZNKSt8functionIFvvEEclEv
   fun:_ZN2tf8Executor19_invoke_static_taskERNS_6WorkerEPNS_4NodeE
   fun:_ZN2tf8Executor7_invokeERNS_6WorkerEPNS_4NodeE
   fun:_ZN2tf8Executor13_exploit_taskERNS_6WorkerERPNS_4NodeE
   fun:_ZZN2tf8Executor6_spawnEmSt10shared_ptrINS_15WorkerInterfaceEEENKUlvE_clEv
   fun:_ZSt13__invoke_implIvZN2tf8Executor6_spawnEmSt10shared_ptrINS0_15WorkerInterfaceEEEUlvE_JEET_St14__invoke_otherOT0_DpOT1_
   fun:_ZSt8__invokeIZN2tf8Executor6_spawnEmSt10shared_ptrINS0_15WorkerInterfaceEEEUlvE_JEENSt15__invoke_resultIT_JDpT0_EE4typeEOS7_DpOS8_
   fun:_ZNSt6thread8_InvokerISt5tupleIJZN2tf8Executor6_spawnEmSt10shared_ptrINS2_15WorkerInterfaceEEEUlvE_EEE9_M_invokeIJLm0EEEEvSt12_Index_tupleIJXspT_EEE
}
{
   <insert_a_suppression_name_here>
   Helgrind:Race
   fun:_ZZZN4mpcf2ph23BarcodeToStableRankTaskIdE9run_asyncERNS_8ExecutorEENKUlRKSt6vectorImSaImEEE_clES9_ENKUlvE_clEv
   fun:_ZSt13__invoke_implIvRZZN4mpcf2ph23BarcodeToStableRankTaskIdE9run_asyncERNS0_8ExecutorEENKUlRKSt6vectorImSaImEEE_clESA_EUlvE_JEET_St14__invoke_otherOT0_DpOT1_
   fun:_ZSt10__invoke_rIvRZZN4mpcf2ph23BarcodeToStableRankTaskIdE9run_asyncERNS0_8ExecutorEENKUlRKSt6vectorImSaImEEE_clESA_EUlvE_JEENSt9enable_ifIX16is_invocable_r_vIT_T0_DpT1_EESF_E4typeEOSG_DpOSH_
   fun:_ZNSt17_Function_handlerIFvvEZZN4mpcf2ph23BarcodeToStableRankTaskIdE9run_asyncERNS1_8ExecutorEENKUlRKSt6vectorImSaImEEE_clESB_EUlvE_E9_M_invokeERKSt9_Any_data
   fun:_ZNKSt8functionIFvvEEclEv
   fun:_ZN2tf8Executor19_invoke_static_taskERNS_6WorkerEPNS_4NodeE
   fun:_ZN2tf8Executor7_invokeERNS_6WorkerEPNS_4NodeE
   fun:_ZN2tf8Executor13_exploit_taskERNS_6WorkerERPNS_4NodeE
   fun:_ZZN2tf8Executor6_spawnEmSt10shared_ptrINS_15WorkerInterfaceEEENKUlvE_clEv
   fun:_ZSt13__invoke_implIvZN2tf8Executor6_spawnEmSt10shared_ptrINS0_15WorkerInterfaceEEEUlvE_JEET_St14__invoke_otherOT0_DpOT1_
   fun:_ZSt8__invokeIZN2tf8Executor6_spawnEmSt10shared_ptrINS0_15WorkerInterfaceEEEUlvE_JEENSt15__invoke_resultIT_JDpT0_EE4typeEOS7_DpOS8_
   fun:_ZNSt6thread8_InvokerISt5tupleIJZN2tf8Executor6_spawnEmSt10shared_ptrINS2_15WorkerInterfaceEEEUlvE_EEE9_M_invokeIJLm0EEEEvSt12_Index_tupleIJXspT_EEE
}
{
   <insert_a_suppression_name_here>
   Helgrind:Race
   fun:_ZNK4mpcf6TensorINS_2ph7BarcodeIdEEE19index_to_data_indexERKSt6vectorImSaImEE
   fun:_ZNK4mpcf6TensorINS_2ph7BarcodeIdEEE12index_to_refERKSt6vectorImSaImEE
   fun:_ZNK4mpcf6TensorINS_2ph7BarcodeIdEEEclERKSt6vectorImSaImEE
   fun:_ZZZN4mpcf2ph23BarcodeToStableRankTaskIdE9run_asyncERNS_8ExecutorEENKUlRKSt6vectorImSaImEEE_clES9_ENKUlvE_clEv
   fun:_ZSt13__invoke_implIvRZZN4mpcf2ph23BarcodeToStableRankTaskIdE9run_asyncERNS0_8ExecutorEENKUlRKSt6vectorImSaImEEE_clESA_EUlvE_JEET_St14__invoke_otherOT0_DpOT1_
   fun:_ZSt10__invoke_rIvRZZN4mpcf2ph23BarcodeToStableRankTaskIdE9run_asyncERNS0_8ExecutorEENKUlRKSt6vectorImSaImEEE_clESA_EUlvE_JEENSt9enable_ifIX16is_invocable_r_vIT_T0_DpT1_EESF_E4typeEOSG_DpOSH_
   fun:_ZNSt17_Function_handlerIFvvEZZN4mpcf2ph23BarcodeToStableRankTaskIdE9run_asyncERNS1_8ExecutorEENKUlRKSt6vectorImSaImEEE_clESB_EUlvE_E9_M_invokeERKSt9_Any_data
   fun:_ZNKSt8functionIFvvEEclEv
   fun:_ZN2tf8Executor19_invoke_static_taskERNS_6WorkerEPNS_4NodeE
   fun:_ZN2tf8Executor7_invokeERNS_6WorkerEPNS_4NodeE
   fun:_ZN2tf8Executor13_exploit_taskERNS_6WorkerERPNS_4NodeE
   fun:_ZZN2tf8Executor6_spawnEmSt10shared_ptrINS_15WorkerInterfaceEEENKUlvE_clEv
}
{
   <insert_a_suppression_name_here>
   Helgrind:Race
   fun:_ZSt13inner_productIN9__gnu_cxx17__normal_iteratorIPKmSt6vectorImSaImEEEES7_mET1_T_S9_T0_S8_
   fun:_ZNK4mpcf6TensorINS_2ph7BarcodeIdEEE19index_to_data_indexERKSt6vectorImSaImEE
   fun:_ZNK4mpcf6TensorINS_2ph7BarcodeIdEEE12index_to_refERKSt6vectorImSaImEE
   fun:_ZNK4mpcf6TensorINS_2ph7BarcodeIdEEEclERKSt6vectorImSaImEE
   fun:_ZZZN4mpcf2ph23BarcodeToStableRankTaskIdE9run_asyncERNS_8ExecutorEENKUlRKSt6vectorImSaImEEE_clES9_ENKUlvE_clEv
   fun:_ZSt13__invoke_implIvRZZN4mpcf2ph23BarcodeToStableRankTaskIdE9run_asyncERNS0_8ExecutorEENKUlRKSt6vectorImSaImEEE_clESA_EUlvE_JEET_St14__invoke_otherOT0_DpOT1_
   fun:_ZSt10__invoke_rIvRZZN4mpcf2ph23BarcodeToStableRankTaskIdE9run_asyncERNS0_8ExecutorEENKUlRKSt6vectorImSaImEEE_clESA_EUlvE_JEENSt9enable_ifIX16is_invocable_r_vIT_T0_DpT1_EESF_E4typeEOSG_DpOSH_
   fun:_ZNSt17_Function_handlerIFvvEZZN4mpcf2ph23BarcodeToStableRankTaskIdE9run_asyncERNS1_8ExecutorEENKUlRKSt6vectorImSaImEEE_clESB_EUlvE_E9_M_invokeERKSt9_Any_data
   fun:_ZNKSt8functionIFvvEEclEv
   fun:_ZN2tf8Executor19_invoke_static_taskERNS_6WorkerEPNS_4NodeE
   fun:_ZN2tf8Executor7_invokeERNS_6WorkerEPNS_4NodeE
   fun:_ZN2tf8Executor13_exploit_taskERNS_6WorkerERPNS_4NodeE
}
{
   <insert_a_suppression_name_here>
   Helgrind:Race
   fun:_ZNK4mpcf6TensorINS_2ph7BarcodeIdEEE19index_to_data_indexERKSt6vectorImSaImEE
   fun:_ZNK4mpcf6TensorINS_2ph7BarcodeIdEEE12index_to_refERKSt6vectorImSaImEE
   fun:_ZNK4mpcf6TensorINS_2ph7BarcodeIdEEEclERKSt6vectorImSaImEE
   fun:_ZZZN4mpcf2ph23BarcodeToStableRankTaskIdE9run_asyncERNS_8ExecutorEENKUlRKSt6vectorImSaImEEE_clES9_ENKUlvE_clEv
   fun:_ZSt13__invoke_implIvRZZN4mpcf2ph23BarcodeToStableRankTaskIdE9run_asyncERNS0_8ExecutorEENKUlRKSt6vectorImSaImEEE_clESA_EUlvE_JEET_St14__invoke_otherOT0_DpOT1_
   fun:_ZSt10__invoke_rIvRZZN4mpcf2ph23BarcodeToStableRankTaskIdE9run_asyncERNS0_8ExecutorEENKUlRKSt6vectorImSaImEEE_clESA_EUlvE_JEENSt9enable_ifIX16is_invocable_r_vIT_T0_DpT1_EESF_E4typeEOSG_DpOSH_
   fun:_ZNSt17_Function_handlerIFvvEZZN4mpcf2ph23BarcodeToStableRankTaskIdE9run_asyncERNS1_8ExecutorEENKUlRKSt6vectorImSaImEEE_clESB_EUlvE_E9_M_invokeERKSt9_Any_data
   fun:_ZNKSt8functionIFvvEEclEv
   fun:_ZN2tf8Executor19_invoke_static_taskERNS_6WorkerEPNS_4NodeE
   fun:_ZN2tf8Executor7_invokeERNS_6WorkerEPNS_4NodeE
   fun:_ZN2tf8Executor13_exploit_taskERNS_6WorkerERPNS_4NodeE
   fun:_ZZN2tf8Executor6_spawnEmSt10shared_ptrINS_15WorkerInterfaceEEENKUlvE_clEv
}
{
   <insert_a_suppression_name_here>
   Helgrind:Race
   fun:_ZN9__gnu_cxx17__normal_iteratorIPKN4mpcf2ph15PersistencePairIdEESt6vectorIS4_SaIS4_EEEC1ERKS6_
   fun:_ZNKSt6vectorIN4mpcf2ph15PersistencePairIdEESaIS3_EE3endEv
   fun:_ZNKSt6vectorIN4mpcf2ph15PersistencePairIdEESaIS3_EE5emptyEv
   fun:_ZN4mpcf2ph22barcode_to_stable_rankIdEENS_3PcfIT_S3_EERKNS0_7BarcodeIS3_EE
   fun:_ZZZN4mpcf2ph23BarcodeToStableRankTaskIdE9run_asyncERNS_8ExecutorEENKUlRKSt6vectorImSaImEEE_clES9_ENKUlvE_clEv
   fun:_ZSt13__invoke_implIvRZZN4mpcf2ph23BarcodeToStableRankTaskIdE9run_asyncERNS0_8ExecutorEENKUlRKSt6vectorImSaImEEE_clESA_EUlvE_JEET_St14__invoke_otherOT0_DpOT1_
   fun:_ZSt10__invoke_rIvRZZN4mpcf2ph23BarcodeToStableRankTaskIdE9run_asyncERNS0_8ExecutorEENKUlRKSt6vectorImSaImEEE_clESA_EUlvE_JEENSt9enable_ifIX16is_invocable_r_vIT_T0_DpT1_EESF_E4typeEOSG_DpOSH_
   fun:_ZNSt17_Function_handlerIFvvEZZN4mpcf2ph23BarcodeToStableRankTaskIdE9run_asyncERNS1_8ExecutorEENKUlRKSt6vectorImSaImEEE_clESB_EUlvE_E9_M_invokeERKSt9_Any_data
   fun:_ZNKSt8functionIFvvEEclEv
   fun:_ZN2tf8Executor19_invoke_static_taskERNS_6WorkerEPNS_4NodeE
   fun:_ZN2tf8Executor7_invokeERNS_6WorkerEPNS_4NodeE
   fun:_ZN2tf8Executor13_exploit_taskERNS_6WorkerERPNS_4NodeE
}
{
   <insert_a_suppression_name_here>
   Helgrind:Race
   fun:_ZN9__gnu_cxx17__normal_iteratorIPKN4mpcf2ph15PersistencePairIdEESt6vectorIS4_SaIS4_EEEC1ERKS6_
   fun:_ZNKSt6vectorIN4mpcf2ph15PersistencePairIdEESaIS3_EE5beginEv
   fun:_ZNKSt6vectorIN4mpcf2ph15PersistencePairIdEESaIS3_EE5emptyEv
   fun:_ZN4mpcf2ph22barcode_to_stable_rankIdEENS_3PcfIT_S3_EERKNS0_7BarcodeIS3_EE
   fun:_ZZZN4mpcf2ph23BarcodeToStableRankTaskIdE9run_asyncERNS_8ExecutorEENKUlRKSt6vectorImSaImEEE_clES9_ENKUlvE_clEv
   fun:_ZSt13__invoke_implIvRZZN4mpcf2ph23BarcodeToStableRankTaskIdE9run_asyncERNS0_8ExecutorEENKUlRKSt6vectorImSaImEEE_clESA_EUlvE_JEET_St14__invoke_otherOT0_DpOT1_
   fun:_ZSt10__invoke_rIvRZZN4mpcf2ph23BarcodeToStableRankTaskIdE9run_asyncERNS0_8ExecutorEENKUlRKSt6vectorImSaImEEE_clESA_EUlvE_JEENSt9enable_ifIX16is_invocable_r_vIT_T0_DpT1_EESF_E4typeEOSG_DpOSH_
   fun:_ZNSt17_Function_handlerIFvvEZZN4mpcf2ph23BarcodeToStableRankTaskIdE9run_asyncERNS1_8ExecutorEENKUlRKSt6vectorImSaImEEE_clESB_EUlvE_E9_M_invokeERKSt9_Any_data
   fun:_ZNKSt8functionIFvvEEclEv
   fun:_ZN2tf8Executor19_invoke_static_taskERNS_6WorkerEPNS_4NodeE
   fun:_ZN2tf8Executor7_invokeERNS_6WorkerEPNS_4NodeE
   fun:_ZN2tf8Executor13_exploit_taskERNS_6WorkerERPNS_4NodeE
}
{
   <insert_a_suppression_name_here>
   Helgrind:Race
   fun:_ZZN4mpcf2ph22barcode_to_stable_rankIdEENS_3PcfIT_S3_EERKNS0_7BarcodeIS3_EEENKUlRKNS0_15PersistencePairIdEEE_clESC_
   fun:_ZSt9transformIN9__gnu_cxx17__normal_iteratorIPKN4mpcf2ph15PersistencePairIdEESt6vectorIS5_SaIS5_EEEESt20back_insert_iteratorIS8_IdSaIdEEEZNS3_22barcode_to_stable_rankIdEENS2_3PcfIT_SI_EERKNS3_7BarcodeISI_EEEUlRS6_E_ET0_SI_SI_SQ_T1_
   fun:_ZN4mpcf2ph22barcode_to_stable_rankIdEENS_3PcfIT_S3_EERKNS0_7BarcodeIS3_EE
   fun:_ZZZN4mpcf2ph23BarcodeToStableRankTaskIdE9run_asyncERNS_8ExecutorEENKUlRKSt6vectorImSaImEEE_clES9_ENKUlvE_clEv
   fun:_ZSt13__invoke_implIvRZZN4mpcf2ph23BarcodeToStableRankTaskIdE9run_asyncERNS0_8ExecutorEENKUlRKSt6vectorImSaImEEE_clESA_EUlvE_JEET_St14__invoke_otherOT0_DpOT1_
   fun:_ZSt10__invoke_rIvRZZN4mpcf2ph23BarcodeToStableRankTaskIdE9run_asyncERNS0_8ExecutorEENKUlRKSt6vectorImSaImEEE_clESA_EUlvE_JEENSt9enable_ifIX16is_invocable_r_vIT_T0_DpT1_EESF_E4typeEOSG_DpOSH_
   fun:_ZNSt17_Function_handlerIFvvEZZN4mpcf2ph23BarcodeToStableRankTaskIdE9run_asyncERNS1_8ExecutorEENKUlRKSt6vectorImSaImEEE_clESB_EUlvE_E9_M_invokeERKSt9_Any_data
   fun:_ZNKSt8functionIFvvEEclEv
   fun:_ZN2tf8Executor19_invoke_static_taskERNS_6WorkerEPNS_4NodeE
   fun:_ZN2tf8Executor7_invokeERNS_6WorkerEPNS_4NodeE
   fun:_ZN2tf8Executor13_exploit_taskERNS_6WorkerERPNS_4NodeE
   fun:_ZZN2tf8Executor6_spawnEmSt10shared_ptrINS_15WorkerInterfaceEEENKUlvE_clEv
}
{
   <insert_a_suppression_name_here>
   Helgrind:Race
   fun:_ZZN4mpcf2ph22barcode_to_stable_rankIdEENS_3PcfIT_S3_EERKNS0_7BarcodeIS3_EEENKUlRKNS0_15PersistencePairIdEEE_clESC_
   fun:_ZSt9transformIN9__gnu_cxx17__normal_iteratorIPKN4mpcf2ph15PersistencePairIdEESt6vectorIS5_SaIS5_EEEESt20back_insert_iteratorIS8_IdSaIdEEEZNS3_22barcode_to_stable_rankIdEENS2_3PcfIT_SI_EERKNS3_7BarcodeISI_EEEUlRS6_E_ET0_SI_SI_SQ_T1_
   fun:_ZN4mpcf2ph22barcode_to_stable_rankIdEENS_3PcfIT_S3_EERKNS0_7BarcodeIS3_EE
   fun:_ZZZN4mpcf2ph23BarcodeToStableRankTaskIdE9run_asyncERNS_8ExecutorEENKUlRKSt6vectorImSaImEEE_clES9_ENKUlvE_clEv
   fun:_ZSt13__invoke_implIvRZZN4mpcf2ph23BarcodeToStableRankTaskIdE9run_asyncERNS0_8ExecutorEENKUlRKSt6vectorImSaImEEE_clESA_EUlvE_JEET_St14__invoke_otherOT0_DpOT1_
   fun:_ZSt10__invoke_rIvRZZN4mpcf2ph23BarcodeToStableRankTaskIdE9run_asyncERNS0_8ExecutorEENKUlRKSt6vectorImSaImEEE_clESA_EUlvE_JEENSt9enable_ifIX16is_invocable_r_vIT_T0_DpT1_EESF_E4typeEOSG_DpOSH_
   fun:_ZNSt17_Function_handlerIFvvEZZN4mpcf2ph23BarcodeToStableRankTaskIdE9run_asyncERNS1_8ExecutorEENKUlRKSt6vectorImSaImEEE_clESB_EUlvE_E9_M_invokeERKSt9_Any_data
   fun:_ZNKSt8functionIFvvEEclEv
   fun:_ZN2tf8Executor19_invoke_static_taskERNS_6WorkerEPNS_4NodeE
   fun:_ZN2tf8Executor7_invokeERNS_6WorkerEPNS_4NodeE
   fun:_ZN2tf8Executor13_exploit_taskERNS_6WorkerERPNS_4NodeE
   fun:_ZZN2tf8Executor6_spawnEmSt10shared_ptrINS_15WorkerInterfaceEEENKUlvE_clEv
}
{
   <insert_a_suppression_name_here>
   Helgrind:Race
   fun:_ZZZN4mpcf2ph23BarcodeToStableRankTaskIdE9run_asyncERNS_8ExecutorEENKUlRKSt6vectorImSaImEEE_clES9_ENKUlvE_clEv
   fun:_ZSt13__invoke_implIvRZZN4mpcf2ph23BarcodeToStableRankTaskIdE9run_asyncERNS0_8ExecutorEENKUlRKSt6vectorImSaImEEE_clESA_EUlvE_JEET_St14__invoke_otherOT0_DpOT1_
   fun:_ZSt10__invoke_rIvRZZN4mpcf2ph23BarcodeToStableRankTaskIdE9run_asyncERNS0_8ExecutorEENKUlRKSt6vectorImSaImEEE_clESA_EUlvE_JEENSt9enable_ifIX16is_invocable_r_vIT_T0_DpT1_EESF_E4typeEOSG_DpOSH_
   fun:_ZNSt17_Function_handlerIFvvEZZN4mpcf2ph23BarcodeToStableRankTaskIdE9run_asyncERNS1_8ExecutorEENKUlRKSt6vectorImSaImEEE_clESB_EUlvE_E9_M_invokeERKSt9_Any_data
   fun:_ZNKSt8functionIFvvEEclEv
   fun:_ZN2tf8Executor19_invoke_static_taskERNS_6WorkerEPNS_4NodeE
   fun:_ZN2tf8Executor7_invokeERNS_6WorkerEPNS_4NodeE
   fun:_ZN2tf8Executor13_exploit_taskERNS_6WorkerERPNS_4NodeE
   fun:_ZZN2tf8Executor6_spawnEmSt10shared_ptrINS_15WorkerInterfaceEEENKUlvE_clEv
   fun:_ZSt13__invoke_implIvZN2tf8Executor6_spawnEmSt10shared_ptrINS0_15WorkerInterfaceEEEUlvE_JEET_St14__invoke_otherOT0_DpOT1_
   fun:_ZSt8__invokeIZN2tf8Executor6_spawnEmSt10shared_ptrINS0_15WorkerInterfaceEEEUlvE_JEENSt15__invoke_resultIT_JDpT0_EE4typeEOS7_DpOS8_
   fun:_ZNSt6thread8_InvokerISt5tupleIJZN2tf8Executor6_spawnEmSt10shared_ptrINS2_15WorkerInterfaceEEEUlvE_EEE9_M_invokeIJLm0EEEEvSt12_Index_tupleIJXspT_EEE
}
{
   <insert_a_suppression_name_here>
   Helgrind:Race
   fun:_ZNK4mpcf6TensorINS_3PcfIddEEE19index_to_data_indexERKSt6vectorImSaImEE
   fun:_ZN4mpcf6TensorINS_3PcfIddEEE12index_to_refERKSt6vectorImSaImEE
   fun:_ZN4mpcf6TensorINS_3PcfIddEEEclERKSt6vectorImSaImEE
   fun:_ZZZN4mpcf2ph23BarcodeToStableRankTaskIdE9run_asyncERNS_8ExecutorEENKUlRKSt6vectorImSaImEEE_clES9_ENKUlvE_clEv
   fun:_ZSt13__invoke_implIvRZZN4mpcf2ph23BarcodeToStableRankTaskIdE9run_asyncERNS0_8ExecutorEENKUlRKSt6vectorImSaImEEE_clESA_EUlvE_JEET_St14__invoke_otherOT0_DpOT1_
   fun:_ZSt10__invoke_rIvRZZN4mpcf2ph23BarcodeToStableRankTaskIdE9run_asyncERNS0_8ExecutorEENKUlRKSt6vectorImSaImEEE_clESA_EUlvE_JEENSt9enable_ifIX16is_invocable_r_vIT_T0_DpT1_EESF_E4typeEOSG_DpOSH_
   fun:_ZNSt17_Function_handlerIFvvEZZN4mpcf2ph23BarcodeToStableRankTaskIdE9run_asyncERNS1_8ExecutorEENKUlRKSt6vectorImSaImEEE_clESB_EUlvE_E9_M_invokeERKSt9_Any_data
   fun:_ZNKSt8functionIFvvEEclEv
   fun:_ZN2tf8Executor19_invoke_static_taskERNS_6WorkerEPNS_4NodeE
   fun:_ZN2tf8Executor7_invokeERNS_6WorkerEPNS_4NodeE
   fun:_ZN2tf8Executor13_exploit_taskERNS_6WorkerERPNS_4NodeE
   fun:_ZZN2tf8Executor6_spawnEmSt10shared_ptrINS_15WorkerInterfaceEEENKUlvE_clEv
}
{
   <insert_a_suppression_name_here>
   Helgrind:Race
   fun:_ZSt13inner_productIN9__gnu_cxx17__normal_iteratorIPKmSt6vectorImSaImEEEES7_mET1_T_S9_T0_S8_
   fun:_ZNK4mpcf6TensorINS_3PcfIddEEE19index_to_data_indexERKSt6vectorImSaImEE
   fun:_ZN4mpcf6TensorINS_3PcfIddEEE12index_to_refERKSt6vectorImSaImEE
   fun:_ZN4mpcf6TensorINS_3PcfIddEEEclERKSt6vectorImSaImEE
   fun:_ZZZN4mpcf2ph23BarcodeToStableRankTaskIdE9run_asyncERNS_8ExecutorEENKUlRKSt6vectorImSaImEEE_clES9_ENKUlvE_clEv
   fun:_ZSt13__invoke_implIvRZZN4mpcf2ph23BarcodeToStableRankTaskIdE9run_asyncERNS0_8ExecutorEENKUlRKSt6vectorImSaImEEE_clESA_EUlvE_JEET_St14__invoke_otherOT0_DpOT1_
   fun:_ZSt10__invoke_rIvRZZN4mpcf2ph23BarcodeToStableRankTaskIdE9run_asyncERNS0_8ExecutorEENKUlRKSt6vectorImSaImEEE_clESA_EUlvE_JEENSt9enable_ifIX16is_invocable_r_vIT_T0_DpT1_EESF_E4typeEOSG_DpOSH_
   fun:_ZNSt17_Function_handlerIFvvEZZN4mpcf2ph23BarcodeToStableRankTaskIdE9run_asyncERNS1_8ExecutorEENKUlRKSt6vectorImSaImEEE_clESB_EUlvE_E9_M_invokeERKSt9_Any_data
   fun:_ZNKSt8functionIFvvEEclEv
   fun:_ZN2tf8Executor19_invoke_static_taskERNS_6WorkerEPNS_4NodeE
   fun:_ZN2tf8Executor7_invokeERNS_6WorkerEPNS_4NodeE
   fun:_ZN2tf8Executor13_exploit_taskERNS_6WorkerERPNS_4NodeE
}
{
   <insert_a_suppression_name_here>
   Helgrind:Race
   fun:_ZNK4mpcf6TensorINS_3PcfIddEEE19index_to_data_indexERKSt6vectorImSaImEE
   fun:_ZN4mpcf6TensorINS_3PcfIddEEE12index_to_refERKSt6vectorImSaImEE
   fun:_ZN4mpcf6TensorINS_3PcfIddEEEclERKSt6vectorImSaImEE
   fun:_ZZZN4mpcf2ph23BarcodeToStableRankTaskIdE9run_asyncERNS_8ExecutorEENKUlRKSt6vectorImSaImEEE_clES9_ENKUlvE_clEv
   fun:_ZSt13__invoke_implIvRZZN4mpcf2ph23BarcodeToStableRankTaskIdE9run_asyncERNS0_8ExecutorEENKUlRKSt6vectorImSaImEEE_clESA_EUlvE_JEET_St14__invoke_otherOT0_DpOT1_
   fun:_ZSt10__invoke_rIvRZZN4mpcf2ph23BarcodeToStableRankTaskIdE9run_asyncERNS0_8ExecutorEENKUlRKSt6vectorImSaImEEE_clESA_EUlvE_JEENSt9enable_ifIX16is_invocable_r_vIT_T0_DpT1_EESF_E4typeEOSG_DpOSH_
   fun:_ZNSt17_Function_handlerIFvvEZZN4mpcf2ph23BarcodeToStableRankTaskIdE9run_asyncERNS1_8ExecutorEENKUlRKSt6vectorImSaImEEE_clESB_EUlvE_E9_M_invokeERKSt9_Any_data
   fun:_ZNKSt8functionIFvvEEclEv
   fun:_ZN2tf8Executor19_invoke_static_taskERNS_6WorkerEPNS_4NodeE
   fun:_ZN2tf8Executor7_invokeERNS_6WorkerEPNS_4NodeE
   fun:_ZN2tf8Executor13_exploit_taskERNS_6WorkerERPNS_4NodeE
   fun:_ZZN2tf8Executor6_spawnEmSt10shared_ptrINS_15WorkerInterfaceEEENKUlvE_clEv
}
{
   <insert_a_suppression_name_here>
   Helgrind:Race
   fun:_ZNKSt12__shared_ptrIA_N4mpcf3PcfIddEELN9__gnu_cxx12_Lock_policyE2EE3getEv
   fun:_ZNKSt19__shared_ptr_accessIA_N4mpcf3PcfIddEELN9__gnu_cxx12_Lock_policyE2ELb1ELb0EE6_M_getEv
   fun:_ZNKSt19__shared_ptr_accessIA_N4mpcf3PcfIddEELN9__gnu_cxx12_Lock_policyE2ELb1ELb0EEixEl
   fun:_ZN4mpcf6TensorINS_3PcfIddEEE12index_to_refERKSt6vectorImSaImEE
   fun:_ZN4mpcf6TensorINS_3PcfIddEEEclERKSt6vectorImSaImEE
   fun:_ZZZN4mpcf2ph23BarcodeToStableRankTaskIdE9run_asyncERNS_8ExecutorEENKUlRKSt6vectorImSaImEEE_clES9_ENKUlvE_clEv
   fun:_ZSt13__invoke_implIvRZZN4mpcf2ph23BarcodeToStableRankTaskIdE9run_asyncERNS0_8ExecutorEENKUlRKSt6vectorImSaImEEE_clESA_EUlvE_JEET_St14__invoke_otherOT0_DpOT1_
   fun:_ZSt10__invoke_rIvRZZN4mpcf2ph23BarcodeToStableRankTaskIdE9run_asyncERNS0_8ExecutorEENKUlRKSt6vectorImSaImEEE_clESA_EUlvE_JEENSt9enable_ifIX16is_invocable_r_vIT_T0_DpT1_EESF_E4typeEOSG_DpOSH_
   fun:_ZNSt17_Function_handlerIFvvEZZN4mpcf2ph23BarcodeToStableRankTaskIdE9run_asyncERNS1_8ExecutorEENKUlRKSt6vectorImSaImEEE_clESB_EUlvE_E9_M_invokeERKSt9_Any_data
   fun:_ZNKSt8functionIFvvEEclEv
   fun:_ZN2tf8Executor19_invoke_static_taskERNS_6WorkerEPNS_4NodeE
   fun:_ZN2tf8Executor7_invokeERNS_6WorkerEPNS_4NodeE
}
{
   <insert_a_suppression_name_here>
   Helgrind:Race
   fun:_ZNSt12_Vector_baseIN4mpcf5PointIddEESaIS2_EE17_Vector_impl_data12_M_copy_dataERKS5_
   fun:_ZNSt12_Vector_baseIN4mpcf5PointIddEESaIS2_EE17_Vector_impl_data12_M_swap_dataERS5_
   fun:_ZNSt6vectorIN4mpcf5PointIddEESaIS2_EE14_M_move_assignEOS4_St17integral_constantIbLb1EE
   fun:_ZNSt6vectorIN4mpcf5PointIddEESaIS2_EEaSEOS4_
   fun:_ZN4mpcf3PcfIddEaSEOS1_
   fun:_ZZZN4mpcf2ph23BarcodeToStableRankTaskIdE9run_asyncERNS_8ExecutorEENKUlRKSt6vectorImSaImEEE_clES9_ENKUlvE_clEv
   fun:_ZSt13__invoke_implIvRZZN4mpcf2ph23BarcodeToStableRankTaskIdE9run_asyncERNS0_8ExecutorEENKUlRKSt6vectorImSaImEEE_clESA_EUlvE_JEET_St14__invoke_otherOT0_DpOT1_
   fun:_ZSt10__invoke_rIvRZZN4mpcf2ph23BarcodeToStableRankTaskIdE9run_asyncERNS0_8ExecutorEENKUlRKSt6vectorImSaImEEE_clESA_EUlvE_JEENSt9enable_ifIX16is_invocable_r_vIT_T0_DpT1_EESF_E4typeEOSG_DpOSH_
   fun:_ZNSt17_Function_handlerIFvvEZZN4mpcf2ph23BarcodeToStableRankTaskIdE9run_asyncERNS1_8ExecutorEENKUlRKSt6vectorImSaImEEE_clESB_EUlvE_E9_M_invokeERKSt9_Any_data
   fun:_ZNKSt8functionIFvvEEclEv
   fun:_ZN2tf8Executor19_invoke_static_taskERNS_6WorkerEPNS_4NodeE
   fun:_ZN2tf8Executor7_invokeERNS_6WorkerEPNS_4NodeE
}
{
   <insert_a_suppression_name_here>
   Helgrind:Race
   fun:_ZNSt12_Vector_baseIN4mpcf5PointIddEESaIS2_EE17_Vector_impl_data12_M_copy_dataERKS5_
   fun:_ZNSt12_Vector_baseIN4mpcf5PointIddEESaIS2_EE17_Vector_impl_data12_M_swap_dataERS5_
   fun:_ZNSt6vectorIN4mpcf5PointIddEESaIS2_EE14_M_move_assignEOS4_St17integral_constantIbLb1EE
   fun:_ZNSt6vectorIN4mpcf5PointIddEESaIS2_EEaSEOS4_
   fun:_ZN4mpcf3PcfIddEaSEOS1_
   fun:_ZZZN4mpcf2ph23BarcodeToStableRankTaskIdE9run_asyncERNS_8ExecutorEENKUlRKSt6vectorImSaImEEE_clES9_ENKUlvE_clEv
   fun:_ZSt13__invoke_implIvRZZN4mpcf2ph23BarcodeToStableRankTaskIdE9run_asyncERNS0_8ExecutorEENKUlRKSt6vectorImSaImEEE_clESA_EUlvE_JEET_St14__invoke_otherOT0_DpOT1_
   fun:_ZSt10__invoke_rIvRZZN4mpcf2ph23BarcodeToStableRankTaskIdE9run_asyncERNS0_8ExecutorEENKUlRKSt6vectorImSaImEEE_clESA_EUlvE_JEENSt9enable_ifIX16is_invocable_r_vIT_T0_DpT1_EESF_E4typeEOSG_DpOSH_
   fun:_ZNSt17_Function_handlerIFvvEZZN4mpcf2ph23BarcodeToStableRankTaskIdE9run_asyncERNS1_8ExecutorEENKUlRKSt6vectorImSaImEEE_clESB_EUlvE_E9_M_invokeERKSt9_Any_data
   fun:_ZNKSt8functionIFvvEEclEv
   fun:_ZN2tf8Executor19_invoke_static_taskERNS_6WorkerEPNS_4NodeE
   fun:_ZN2tf8Executor7_invokeERNS_6WorkerEPNS_4NodeE
}
{
   <insert_a_suppression_name_here>
   Helgrind:Race
   fun:_ZNSt12_Vector_baseIN4mpcf5PointIddEESaIS2_EE17_Vector_impl_data12_M_copy_dataERKS5_
   fun:_ZNSt12_Vector_baseIN4mpcf5PointIddEESaIS2_EE17_Vector_impl_data12_M_swap_dataERS5_
   fun:_ZNSt6vectorIN4mpcf5PointIddEESaIS2_EE14_M_move_assignEOS4_St17integral_constantIbLb1EE
   fun:_ZNSt6vectorIN4mpcf5PointIddEESaIS2_EEaSEOS4_
   fun:_ZN4mpcf3PcfIddEaSEOS1_
   fun:_ZZZN4mpcf2ph23BarcodeToStableRankTaskIdE9run_asyncERNS_8ExecutorEENKUlRKSt6vectorImSaImEEE_clES9_ENKUlvE_clEv
   fun:_ZSt13__invoke_implIvRZZN4mpcf2ph23BarcodeToStableRankTaskIdE9run_asyncERNS0_8ExecutorEENKUlRKSt6vectorImSaImEEE_clESA_EUlvE_JEET_St14__invoke_otherOT0_DpOT1_
   fun:_ZSt10__invoke_rIvRZZN4mpcf2ph23BarcodeToStableRankTaskIdE9run_asyncERNS0_8ExecutorEENKUlRKSt6vectorImSaImEEE_clESA_EUlvE_JEENSt9enable_ifIX16is_invocable_r_vIT_T0_DpT1_EESF_E4typeEOSG_DpOSH_
   fun:_ZNSt17_Function_handlerIFvvEZZN4mpcf2ph23BarcodeToStableRankTaskIdE9run_asyncERNS1_8ExecutorEENKUlRKSt6vectorImSaImEEE_clESB_EUlvE_E9_M_invokeERKSt9_Any_data
   fun:_ZNKSt8functionIFvvEEclEv
   fun:_ZN2tf8Executor19_invoke_static_taskERNS_6WorkerEPNS_4NodeE
   fun:_ZN2tf8Executor7_invokeERNS_6WorkerEPNS_4NodeE
}
{
   <insert_a_suppression_name_here>
   Helgrind:Race
   fun:_ZNSt12_Vector_baseIN4mpcf5PointIddEESaIS2_EE17_Vector_impl_data12_M_copy_dataERKS5_
   fun:_ZNSt12_Vector_baseIN4mpcf5PointIddEESaIS2_EE17_Vector_impl_data12_M_swap_dataERS5_
   fun:_ZNSt6vectorIN4mpcf5PointIddEESaIS2_EE14_M_move_assignEOS4_St17integral_constantIbLb1EE
   fun:_ZNSt6vectorIN4mpcf5PointIddEESaIS2_EEaSEOS4_
   fun:_ZN4mpcf3PcfIddEaSEOS1_
   fun:_ZZZN4mpcf2ph23BarcodeToStableRankTaskIdE9run_asyncERNS_8ExecutorEENKUlRKSt6vectorImSaImEEE_clES9_ENKUlvE_clEv
   fun:_ZSt13__invoke_implIvRZZN4mpcf2ph23BarcodeToStableRankTaskIdE9run_asyncERNS0_8ExecutorEENKUlRKSt6vectorImSaImEEE_clESA_EUlvE_JEET_St14__invoke_otherOT0_DpOT1_
   fun:_ZSt10__invoke_rIvRZZN4mpcf2ph23BarcodeToStableRankTaskIdE9run_asyncERNS0_8ExecutorEENKUlRKSt6vectorImSaImEEE_clESA_EUlvE_JEENSt9enable_ifIX16is_invocable_r_vIT_T0_DpT1_EESF_E4typeEOSG_DpOSH_
   fun:_ZNSt17_Function_handlerIFvvEZZN4mpcf2ph23BarcodeToStableRankTaskIdE9run_asyncERNS1_8ExecutorEENKUlRKSt6vectorImSaImEEE_clESB_EUlvE_E9_M_invokeERKSt9_Any_data
   fun:_ZNKSt8functionIFvvEEclEv
   fun:_ZN2tf8Executor19_invoke_static_taskERNS_6WorkerEPNS_4NodeE
   fun:_ZN2tf8Executor7_invokeERNS_6WorkerEPNS_4NodeE
}
{
   <insert_a_suppression_name_here>
   Helgrind:Race
   fun:_ZNSt12_Vector_baseIN4mpcf5PointIddEESaIS2_EE17_Vector_impl_data12_M_copy_dataERKS5_
   fun:_ZNSt12_Vector_baseIN4mpcf5PointIddEESaIS2_EE17_Vector_impl_data12_M_swap_dataERS5_
   fun:_ZNSt6vectorIN4mpcf5PointIddEESaIS2_EE14_M_move_assignEOS4_St17integral_constantIbLb1EE
   fun:_ZNSt6vectorIN4mpcf5PointIddEESaIS2_EEaSEOS4_
   fun:_ZN4mpcf3PcfIddEaSEOS1_
   fun:_ZZZN4mpcf2ph23BarcodeToStableRankTaskIdE9run_asyncERNS_8ExecutorEENKUlRKSt6vectorImSaImEEE_clES9_ENKUlvE_clEv
   fun:_ZSt13__invoke_implIvRZZN4mpcf2ph23BarcodeToStableRankTaskIdE9run_asyncERNS0_8ExecutorEENKUlRKSt6vectorImSaImEEE_clESA_EUlvE_JEET_St14__invoke_otherOT0_DpOT1_
   fun:_ZSt10__invoke_rIvRZZN4mpcf2ph23BarcodeToStableRankTaskIdE9run_asyncERNS0_8ExecutorEENKUlRKSt6vectorImSaImEEE_clESA_EUlvE_JEENSt9enable_ifIX16is_invocable_r_vIT_T0_DpT1_EESF_E4typeEOSG_DpOSH_
   fun:_ZNSt17_Function_handlerIFvvEZZN4mpcf2ph23BarcodeToStableRankTaskIdE9run_asyncERNS1_8ExecutorEENKUlRKSt6vectorImSaImEEE_clESB_EUlvE_E9_M_invokeERKSt9_Any_data
   fun:_ZNKSt8functionIFvvEEclEv
   fun:_ZN2tf8Executor19_invoke_static_taskERNS_6WorkerEPNS_4NodeE
   fun:_ZN2tf8Executor7_invokeERNS_6WorkerEPNS_4NodeE
}
{
   <insert_a_suppression_name_here>
   Helgrind:Race
   fun:_ZNSt12_Vector_baseIN4mpcf5PointIddEESaIS2_EE17_Vector_impl_data12_M_copy_dataERKS5_
   fun:_ZNSt12_Vector_baseIN4mpcf5PointIddEESaIS2_EE17_Vector_impl_data12_M_swap_dataERS5_
   fun:_ZNSt6vectorIN4mpcf5PointIddEESaIS2_EE14_M_move_assignEOS4_St17integral_constantIbLb1EE
   fun:_ZNSt6vectorIN4mpcf5PointIddEESaIS2_EEaSEOS4_
   fun:_ZN4mpcf3PcfIddEaSEOS1_
   fun:_ZZZN4mpcf2ph23BarcodeToStableRankTaskIdE9run_asyncERNS_8ExecutorEENKUlRKSt6vectorImSaImEEE_clES9_ENKUlvE_clEv
   fun:_ZSt13__invoke_implIvRZZN4mpcf2ph23BarcodeToStableRankTaskIdE9run_asyncERNS0_8ExecutorEENKUlRKSt6vectorImSaImEEE_clESA_EUlvE_JEET_St14__invoke_otherOT0_DpOT1_
   fun:_ZSt10__invoke_rIvRZZN4mpcf2ph23BarcodeToStableRankTaskIdE9run_asyncERNS0_8ExecutorEENKUlRKSt6vectorImSaImEEE_clESA_EUlvE_JEENSt9enable_ifIX16is_invocable_r_vIT_T0_DpT1_EESF_E4typeEOSG_DpOSH_
   fun:_ZNSt17_Function_handlerIFvvEZZN4mpcf2ph23BarcodeToStableRankTaskIdE9run_asyncERNS1_8ExecutorEENKUlRKSt6vectorImSaImEEE_clESB_EUlvE_E9_M_invokeERKSt9_Any_data
   fun:_ZNKSt8functionIFvvEEclEv
   fun:_ZN2tf8Executor19_invoke_static_taskERNS_6WorkerEPNS_4NodeE
   fun:_ZN2tf8Executor7_invokeERNS_6WorkerEPNS_4NodeE
}
{
   <insert_a_suppression_name_here>
   Helgrind:Race
   fun:_ZZZN4mpcf2ph23BarcodeToStableRankTaskIdE9run_asyncERNS_8ExecutorEENKUlRKSt6vectorImSaImEEE_clES9_ENKUlvE_clEv
   fun:_ZSt13__invoke_implIvRZZN4mpcf2ph23BarcodeToStableRankTaskIdE9run_asyncERNS0_8ExecutorEENKUlRKSt6vectorImSaImEEE_clESA_EUlvE_JEET_St14__invoke_otherOT0_DpOT1_
   fun:_ZSt10__invoke_rIvRZZN4mpcf2ph23BarcodeToStableRankTaskIdE9run_asyncERNS0_8ExecutorEENKUlRKSt6vectorImSaImEEE_clESA_EUlvE_JEENSt9enable_ifIX16is_invocable_r_vIT_T0_DpT1_EESF_E4typeEOSG_DpOSH_
   fun:_ZNSt17_Function_handlerIFvvEZZN4mpcf2ph23BarcodeToStableRankTaskIdE9run_asyncERNS1_8ExecutorEENKUlRKSt6vectorImSaImEEE_clESB_EUlvE_E9_M_invokeERKSt9_Any_data
   fun:_ZNKSt8functionIFvvEEclEv
   fun:_ZN2tf8Executor19_invoke_static_taskERNS_6WorkerEPNS_4NodeE
   fun:_ZN2tf8Executor7_invokeERNS_6WorkerEPNS_4NodeE
   fun:_ZN2tf8Executor13_exploit_taskERNS_6WorkerERPNS_4NodeE
   fun:_ZZN2tf8Executor6_spawnEmSt10shared_ptrINS_15WorkerInterfaceEEENKUlvE_clEv
   fun:_ZSt13__invoke_implIvZN2tf8Executor6_spawnEmSt10shared_ptrINS0_15WorkerInterfaceEEEUlvE_JEET_St14__invoke_otherOT0_DpOT1_
   fun:_ZSt8__invokeIZN2tf8Executor6_spawnEmSt10shared_ptrINS0_15WorkerInterfaceEEEUlvE_JEENSt15__invoke_resultIT_JDpT0_EE4typeEOS7_DpOS8_
   fun:_ZNSt6thread8_InvokerISt5tupleIJZN2tf8Executor6_spawnEmSt10shared_ptrINS2_15WorkerInterfaceEEEUlvE_EEE9_M_invokeIJLm0EEEEvSt12_Index_tupleIJXspT_EEE
}
{
   <insert_a_suppression_name_here>
   Helgrind:Race
   fun:_ZSt13inner_productIN9__gnu_cxx17__normal_iteratorIPKmSt6vectorImSaImEEEES7_mET1_T_S9_T0_S8_
   fun:_ZNK4mpcf6TensorINS_3PcfIddEEE19index_to_data_indexERKSt6vectorImSaImEE
   fun:_ZN4mpcf6TensorINS_3PcfIddEEE12index_to_refERKSt6vectorImSaImEE
   fun:_ZN4mpcf6TensorINS_3PcfIddEEEclERKSt6vectorImSaImEE
   fun:_ZZZN4mpcf2ph23BarcodeToStableRankTaskIdE9run_asyncERNS_8ExecutorEENKUlRKSt6vectorImSaImEEE_clES9_ENKUlvE_clEv
   fun:_ZSt13__invoke_implIvRZZN4mpcf2ph23BarcodeToStableRankTaskIdE9run_asyncERNS0_8ExecutorEENKUlRKSt6vectorImSaImEEE_clESA_EUlvE_JEET_St14__invoke_otherOT0_DpOT1_
   fun:_ZSt10__invoke_rIvRZZN4mpcf2ph23BarcodeToStableRankTaskIdE9run_asyncERNS0_8ExecutorEENKUlRKSt6vectorImSaImEEE_clESA_EUlvE_JEENSt9enable_ifIX16is_invocable_r_vIT_T0_DpT1_EESF_E4typeEOSG_DpOSH_
   fun:_ZNSt17_Function_handlerIFvvEZZN4mpcf2ph23BarcodeToStableRankTaskIdE9run_asyncERNS1_8ExecutorEENKUlRKSt6vectorImSaImEEE_clESB_EUlvE_E9_M_invokeERKSt9_Any_data
   fun:_ZNKSt8functionIFvvEEclEv
   fun:_ZN2tf8Executor19_invoke_static_taskERNS_6WorkerEPNS_4NodeE
   fun:_ZN2tf8Executor7_invokeERNS_6WorkerEPNS_4NodeE
   fun:_ZN2tf8Executor13_exploit_taskERNS_6WorkerERPNS_4NodeE
}
{
   <insert_a_suppression_name_here>
   Helgrind:Race
   fun:_ZZZN4mpcf2ph23BarcodeToStableRankTaskIdE9run_asyncERNS_8ExecutorEENKUlRKSt6vectorImSaImEEE_clES9_ENKUlvE_clEv
   fun:_ZSt13__invoke_implIvRZZN4mpcf2ph23BarcodeToStableRankTaskIdE9run_asyncERNS0_8ExecutorEENKUlRKSt6vectorImSaImEEE_clESA_EUlvE_JEET_St14__invoke_otherOT0_DpOT1_
   fun:_ZSt10__invoke_rIvRZZN4mpcf2ph23BarcodeToStableRankTaskIdE9run_asyncERNS0_8ExecutorEENKUlRKSt6vectorImSaImEEE_clESA_EUlvE_JEENSt9enable_ifIX16is_invocable_r_vIT_T0_DpT1_EESF_E4typeEOSG_DpOSH_
   fun:_ZNSt17_Function_handlerIFvvEZZN4mpcf2ph23BarcodeToStableRankTaskIdE9run_asyncERNS1_8ExecutorEENKUlRKSt6vectorImSaImEEE_clESB_EUlvE_E9_M_invokeERKSt9_Any_data
   fun:_ZNKSt8functionIFvvEEclEv
   fun:_ZN2tf8Executor19_invoke_static_taskERNS_6WorkerEPNS_4NodeE
   fun:_ZN2tf8Executor7_invokeERNS_6WorkerEPNS_4NodeE
   fun:_ZN2tf8Executor13_exploit_taskERNS_6WorkerERPNS_4NodeE
   fun:_ZZN2tf8Executor6_spawnEmSt10shared_ptrINS_15WorkerInterfaceEEENKUlvE_clEv
   fun:_ZSt13__invoke_implIvZN2tf8Executor6_spawnEmSt10shared_ptrINS0_15WorkerInterfaceEEEUlvE_JEET_St14__invoke_otherOT0_DpOT1_
   fun:_ZSt8__invokeIZN2tf8Executor6_spawnEmSt10shared_ptrINS0_15WorkerInterfaceEEEUlvE_JEENSt15__invoke_resultIT_JDpT0_EE4typeEOS7_DpOS8_
   fun:_ZNSt6thread8_InvokerISt5tupleIJZN2tf8Executor6_spawnEmSt10shared_ptrINS2_15WorkerInterfaceEEEUlvE_EEE9_M_invokeIJLm0EEEEvSt12_Index_tupleIJXspT_EEE
}
{
   <insert_a_suppression_name_here>
   Helgrind:Race
   fun:_ZZN4mpcf2ph22barcode_to_stable_rankIdEENS_3PcfIT_S3_EERKNS0_7BarcodeIS3_EEENKUlRKNS0_15PersistencePairIdEEE_clESC_
   fun:_ZSt9transformIN9__gnu_cxx17__normal_iteratorIPKN4mpcf2ph15PersistencePairIdEESt6vectorIS5_SaIS5_EEEESt20back_insert_iteratorIS8_IdSaIdEEEZNS3_22barcode_to_stable_rankIdEENS2_3PcfIT_SI_EERKNS3_7BarcodeISI_EEEUlRS6_E_ET0_SI_SI_SQ_T1_
   fun:_ZN4mpcf2ph22barcode_to_stable_rankIdEENS_3PcfIT_S3_EERKNS0_7BarcodeIS3_EE
   fun:_ZZZN4mpcf2ph23BarcodeToStableRankTaskIdE9run_asyncERNS_8ExecutorEENKUlRKSt6vectorImSaImEEE_clES9_ENKUlvE_clEv
   fun:_ZSt13__invoke_implIvRZZN4mpcf2ph23BarcodeToStableRankTaskIdE9run_asyncERNS0_8ExecutorEENKUlRKSt6vectorImSaImEEE_clESA_EUlvE_JEET_St14__invoke_otherOT0_DpOT1_
   fun:_ZSt10__invoke_rIvRZZN4mpcf2ph23BarcodeToStableRankTaskIdE9run_asyncERNS0_8ExecutorEENKUlRKSt6vectorImSaImEEE_clESA_EUlvE_JEENSt9enable_ifIX16is_invocable_r_vIT_T0_DpT1_EESF_E4typeEOSG_DpOSH_
   fun:_ZNSt17_Function_handlerIFvvEZZN4mpcf2ph23BarcodeToStableRankTaskIdE9run_asyncERNS1_8ExecutorEENKUlRKSt6vectorImSaImEEE_clESB_EUlvE_E9_M_invokeERKSt9_Any_data
   fun:_ZNKSt8functionIFvvEEclEv
   fun:_ZN2tf8Executor19_invoke_static_taskERNS_6WorkerEPNS_4NodeE
   fun:_ZN2tf8Executor7_invokeERNS_6WorkerEPNS_4NodeE
   fun:_ZN2tf8Executor13_exploit_taskERNS_6WorkerERPNS_4NodeE
   fun:_ZZN2tf8Executor6_spawnEmSt10shared_ptrINS_15WorkerInterfaceEEENKUlvE_clEv
}
{
   <insert_a_suppression_name_here>
   Helgrind:Race
   fun:_ZNKSt6vectorIN4mpcf5PointIddEESaIS2_EE4sizeEv
   fun:_ZNSt6vectorIN4mpcf5PointIddEESaIS2_EEC1ERKS4_
   fun:_ZN4mpcf3PcfIddEC1ERKS1_
   fun:_ZZN7mpcf_py30register_typed_tensor_bindingsIN4mpcf3PcfIddEEEEvRN8pybind117module_ERKNSt7__cxx1112basic_stringIcSt11char_traitsIcESaIcEEESE_ENKUlRKNS1_6TensorIS3_EERKSt6vectorImSaImEEE_clESI_SN_
   fun:_ZNO8pybind116detail15argument_loaderIJRKN4mpcf6TensorINS2_3PcfIddEEEERKSt6vectorImSaImEEEE9call_implIS5_RZN7mpcf_py30register_typed_tensor_bindingsIS5_EEvRNS_7module_ERKNSt7__cxx1112basic_stringIcSt11char_traitsIcESaIcEEESR_EUlS8_SD_E_JLm0ELm1EENS0_9void_typeEEET_OT0_St16integer_sequenceImJXspT1_EEEOT2_
   fun:_ZNO8pybind116detail15argument_loaderIJRKN4mpcf6TensorINS2_3PcfIddEEEERKSt6vectorImSaImEEEE4callIS5_NS0_9void_typeERZN7mpcf_py30register_typed_tensor_bindingsIS5_EEvRNS_7module_ERKNSt7__cxx1112basic_stringIcSt11char_traitsIcESaIcEEESS_EUlS8_SD_E_EENSt9enable_ifIXntsrSt7is_voidIT_E5valueESX_E4typeEOT1_
   fun:_ZZN8pybind1112cpp_function10initializeIZN7mpcf_py30register_typed_tensor_bindingsIN4mpcf3PcfIddEEEEvRNS_7module_ERKNSt7__cxx1112basic_stringIcSt11char_traitsIcESaIcEEESG_EUlRKNS4_6TensorIS6_EERKSt6vectorImSaImEEE_S6_JSK_SP_EJNS_4nameENS_9is_methodENS_7siblingEEEEvOT_PFT0_DpT1_EDpRKT2_ENKUlRNS_6detail13function_callEE_clES17_
   fun:_ZZN8pybind1112cpp_function10initializeIZN7mpcf_py30register_typed_tensor_bindingsIN4mpcf3PcfIddEEEEvRNS_7module_ERKNSt7__cxx1112basic_stringIcSt11char_traitsIcESaIcEEESG_EUlRKNS4_6TensorIS6_EERKSt6vectorImSaImEEE_S6_JSK_SP_EJNS_4nameENS_9is_methodENS_7siblingEEEEvOT_PFT0_DpT1_EDpRKT2_ENUlRNS_6detail13function_callEE_4_FUNES17_
   fun:_ZN8pybind1112cpp_function10dispatcherEP7_objectPKS2_mS2_
   obj:/usr/bin/python3.13
   fun:PyObject_Vectorcall
   obj:/usr/bin/python3.13
}
{
   <insert_a_suppression_name_here>
   Helgrind:Race
   fun:_ZNKSt6vectorIN4mpcf5PointIddEESaIS2_EE4sizeEv
   fun:_ZNSt6vectorIN4mpcf5PointIddEESaIS2_EEC1ERKS4_
   fun:_ZN4mpcf3PcfIddEC1ERKS1_
   fun:_ZZN7mpcf_py30register_typed_tensor_bindingsIN4mpcf3PcfIddEEEEvRN8pybind117module_ERKNSt7__cxx1112basic_stringIcSt11char_traitsIcESaIcEEESE_ENKUlRKNS1_6TensorIS3_EERKSt6vectorImSaImEEE_clESI_SN_
   fun:_ZNO8pybind116detail15argument_loaderIJRKN4mpcf6TensorINS2_3PcfIddEEEERKSt6vectorImSaImEEEE9call_implIS5_RZN7mpcf_py30register_typed_tensor_bindingsIS5_EEvRNS_7module_ERKNSt7__cxx1112basic_stringIcSt11char_traitsIcESaIcEEESR_EUlS8_SD_E_JLm0ELm1EENS0_9void_typeEEET_OT0_St16integer_sequenceImJXspT1_EEEOT2_
   fun:_ZNO8pybind116detail15argument_loaderIJRKN4mpcf6TensorINS2_3PcfIddEEEERKSt6vectorImSaImEEEE4callIS5_NS0_9void_typeERZN7mpcf_py30register_typed_tensor_bindingsIS5_EEvRNS_7module_ERKNSt7__cxx1112basic_stringIcSt11char_traitsIcESaIcEEESS_EUlS8_SD_E_EENSt9enable_ifIXntsrSt7is_voidIT_E5valueESX_E4typeEOT1_
   fun:_ZZN8pybind1112cpp_function10initializeIZN7mpcf_py30register_typed_tensor_bindingsIN4mpcf3PcfIddEEEEvRNS_7module_ERKNSt7__cxx1112basic_stringIcSt11char_traitsIcESaIcEEESG_EUlRKNS4_6TensorIS6_EERKSt6vectorImSaImEEE_S6_JSK_SP_EJNS_4nameENS_9is_methodENS_7siblingEEEEvOT_PFT0_DpT1_EDpRKT2_ENKUlRNS_6detail13function_callEE_clES17_
   fun:_ZZN8pybind1112cpp_function10initializeIZN7mpcf_py30register_typed_tensor_bindingsIN4mpcf3PcfIddEEEEvRNS_7module_ERKNSt7__cxx1112basic_stringIcSt11char_traitsIcESaIcEEESG_EUlRKNS4_6TensorIS6_EERKSt6vectorImSaImEEE_S6_JSK_SP_EJNS_4nameENS_9is_methodENS_7siblingEEEEvOT_PFT0_DpT1_EDpRKT2_ENUlRNS_6detail13function_callEE_4_FUNES17_
   fun:_ZN8pybind1112cpp_function10dispatcherEP7_objectPKS2_mS2_
   obj:/usr/bin/python3.13
   fun:PyObject_Vectorcall
   obj:/usr/bin/python3.13
}
{
   <insert_a_suppression_name_here>
   Helgrind:Race
   fun:_ZSt10_ConstructIN4mpcf5PointIddEEJRKS2_EEvPT_DpOT0_
   fun:_ZSt16__do_uninit_copyIN9__gnu_cxx17__normal_iteratorIPKN4mpcf5PointIddEESt6vectorIS4_SaIS4_EEEEPS4_ET0_T_SD_SC_
   fun:_ZNSt20__uninitialized_copyILb0EE13__uninit_copyIN9__gnu_cxx17__normal_iteratorIPKN4mpcf5PointIddEESt6vectorIS6_SaIS6_EEEEPS6_EET0_T_SF_SE_
   fun:_ZSt18uninitialized_copyIN9__gnu_cxx17__normal_iteratorIPKN4mpcf5PointIddEESt6vectorIS4_SaIS4_EEEEPS4_ET0_T_SD_SC_
   fun:_ZSt22__uninitialized_copy_aIN9__gnu_cxx17__normal_iteratorIPKN4mpcf5PointIddEESt6vectorIS4_SaIS4_EEEEPS4_S4_ET0_T_SD_SC_RSaIT1_E
   fun:_ZNSt6vectorIN4mpcf5PointIddEESaIS2_EEC1ERKS4_
   fun:_ZN4mpcf3PcfIddEC1ERKS1_
   fun:_ZZN7mpcf_py30register_typed_tensor_bindingsIN4mpcf3PcfIddEEEEvRN8pybind117module_ERKNSt7__cxx1112basic_stringIcSt11char_traitsIcESaIcEEESE_ENKUlRKNS1_6TensorIS3_EERKSt6vectorImSaImEEE_clESI_SN_
   fun:_ZNO8pybind116detail15argument_loaderIJRKN4mpcf6TensorINS2_3PcfIddEEEERKSt6vectorImSaImEEEE9call_implIS5_RZN7mpcf_py30register_typed_tensor_bindingsIS5_EEvRNS_7module_ERKNSt7__cxx1112basic_stringIcSt11char_traitsIcESaIcEEESR_EUlS8_SD_E_JLm0ELm1EENS0_9void_typeEEET_OT0_St16integer_sequenceImJXspT1_EEEOT2_
   fun:_ZNO8pybind116detail15argument_loaderIJRKN4mpcf6TensorINS2_3PcfIddEEEERKSt6vectorImSaImEEEE4callIS5_NS0_9void_typeERZN7mpcf_py30register_typed_tensor_bindingsIS5_EEvRNS_7module_ERKNSt7__cxx1112basic_stringIcSt11char_traitsIcESaIcEEESS_EUlS8_SD_E_EENSt9enable_ifIXntsrSt7is_voidIT_E5valueESX_E4typeEOT1_
   fun:_ZZN8pybind1112cpp_function10initializeIZN7mpcf_py30register_typed_tensor_bindingsIN4mpcf3PcfIddEEEEvRNS_7module_ERKNSt7__cxx1112basic_stringIcSt11char_traitsIcESaIcEEESG_EUlRKNS4_6TensorIS6_EERKSt6vectorImSaImEEE_S6_JSK_SP_EJNS_4nameENS_9is_methodENS_7siblingEEEEvOT_PFT0_DpT1_EDpRKT2_ENKUlRNS_6detail13function_callEE_clES17_
   fun:_ZZN8pybind1112cpp_function10initializeIZN7mpcf_py30register_typed_tensor_bindingsIN4mpcf3PcfIddEEEEvRNS_7module_ERKNSt7__cxx1112basic_stringIcSt11char_traitsIcESaIcEEESG_EUlRKNS4_6TensorIS6_EERKSt6vectorImSaImEEE_S6_JSK_SP_EJNS_4nameENS_9is_methodENS_7siblingEEEEvOT_PFT0_DpT1_EDpRKT2_ENUlRNS_6detail13function_callEE_4_FUNES17_
}
{
   <insert_a_suppression_name_here>
   Helgrind:Race
   fun:_ZSt10_ConstructIN4mpcf5PointIddEEJRKS2_EEvPT_DpOT0_
   fun:_ZSt16__do_uninit_copyIN9__gnu_cxx17__normal_iteratorIPKN4mpcf5PointIddEESt6vectorIS4_SaIS4_EEEEPS4_ET0_T_SD_SC_
   fun:_ZNSt20__uninitialized_copyILb0EE13__uninit_copyIN9__gnu_cxx17__normal_iteratorIPKN4mpcf5PointIddEESt6vectorIS6_SaIS6_EEEEPS6_EET0_T_SF_SE_
   fun:_ZSt18uninitialized_copyIN9__gnu_cxx17__normal_iteratorIPKN4mpcf5PointIddEESt6vectorIS4_SaIS4_EEEEPS4_ET0_T_SD_SC_
   fun:_ZSt22__uninitialized_copy_aIN9__gnu_cxx17__normal_iteratorIPKN4mpcf5PointIddEESt6vectorIS4_SaIS4_EEEEPS4_S4_ET0_T_SD_SC_RSaIT1_E
   fun:_ZNSt6vectorIN4mpcf5PointIddEESaIS2_EEC1ERKS4_
   fun:_ZN4mpcf3PcfIddEC1ERKS1_
   fun:_ZZN7mpcf_py30register_typed_tensor_bindingsIN4mpcf3PcfIddEEEEvRN8pybind117module_ERKNSt7__cxx1112basic_stringIcSt11char_traitsIcESaIcEEESE_ENKUlRKNS1_6TensorIS3_EERKSt6vectorImSaImEEE_clESI_SN_
   fun:_ZNO8pybind116detail15argument_loaderIJRKN4mpcf6TensorINS2_3PcfIddEEEERKSt6vectorImSaImEEEE9call_implIS5_RZN7mpcf_py30register_typed_tensor_bindingsIS5_EEvRNS_7module_ERKNSt7__cxx1112basic_stringIcSt11char_traitsIcESaIcEEESR_EUlS8_SD_E_JLm0ELm1EENS0_9void_typeEEET_OT0_St16integer_sequenceImJXspT1_EEEOT2_
   fun:_ZNO8pybind116detail15argument_loaderIJRKN4mpcf6TensorINS2_3PcfIddEEEERKSt6vectorImSaImEEEE4callIS5_NS0_9void_typeERZN7mpcf_py30register_typed_tensor_bindingsIS5_EEvRNS_7module_ERKNSt7__cxx1112basic_stringIcSt11char_traitsIcESaIcEEESS_EUlS8_SD_E_EENSt9enable_ifIXntsrSt7is_voidIT_E5valueESX_E4typeEOT1_
   fun:_ZZN8pybind1112cpp_function10initializeIZN7mpcf_py30register_typed_tensor_bindingsIN4mpcf3PcfIddEEEEvRNS_7module_ERKNSt7__cxx1112basic_stringIcSt11char_traitsIcESaIcEEESG_EUlRKNS4_6TensorIS6_EERKSt6vectorImSaImEEE_S6_JSK_SP_EJNS_4nameENS_9is_methodENS_7siblingEEEEvOT_PFT0_DpT1_EDpRKT2_ENKUlRNS_6detail13function_callEE_clES17_
   fun:_ZZN8pybind1112cpp_function10initializeIZN7mpcf_py30register_typed_tensor_bindingsIN4mpcf3PcfIddEEEEvRNS_7module_ERKNSt7__cxx1112basic_stringIcSt11char_traitsIcESaIcEEESG_EUlRKNS4_6TensorIS6_EERKSt6vectorImSaImEEE_S6_JSK_SP_EJNS_4nameENS_9is_methodENS_7siblingEEEEvOT_PFT0_DpT1_EDpRKT2_ENUlRNS_6detail13function_callEE_4_FUNES17_
}
{
   <insert_a_suppression_name_here>
   Helgrind:Race
   fun:_ZN9__gnu_cxx17__normal_iteratorIPKN4mpcf5PointIddEESt6vectorIS3_SaIS3_EEEC1ERKS5_
   fun:_ZNKSt6vectorIN4mpcf5PointIddEESaIS2_EE3endEv
   fun:_ZNSt6vectorIN4mpcf5PointIddEESaIS2_EEC1ERKS4_
   fun:_ZN4mpcf3PcfIddEC1ERKS1_
   fun:_ZZN7mpcf_py30register_typed_tensor_bindingsIN4mpcf3PcfIddEEEEvRN8pybind117module_ERKNSt7__cxx1112basic_stringIcSt11char_traitsIcESaIcEEESE_ENKUlRKNS1_6TensorIS3_EERKSt6vectorImSaImEEE_clESI_SN_
   fun:_ZNO8pybind116detail15argument_loaderIJRKN4mpcf6TensorINS2_3PcfIddEEEERKSt6vectorImSaImEEEE9call_implIS5_RZN7mpcf_py30register_typed_tensor_bindingsIS5_EEvRNS_7module_ERKNSt7__cxx1112basic_stringIcSt11char_traitsIcESaIcEEESR_EUlS8_SD_E_JLm0ELm1EENS0_9void_typeEEET_OT0_St16integer_sequenceImJXspT1_EEEOT2_
   fun:_ZNO8pybind116detail15argument_loaderIJRKN4mpcf6TensorINS2_3PcfIddEEEERKSt6vectorImSaImEEEE4callIS5_NS0_9void_typeERZN7mpcf_py30register_typed_tensor_bindingsIS5_EEvRNS_7module_ERKNSt7__cxx1112basic_stringIcSt11char_traitsIcESaIcEEESS_EUlS8_SD_E_EENSt9enable_ifIXntsrSt7is_voidIT_E5valueESX_E4typeEOT1_
   fun:_ZZN8pybind1112cpp_function10initializeIZN7mpcf_py30register_typed_tensor_bindingsIN4mpcf3PcfIddEEEEvRNS_7module_ERKNSt7__cxx1112basic_stringIcSt11char_traitsIcESaIcEEESG_EUlRKNS4_6TensorIS6_EERKSt6vectorImSaImEEE_S6_JSK_SP_EJNS_4nameENS_9is_methodENS_7siblingEEEEvOT_PFT0_DpT1_EDpRKT2_ENKUlRNS_6detail13function_callEE_clES17_
   fun:_ZZN8pybind1112cpp_function10initializeIZN7mpcf_py30register_typed_tensor_bindingsIN4mpcf3PcfIddEEEEvRNS_7module_ERKNSt7__cxx1112basic_stringIcSt11char_traitsIcESaIcEEESG_EUlRKNS4_6TensorIS6_EERKSt6vectorImSaImEEE_S6_JSK_SP_EJNS_4nameENS_9is_methodENS_7siblingEEEEvOT_PFT0_DpT1_EDpRKT2_ENUlRNS_6detail13function_callEE_4_FUNES17_
   fun:_ZN8pybind1112cpp_function10dispatcherEP7_objectPKS2_mS2_
   obj:/usr/bin/python3.13
   fun:PyObject_Vectorcall
}
{
   <insert_a_suppression_name_here>
   Helgrind:Race
   fun:_ZN9__gnu_cxx17__normal_iteratorIPKN4mpcf5PointIddEESt6vectorIS3_SaIS3_EEEC1ERKS5_
   fun:_ZNKSt6vectorIN4mpcf5PointIddEESaIS2_EE5beginEv
   fun:_ZNSt6vectorIN4mpcf5PointIddEESaIS2_EEC1ERKS4_
   fun:_ZN4mpcf3PcfIddEC1ERKS1_
   fun:_ZZN7mpcf_py30register_typed_tensor_bindingsIN4mpcf3PcfIddEEEEvRN8pybind117module_ERKNSt7__cxx1112basic_stringIcSt11char_traitsIcESaIcEEESE_ENKUlRKNS1_6TensorIS3_EERKSt6vectorImSaImEEE_clESI_SN_
   fun:_ZNO8pybind116detail15argument_loaderIJRKN4mpcf6TensorINS2_3PcfIddEEEERKSt6vectorImSaImEEEE9call_implIS5_RZN7mpcf_py30register_typed_tensor_bindingsIS5_EEvRNS_7module_ERKNSt7__cxx1112basic_stringIcSt11char_traitsIcESaIcEEESR_EUlS8_SD_E_JLm0ELm1EENS0_9void_typeEEET_OT0_St16integer_sequenceImJXspT1_EEEOT2_
   fun:_ZNO8pybind116detail15argument_loaderIJRKN4mpcf6TensorINS2_3PcfIddEEEERKSt6vectorImSaImEEEE4callIS5_NS0_9void_typeERZN7mpcf_py30register_typed_tensor_bindingsIS5_EEvRNS_7module_ERKNSt7__cxx1112basic_stringIcSt11char_traitsIcESaIcEEESS_EUlS8_SD_E_EENSt9enable_ifIXntsrSt7is_voidIT_E5valueESX_E4typeEOT1_
   fun:_ZZN8pybind1112cpp_function10initializeIZN7mpcf_py30register_typed_tensor_bindingsIN4mpcf3PcfIddEEEEvRNS_7module_ERKNSt7__cxx1112basic_stringIcSt11char_traitsIcESaIcEEESG_EUlRKNS4_6TensorIS6_EERKSt6vectorImSaImEEE_S6_JSK_SP_EJNS_4nameENS_9is_methodENS_7siblingEEEEvOT_PFT0_DpT1_EDpRKT2_ENKUlRNS_6detail13function_callEE_clES17_
   fun:_ZZN8pybind1112cpp_function10initializeIZN7mpcf_py30register_typed_tensor_bindingsIN4mpcf3PcfIddEEEEvRNS_7module_ERKNSt7__cxx1112basic_stringIcSt11char_traitsIcESaIcEEESG_EUlRKNS4_6TensorIS6_EERKSt6vectorImSaImEEE_S6_JSK_SP_EJNS_4nameENS_9is_methodENS_7siblingEEEEvOT_PFT0_DpT1_EDpRKT2_ENUlRNS_6detail13function_callEE_4_FUNES17_
   fun:_ZN8pybind1112cpp_function10dispatcherEP7_objectPKS2_mS2_
   obj:/usr/bin/python3.13
   fun:PyObject_Vectorcall
}
{
   <insert_a_suppression_name_here>
   Helgrind:Race
   fun:_ZNSt6vectorIN4mpcf5PointIddEESaIS2_EED1Ev
   fun:_ZN4mpcf3PcfIddED1Ev
   fun:_ZSt10destroy_atIN4mpcf3PcfIddEEEvPT_
   fun:destroy<mpcf::Pcf<double, double> >
   fun:_ZNSt22_Sp_counted_array_baseISaIN4mpcf3PcfIddEEEE16_M_dispose_arrayEPS2_
   fun:_ZNSt17_Sp_counted_arrayISaIN4mpcf3PcfIddEEELN9__gnu_cxx12_Lock_policyE2EE10_M_disposeEv
   fun:_ZNSt16_Sp_counted_baseILN9__gnu_cxx12_Lock_policyE2EE10_M_releaseEv
   fun:_ZNSt14__shared_countILN9__gnu_cxx12_Lock_policyE2EED1Ev
   fun:_ZNSt12__shared_ptrIA_N4mpcf3PcfIddEELN9__gnu_cxx12_Lock_policyE2EED1Ev
   fun:_ZNSt10shared_ptrIA_N4mpcf3PcfIddEEED1Ev
   fun:_ZN4mpcf6TensorINS_3PcfIddEEED1Ev
   fun:_ZNKSt14default_deleteIN4mpcf6TensorINS0_3PcfIddEEEEEclEPS4_
   fun:_ZNSt10unique_ptrIN4mpcf6TensorINS0_3PcfIddEEEESt14default_deleteIS4_EED1Ev
}
{
   <insert_a_suppression_name_here>
   Helgrind:Race
   fun:_ZNSt6vectorIN4mpcf5PointIddEESaIS2_EED1Ev
   fun:_ZN4mpcf3PcfIddED1Ev
   fun:_ZSt10destroy_atIN4mpcf3PcfIddEEEvPT_
   fun:destroy<mpcf::Pcf<double, double> >
   fun:_ZNSt22_Sp_counted_array_baseISaIN4mpcf3PcfIddEEEE16_M_dispose_arrayEPS2_
   fun:_ZNSt17_Sp_counted_arrayISaIN4mpcf3PcfIddEEELN9__gnu_cxx12_Lock_policyE2EE10_M_disposeEv
   fun:_ZNSt16_Sp_counted_baseILN9__gnu_cxx12_Lock_policyE2EE10_M_releaseEv
   fun:_ZNSt14__shared_countILN9__gnu_cxx12_Lock_policyE2EED1Ev
   fun:_ZNSt12__shared_ptrIA_N4mpcf3PcfIddEELN9__gnu_cxx12_Lock_policyE2EED1Ev
   fun:_ZNSt10shared_ptrIA_N4mpcf3PcfIddEEED1Ev
   fun:_ZN4mpcf6TensorINS_3PcfIddEEED1Ev
   fun:_ZNKSt14default_deleteIN4mpcf6TensorINS0_3PcfIddEEEEEclEPS4_
   fun:_ZNSt10unique_ptrIN4mpcf6TensorINS0_3PcfIddEEEESt14default_deleteIS4_EED1Ev
}
{
   <insert_a_suppression_name_here>
   Helgrind:Race
   fun:_ZNSt12_Vector_baseIN4mpcf5PointIddEESaIS2_EED1Ev
   fun:_ZNSt6vectorIN4mpcf5PointIddEESaIS2_EED1Ev
   fun:_ZN4mpcf3PcfIddED1Ev
   fun:_ZSt10destroy_atIN4mpcf3PcfIddEEEvPT_
   fun:destroy<mpcf::Pcf<double, double> >
   fun:_ZNSt22_Sp_counted_array_baseISaIN4mpcf3PcfIddEEEE16_M_dispose_arrayEPS2_
   fun:_ZNSt17_Sp_counted_arrayISaIN4mpcf3PcfIddEEELN9__gnu_cxx12_Lock_policyE2EE10_M_disposeEv
   fun:_ZNSt16_Sp_counted_baseILN9__gnu_cxx12_Lock_policyE2EE10_M_releaseEv
   fun:_ZNSt14__shared_countILN9__gnu_cxx12_Lock_policyE2EED1Ev
   fun:_ZNSt12__shared_ptrIA_N4mpcf3PcfIddEELN9__gnu_cxx12_Lock_policyE2EED1Ev
   fun:_ZNSt10shared_ptrIA_N4mpcf3PcfIddEEED1Ev
   fun:_ZN4mpcf6TensorINS_3PcfIddEEED1Ev
   fun:_ZNKSt14default_deleteIN4mpcf6TensorINS0_3PcfIddEEEEEclEPS4_
}
{
   <insert_a_suppression_name_here>
   Helgrind:Race
   fun:_ZNSt16_Sp_counted_baseILN9__gnu_cxx12_Lock_policyE2EE10_M_releaseEv
   fun:_ZNSt14__shared_countILN9__gnu_cxx12_Lock_policyE2EED1Ev
   fun:_ZNSt12__shared_ptrINSt13__future_base13_State_baseV2ELN9__gnu_cxx12_Lock_policyE2EED1Ev
   fun:_ZNSt10shared_ptrINSt13__future_base13_State_baseV2EED1Ev
   fun:_ZNSt7promiseIvED1Ev
   fun:_ZN2tf8TopologyD1Ev
   fun:_ZSt10destroy_atIN2tf8TopologyEEvPT_
   fun:_ZSt8_DestroyIN2tf8TopologyEEvPT_
   fun:destroy<tf::Topology>
   fun:_ZNSt23_Sp_counted_ptr_inplaceIN2tf8TopologyESaIvELN9__gnu_cxx12_Lock_policyE2EE10_M_disposeEv
   fun:_ZNSt16_Sp_counted_baseILN9__gnu_cxx12_Lock_policyE2EE10_M_releaseEv
   fun:_ZNSt14__shared_countILN9__gnu_cxx12_Lock_policyE2EED1Ev
   fun:_ZNSt12__shared_ptrIN2tf8TopologyELN9__gnu_cxx12_Lock_policyE2EED1Ev
}
{
   <insert_a_suppression_name_here>
   Helgrind:Race
   fun:_ZNSt14_Function_base13_Base_managerIZZN4mpcf2ph23BarcodeToStableRankTaskIdE9run_asyncERNS1_8ExecutorEENKUlRKSt6vectorImSaImEEE_clESB_EUlvE_E10_M_destroyERSt9_Any_dataSt17integral_constantIbLb0EE
   fun:_ZNSt14_Function_base13_Base_managerIZZN4mpcf2ph23BarcodeToStableRankTaskIdE9run_asyncERNS1_8ExecutorEENKUlRKSt6vectorImSaImEEE_clESB_EUlvE_E10_M_managerERSt9_Any_dataRKSF_St18_Manager_operation
   fun:_ZNSt17_Function_handlerIFvvEZZN4mpcf2ph23BarcodeToStableRankTaskIdE9run_asyncERNS1_8ExecutorEENKUlRKSt6vectorImSaImEEE_clESB_EUlvE_E10_M_managerERSt9_Any_dataRKSF_St18_Manager_operation
   fun:_ZNSt14_Function_baseD1Ev
   fun:_ZNSt8functionIFvvEED1Ev
   fun:_ZN2tf4Node6StaticD1Ev
   fun:_ZSt10destroy_atIN2tf4Node6StaticEEvPT_
   fun:_ZSt8_DestroyIN2tf4Node6StaticEEvPT_
   fun:_ZZNSt8__detail9__variant16_Variant_storageILb0EJSt9monostateN2tf4Node6StaticENS4_7RuntimeENS4_20NonpreemptiveRuntimeENS4_7SubflowENS4_9ConditionENS4_14MultiConditionENS4_6ModuleENS4_5AsyncENS4_14DependentAsyncEEE8_M_resetEvENUlOT_E_clIRS5_EEDaSG_
   fun:_ZSt13__invoke_implIvZNSt8__detail9__variant16_Variant_storageILb0EJSt9monostateN2tf4Node6StaticENS5_7RuntimeENS5_20NonpreemptiveRuntimeENS5_7SubflowENS5_9ConditionENS5_14MultiConditionENS5_6ModuleENS5_5AsyncENS5_14DependentAsyncEEE8_M_resetEvEUlOT_E_JRS6_EESG_St14__invoke_otherOT0_DpOT1_
   fun:_ZSt10__invoke_rIvZNSt8__detail9__variant16_Variant_storageILb0EJSt9monostateN2tf4Node6StaticENS5_7RuntimeENS5_20NonpreemptiveRuntimeENS5_7SubflowENS5_9ConditionENS5_14MultiConditionENS5_6ModuleENS5_5AsyncENS5_14DependentAsyncEEE8_M_resetEvEUlOT_E_JRS6_EENSt9enable_ifIX16is_invocable_r_vISG_T0_DpT1_EESG_E4typeEOSL_DpOSM_
   fun:_ZNSt8__detail9__variant17__gen_vtable_implINS0_12_Multi_arrayIPFvOZNS0_16_Variant_storageILb0EJSt9monostateN2tf4Node6StaticENS6_7RuntimeENS6_20NonpreemptiveRuntimeENS6_7SubflowENS6_9ConditionENS6_14MultiConditionENS6_6ModuleENS6_5AsyncENS6_14DependentAsyncEEE8_M_resetEvEUlOT_E_RSt7variantIJS4_S7_S8_S9_SA_SB_SC_SD_SE_SF_EEEJEEESt16integer_sequenceImJLm1EEEE14__visit_invokeESK_SN_
}
{
   <insert_a_suppression_name_here>
   Helgrind:Race
   fun:_ZNSt6vectorImSaImEED1Ev
   fun:_ZZZN4mpcf2ph23BarcodeToStableRankTaskIdE9run_asyncERNS_8ExecutorEENKUlRKSt6vectorImSaImEEE_clES9_ENUlvE_D1Ev
   fun:_ZNSt14_Function_base13_Base_managerIZZN4mpcf2ph23BarcodeToStableRankTaskIdE9run_asyncERNS1_8ExecutorEENKUlRKSt6vectorImSaImEEE_clESB_EUlvE_E10_M_destroyERSt9_Any_dataSt17integral_constantIbLb0EE
   fun:_ZNSt14_Function_base13_Base_managerIZZN4mpcf2ph23BarcodeToStableRankTaskIdE9run_asyncERNS1_8ExecutorEENKUlRKSt6vectorImSaImEEE_clESB_EUlvE_E10_M_managerERSt9_Any_dataRKSF_St18_Manager_operation
   fun:_ZNSt17_Function_handlerIFvvEZZN4mpcf2ph23BarcodeToStableRankTaskIdE9run_asyncERNS1_8ExecutorEENKUlRKSt6vectorImSaImEEE_clESB_EUlvE_E10_M_managerERSt9_Any_dataRKSF_St18_Manager_operation
   fun:_ZNSt14_Function_baseD1Ev
   fun:_ZNSt8functionIFvvEED1Ev
   fun:_ZN2tf4Node6StaticD1Ev
   fun:_ZSt10destroy_atIN2tf4Node6StaticEEvPT_
   fun:_ZSt8_DestroyIN2tf4Node6StaticEEvPT_
   fun:_ZZNSt8__detail9__variant16_Variant_storageILb0EJSt9monostateN2tf4Node6StaticENS4_7RuntimeENS4_20NonpreemptiveRuntimeENS4_7SubflowENS4_9ConditionENS4_14MultiConditionENS4_6ModuleENS4_5AsyncENS4_14DependentAsyncEEE8_M_resetEvENUlOT_E_clIRS5_EEDaSG_
   fun:_ZSt13__invoke_implIvZNSt8__detail9__variant16_Variant_storageILb0EJSt9monostateN2tf4Node6StaticENS5_7RuntimeENS5_20NonpreemptiveRuntimeENS5_7SubflowENS5_9ConditionENS5_14MultiConditionENS5_6ModuleENS5_5AsyncENS5_14DependentAsyncEEE8_M_resetEvEUlOT_E_JRS6_EESG_St14__invoke_otherOT0_DpOT1_
}
{
   <insert_a_suppression_name_here>
   Helgrind:Race
   fun:_ZNSt6vectorImSaImEED1Ev
   fun:_ZZZN4mpcf2ph23BarcodeToStableRankTaskIdE9run_asyncERNS_8ExecutorEENKUlRKSt6vectorImSaImEEE_clES9_ENUlvE_D1Ev
   fun:_ZNSt14_Function_base13_Base_managerIZZN4mpcf2ph23BarcodeToStableRankTaskIdE9run_asyncERNS1_8ExecutorEENKUlRKSt6vectorImSaImEEE_clESB_EUlvE_E10_M_destroyERSt9_Any_dataSt17integral_constantIbLb0EE
   fun:_ZNSt14_Function_base13_Base_managerIZZN4mpcf2ph23BarcodeToStableRankTaskIdE9run_asyncERNS1_8ExecutorEENKUlRKSt6vectorImSaImEEE_clESB_EUlvE_E10_M_managerERSt9_Any_dataRKSF_St18_Manager_operation
   fun:_ZNSt17_Function_handlerIFvvEZZN4mpcf2ph23BarcodeToStableRankTaskIdE9run_asyncERNS1_8ExecutorEENKUlRKSt6vectorImSaImEEE_clESB_EUlvE_E10_M_managerERSt9_Any_dataRKSF_St18_Manager_operation
   fun:_ZNSt14_Function_baseD1Ev
   fun:_ZNSt8functionIFvvEED1Ev
   fun:_ZN2tf4Node6StaticD1Ev
   fun:_ZSt10destroy_atIN2tf4Node6StaticEEvPT_
   fun:_ZSt8_DestroyIN2tf4Node6StaticEEvPT_
   fun:_ZZNSt8__detail9__variant16_Variant_storageILb0EJSt9monostateN2tf4Node6StaticENS4_7RuntimeENS4_20NonpreemptiveRuntimeENS4_7SubflowENS4_9ConditionENS4_14MultiConditionENS4_6ModuleENS4_5AsyncENS4_14DependentAsyncEEE8_M_resetEvENUlOT_E_clIRS5_EEDaSG_
   fun:_ZSt13__invoke_implIvZNSt8__detail9__variant16_Variant_storageILb0EJSt9monostateN2tf4Node6StaticENS5_7RuntimeENS5_20NonpreemptiveRuntimeENS5_7SubflowENS5_9ConditionENS5_14MultiConditionENS5_6ModuleENS5_5AsyncENS5_14DependentAsyncEEE8_M_resetEvEUlOT_E_JRS6_EESG_St14__invoke_otherOT0_DpOT1_
}
{
   <insert_a_suppression_name_here>
   Helgrind:Race
   fun:_ZNK2tf25SmallVectorTemplateCommonIPNS_4NodeEvE7isSmallEv
   fun:_ZN2tf15SmallVectorImplIPNS_4NodeEED1Ev
   fun:_ZN2tf11SmallVectorIPNS_4NodeELj4EED1Ev
   fun:_ZN2tf4NodeD1Ev
   fun:recycle
   fun:_ZN2tf5Graph5clearEv
   fun:_ZN2tf5GraphD1Ev
   fun:_ZN2tf8TaskflowD1Ev
   fun:_ZNKSt14default_deleteIN2tf8TaskflowEEclEPS1_
   fun:_ZNSt10unique_ptrIN2tf8TaskflowESt14default_deleteIS1_EED1Ev
   fun:_ZN2tf3MoCISt10unique_ptrINS_8TaskflowESt14default_deleteIS2_EEED1Ev
   fun:_ZZN2tf8Executor9run_untilIZNS0_5run_nIZNS0_3runEONS_8TaskflowEEUlvE_EENS_6FutureIvEES4_mOT_EUlvE_S5_EES7_S4_S9_OT0_ENUlRNS_7RuntimeEE_D1Ev
   fun:_ZNSt14_Function_base13_Base_managerIZN2tf8Executor9run_untilIZNS2_5run_nIZNS2_3runEONS1_8TaskflowEEUlvE_EENS1_6FutureIvEES6_mOT_EUlvE_S7_EES9_S6_SB_OT0_EUlRNS1_7RuntimeEE_E10_M_destroyERSt9_Any_dataSt17integral_constantIbLb0EE
}
{
   <insert_a_suppression_name_here>
   Helgrind:Race
   fun:_ZN2tf4Node20_set_up_join_counterEv
   fun:_ZN2tf8Executor13_set_up_graphERNS_5GraphEPNS_8TopologyEPNS_8NodeBaseE
   fun:_ZN2tf8Executor27_schedule_graph_with_parentERNS_6WorkerERNS_5GraphEPNS_8TopologyEPNS_8NodeBaseE
   fun:_ZZN2tf8Executor9run_untilIZNS0_5run_nIZNS0_3runEONS_8TaskflowEEUlvE_EENS_6FutureIvEES4_mOT_EUlvE_S5_EES7_S4_S9_OT0_ENUlRNS_7RuntimeEE_clESE_
   fun:_ZSt13__invoke_implIvRZN2tf8Executor9run_untilIZNS1_5run_nIZNS1_3runEONS0_8TaskflowEEUlvE_EENS0_6FutureIvEES5_mOT_EUlvE_S6_EES8_S5_SA_OT0_EUlRNS0_7RuntimeEE_JSF_EES9_St14__invoke_otherSD_DpOT1_
   fun:_ZSt10__invoke_rIvRZN2tf8Executor9run_untilIZNS1_5run_nIZNS1_3runEONS0_8TaskflowEEUlvE_EENS0_6FutureIvEES5_mOT_EUlvE_S6_EES8_S5_SA_OT0_EUlRNS0_7RuntimeEE_JSF_EENSt9enable_ifIX16is_invocable_r_vIS9_SC_DpT1_EES9_E4typeESD_DpOSJ_
   fun:_ZNSt17_Function_handlerIFvRN2tf7RuntimeEEZNS0_8Executor9run_untilIZNS4_5run_nIZNS4_3runEONS0_8TaskflowEEUlvE_EENS0_6FutureIvEES8_mOT_EUlvE_S9_EESB_S8_SD_OT0_EUlS2_E_E9_M_invokeERKSt9_Any_dataS2_
   fun:_ZNKSt8functionIFvRN2tf7RuntimeEEEclES2_
   fun:_ZN2tf8Executor25_invoke_runtime_task_implERNS_6WorkerEPNS_4NodeERSt8functionIFvRNS_7RuntimeEEE
   fun:_ZN2tf8Executor18_invoke_async_taskERNS_6WorkerEPNS_4NodeE
   fun:_ZN2tf8Executor7_invokeERNS_6WorkerEPNS_4NodeE
   fun:_ZN2tf8Executor13_exploit_taskERNS_6WorkerERPNS_4NodeE
}
{
   <insert_a_suppression_name_here>
   Helgrind:Race
   fun:_ZNKSt7variantIJSt9monostateN2tf4Node6StaticENS2_7RuntimeENS2_20NonpreemptiveRuntimeENS2_7SubflowENS2_9ConditionENS2_14MultiConditionENS2_6ModuleENS2_5AsyncENS2_14DependentAsyncEEE5indexEv
   fun:_ZNK2tf4Node15_is_conditionerEv
   fun:_ZN2tf4Node20_set_up_join_counterEv
   fun:_ZN2tf8Executor13_set_up_graphERNS_5GraphEPNS_8TopologyEPNS_8NodeBaseE
   fun:_ZN2tf8Executor27_schedule_graph_with_parentERNS_6WorkerERNS_5GraphEPNS_8TopologyEPNS_8NodeBaseE
   fun:_ZZN2tf8Executor9run_untilIZNS0_5run_nIZNS0_3runEONS_8TaskflowEEUlvE_EENS_6FutureIvEES4_mOT_EUlvE_S5_EES7_S4_S9_OT0_ENUlRNS_7RuntimeEE_clESE_
   fun:_ZSt13__invoke_implIvRZN2tf8Executor9run_untilIZNS1_5run_nIZNS1_3runEONS0_8TaskflowEEUlvE_EENS0_6FutureIvEES5_mOT_EUlvE_S6_EES8_S5_SA_OT0_EUlRNS0_7RuntimeEE_JSF_EES9_St14__invoke_otherSD_DpOT1_
   fun:_ZSt10__invoke_rIvRZN2tf8Executor9run_untilIZNS1_5run_nIZNS1_3runEONS0_8TaskflowEEUlvE_EENS0_6FutureIvEES5_mOT_EUlvE_S6_EES8_S5_SA_OT0_EUlRNS0_7RuntimeEE_JSF_EENSt9enable_ifIX16is_invocable_r_vIS9_SC_DpT1_EES9_E4typeESD_DpOSJ_
   fun:_ZNSt17_Function_handlerIFvRN2tf7RuntimeEEZNS0_8Executor9run_untilIZNS4_5run_nIZNS4_3runEONS0_8TaskflowEEUlvE_EENS0_6FutureIvEES8_mOT_EUlvE_S9_EESB_S8_SD_OT0_EUlS2_E_E9_M_invokeERKSt9_Any_dataS2_
   fun:_ZNKSt8functionIFvRN2tf7RuntimeEEEclES2_
   fun:_ZN2tf8Executor25_invoke_runtime_task_implERNS_6WorkerEPNS_4NodeERSt8functionIFvRNS_7RuntimeEEE
   fun:_ZN2tf8Executor18_invoke_async_taskERNS_6WorkerEPNS_4NodeE
}
{
   <insert_a_suppression_name_here>
   Helgrind:Race
   fun:_ZNSt14_Function_base13_Base_managerIZN2tf24make_for_each_index_taskImmmZN4mpcf22MatrixIntegrateCpuTaskINS3_15OperationL1DistIffEENS3_21Tensor1dValueIteratorINS3_6TensorINS3_3PcfIffEEEEEEE9run_asyncERNS3_8ExecutorEEUlmE_NS1_17GuidedPartitionerINS1_21DefaultClosureWrapperEEEEEDaT_T0_T1_T2_T3_EUlRNS1_7RuntimeEE_E14_M_get_pointerERKSt9_Any_data
   fun:_ZNSt17_Function_handlerIFvRN2tf7RuntimeEEZNS0_24make_for_each_index_taskImmmZN4mpcf22MatrixIntegrateCpuTaskINS5_15OperationL1DistIffEENS5_21Tensor1dValueIteratorINS5_6TensorINS5_3PcfIffEEEEEEE9run_asyncERNS5_8ExecutorEEUlmE_NS0_17GuidedPartitionerINS0_21DefaultClosureWrapperEEEEEDaT_T0_T1_T2_T3_EUlS2_E_E9_M_invokeERKSt9_Any_dataS2_
   fun:_ZNKSt8functionIFvRN2tf7RuntimeEEEclES2_
   fun:_ZN2tf8Executor25_invoke_runtime_task_implERNS_6WorkerEPNS_4NodeERSt8functionIFvRNS_7RuntimeEEE
   fun:_ZN2tf8Executor20_invoke_runtime_taskERNS_6WorkerEPNS_4NodeE
   fun:_ZN2tf8Executor7_invokeERNS_6WorkerEPNS_4NodeE
   fun:_ZN2tf8Executor13_exploit_taskERNS_6WorkerERPNS_4NodeE
   fun:_ZZN2tf8Executor6_spawnEmSt10shared_ptrINS_15WorkerInterfaceEEENKUlvE_clEv
   fun:_ZSt13__invoke_implIvZN2tf8Executor6_spawnEmSt10shared_ptrINS0_15WorkerInterfaceEEEUlvE_JEET_St14__invoke_otherOT0_DpOT1_
   fun:_ZSt8__invokeIZN2tf8Executor6_spawnEmSt10shared_ptrINS0_15WorkerInterfaceEEEUlvE_JEENSt15__invoke_resultIT_JDpT0_EE4typeEOS7_DpOS8_
   fun:_ZNSt6thread8_InvokerISt5tupleIJZN2tf8Executor6_spawnEmSt10shared_ptrINS2_15WorkerInterfaceEEEUlvE_EEE9_M_invokeIJLm0EEEEvSt12_Index_tupleIJXspT_EEE
   fun:_ZNSt6thread8_InvokerISt5tupleIJZN2tf8Executor6_spawnEmSt10shared_ptrINS2_15WorkerInterfaceEEEUlvE_EEEclEv
}
{
   <insert_a_suppression_name_here>
   Helgrind:Race
   fun:_ZZN2tf24make_for_each_index_taskImmmZN4mpcf22MatrixIntegrateCpuTaskINS1_15OperationL1DistIffEENS1_21Tensor1dValueIteratorINS1_6TensorINS1_3PcfIffEEEEEEE9run_asyncERNS1_8ExecutorEEUlmE_NS_17GuidedPartitionerINS_21DefaultClosureWrapperEEEEEDaT_T0_T1_T2_T3_ENUlRNS_7RuntimeEE_clESO_
   fun:_ZSt13__invoke_implIvRZN2tf24make_for_each_index_taskImmmZN4mpcf22MatrixIntegrateCpuTaskINS2_15OperationL1DistIffEENS2_21Tensor1dValueIteratorINS2_6TensorINS2_3PcfIffEEEEEEE9run_asyncERNS2_8ExecutorEEUlmE_NS0_17GuidedPartitionerINS0_21DefaultClosureWrapperEEEEEDaT_T0_T1_T2_T3_EUlRNS0_7RuntimeEE_JSP_EESJ_St14__invoke_otherOSK_DpOT1_
   fun:_ZSt10__invoke_rIvRZN2tf24make_for_each_index_taskImmmZN4mpcf22MatrixIntegrateCpuTaskINS2_15OperationL1DistIffEENS2_21Tensor1dValueIteratorINS2_6TensorINS2_3PcfIffEEEEEEE9run_asyncERNS2_8ExecutorEEUlmE_NS0_17GuidedPartitionerINS0_21DefaultClosureWrapperEEEEEDaT_T0_T1_T2_T3_EUlRNS0_7RuntimeEE_JSP_EENSt9enable_ifIX16is_invocable_r_vISJ_SK_DpT1_EESJ_E4typeEOSK_DpOST_
   fun:_ZNSt17_Function_handlerIFvRN2tf7RuntimeEEZNS0_24make_for_each_index_taskImmmZN4mpcf22MatrixIntegrateCpuTaskINS5_15OperationL1DistIffEENS5_21Tensor1dValueIteratorINS5_6TensorINS5_3PcfIffEEEEEEE9run_asyncERNS5_8ExecutorEEUlmE_NS0_17GuidedPartitionerINS0_21DefaultClosureWrapperEEEEEDaT_T0_T1_T2_T3_EUlS2_E_E9_M_invokeERKSt9_Any_dataS2_
   fun:_ZNKSt8functionIFvRN2tf7RuntimeEEEclES2_
   fun:_ZN2tf8Executor25_invoke_runtime_task_implERNS_6WorkerEPNS_4NodeERSt8functionIFvRNS_7RuntimeEEE
   fun:_ZN2tf8Executor20_invoke_runtime_taskERNS_6WorkerEPNS_4NodeE
   fun:_ZN2tf8Executor7_invokeERNS_6WorkerEPNS_4NodeE
   fun:_ZN2tf8Executor13_exploit_taskERNS_6WorkerERPNS_4NodeE
   fun:_ZZN2tf8Executor6_spawnEmSt10shared_ptrINS_15WorkerInterfaceEEENKUlvE_clEv
   fun:_ZSt13__invoke_implIvZN2tf8Executor6_spawnEmSt10shared_ptrINS0_15WorkerInterfaceEEEUlvE_JEET_St14__invoke_otherOT0_DpOT1_
   fun:_ZSt8__invokeIZN2tf8Executor6_spawnEmSt10shared_ptrINS0_15WorkerInterfaceEEEUlvE_JEENSt15__invoke_resultIT_JDpT0_EE4typeEOS7_DpOS8_
}
{
   <insert_a_suppression_name_here>
   Helgrind:Race
   fun:_ZZN2tf24make_for_each_index_taskImmmZN4mpcf22MatrixIntegrateCpuTaskINS1_15OperationL1DistIffEENS1_21Tensor1dValueIteratorINS1_6TensorINS1_3PcfIffEEEEEEE9run_asyncERNS1_8ExecutorEEUlmE_NS_17GuidedPartitionerINS_21DefaultClosureWrapperEEEEEDaT_T0_T1_T2_T3_ENUlRNS_7RuntimeEE_clESO_
   fun:_ZSt13__invoke_implIvRZN2tf24make_for_each_index_taskImmmZN4mpcf22MatrixIntegrateCpuTaskINS2_15OperationL1DistIffEENS2_21Tensor1dValueIteratorINS2_6TensorINS2_3PcfIffEEEEEEE9run_asyncERNS2_8ExecutorEEUlmE_NS0_17GuidedPartitionerINS0_21DefaultClosureWrapperEEEEEDaT_T0_T1_T2_T3_EUlRNS0_7RuntimeEE_JSP_EESJ_St14__invoke_otherOSK_DpOT1_
   fun:_ZSt10__invoke_rIvRZN2tf24make_for_each_index_taskImmmZN4mpcf22MatrixIntegrateCpuTaskINS2_15OperationL1DistIffEENS2_21Tensor1dValueIteratorINS2_6TensorINS2_3PcfIffEEEEEEE9run_asyncERNS2_8ExecutorEEUlmE_NS0_17GuidedPartitionerINS0_21DefaultClosureWrapperEEEEEDaT_T0_T1_T2_T3_EUlRNS0_7RuntimeEE_JSP_EENSt9enable_ifIX16is_invocable_r_vISJ_SK_DpT1_EESJ_E4typeEOSK_DpOST_
   fun:_ZNSt17_Function_handlerIFvRN2tf7RuntimeEEZNS0_24make_for_each_index_taskImmmZN4mpcf22MatrixIntegrateCpuTaskINS5_15OperationL1DistIffEENS5_21Tensor1dValueIteratorINS5_6TensorINS5_3PcfIffEEEEEEE9run_asyncERNS5_8ExecutorEEUlmE_NS0_17GuidedPartitionerINS0_21DefaultClosureWrapperEEEEEDaT_T0_T1_T2_T3_EUlS2_E_E9_M_invokeERKSt9_Any_dataS2_
   fun:_ZNKSt8functionIFvRN2tf7RuntimeEEEclES2_
   fun:_ZN2tf8Executor25_invoke_runtime_task_implERNS_6WorkerEPNS_4NodeERSt8functionIFvRNS_7RuntimeEEE
   fun:_ZN2tf8Executor20_invoke_runtime_taskERNS_6WorkerEPNS_4NodeE
   fun:_ZN2tf8Executor7_invokeERNS_6WorkerEPNS_4NodeE
   fun:_ZN2tf8Executor13_exploit_taskERNS_6WorkerERPNS_4NodeE
   fun:_ZZN2tf8Executor6_spawnEmSt10shared_ptrINS_15WorkerInterfaceEEENKUlvE_clEv
   fun:_ZSt13__invoke_implIvZN2tf8Executor6_spawnEmSt10shared_ptrINS0_15WorkerInterfaceEEEUlvE_JEET_St14__invoke_otherOT0_DpOT1_
   fun:_ZSt8__invokeIZN2tf8Executor6_spawnEmSt10shared_ptrINS0_15WorkerInterfaceEEEUlvE_JEENSt15__invoke_resultIT_JDpT0_EE4typeEOS7_DpOS8_
}
{
   <insert_a_suppression_name_here>
   Helgrind:Race
   fun:_ZZN2tf24make_for_each_index_taskImmmZN4mpcf22MatrixIntegrateCpuTaskINS1_15OperationL1DistIffEENS1_21Tensor1dValueIteratorINS1_6TensorINS1_3PcfIffEEEEEEE9run_asyncERNS1_8ExecutorEEUlmE_NS_17GuidedPartitionerINS_21DefaultClosureWrapperEEEEEDaT_T0_T1_T2_T3_ENUlRNS_7RuntimeEE_clESO_
   fun:_ZSt13__invoke_implIvRZN2tf24make_for_each_index_taskImmmZN4mpcf22MatrixIntegrateCpuTaskINS2_15OperationL1DistIffEENS2_21Tensor1dValueIteratorINS2_6TensorINS2_3PcfIffEEEEEEE9run_asyncERNS2_8ExecutorEEUlmE_NS0_17GuidedPartitionerINS0_21DefaultClosureWrapperEEEEEDaT_T0_T1_T2_T3_EUlRNS0_7RuntimeEE_JSP_EESJ_St14__invoke_otherOSK_DpOT1_
   fun:_ZSt10__invoke_rIvRZN2tf24make_for_each_index_taskImmmZN4mpcf22MatrixIntegrateCpuTaskINS2_15OperationL1DistIffEENS2_21Tensor1dValueIteratorINS2_6TensorINS2_3PcfIffEEEEEEE9run_asyncERNS2_8ExecutorEEUlmE_NS0_17GuidedPartitionerINS0_21DefaultClosureWrapperEEEEEDaT_T0_T1_T2_T3_EUlRNS0_7RuntimeEE_JSP_EENSt9enable_ifIX16is_invocable_r_vISJ_SK_DpT1_EESJ_E4typeEOSK_DpOST_
   fun:_ZNSt17_Function_handlerIFvRN2tf7RuntimeEEZNS0_24make_for_each_index_taskImmmZN4mpcf22MatrixIntegrateCpuTaskINS5_15OperationL1DistIffEENS5_21Tensor1dValueIteratorINS5_6TensorINS5_3PcfIffEEEEEEE9run_asyncERNS5_8ExecutorEEUlmE_NS0_17GuidedPartitionerINS0_21DefaultClosureWrapperEEEEEDaT_T0_T1_T2_T3_EUlS2_E_E9_M_invokeERKSt9_Any_dataS2_
   fun:_ZNKSt8functionIFvRN2tf7RuntimeEEEclES2_
   fun:_ZN2tf8Executor25_invoke_runtime_task_implERNS_6WorkerEPNS_4NodeERSt8functionIFvRNS_7RuntimeEEE
   fun:_ZN2tf8Executor20_invoke_runtime_taskERNS_6WorkerEPNS_4NodeE
   fun:_ZN2tf8Executor7_invokeERNS_6WorkerEPNS_4NodeE
   fun:_ZN2tf8Executor13_exploit_taskERNS_6WorkerERPNS_4NodeE
   fun:_ZZN2tf8Executor6_spawnEmSt10shared_ptrINS_15WorkerInterfaceEEENKUlvE_clEv
   fun:_ZSt13__invoke_implIvZN2tf8Executor6_spawnEmSt10shared_ptrINS0_15WorkerInterfaceEEEUlvE_JEET_St14__invoke_otherOT0_DpOT1_
   fun:_ZSt8__invokeIZN2tf8Executor6_spawnEmSt10shared_ptrINS0_15WorkerInterfaceEEEUlvE_JEENSt15__invoke_resultIT_JDpT0_EE4typeEOS7_DpOS8_
}
{
   <insert_a_suppression_name_here>
   Helgrind:Race
   fun:_ZNK2tf15PartitionerBaseINS_21DefaultClosureWrapperEE10chunk_sizeEv
   fun:_ZZN2tf24make_for_each_index_taskImmmZN4mpcf22MatrixIntegrateCpuTaskINS1_15OperationL1DistIffEENS1_21Tensor1dValueIteratorINS1_6TensorINS1_3PcfIffEEEEEEE9run_asyncERNS1_8ExecutorEEUlmE_NS_17GuidedPartitionerINS_21DefaultClosureWrapperEEEEEDaT_T0_T1_T2_T3_ENUlRNS_7RuntimeEE_clESO_
   fun:_ZSt13__invoke_implIvRZN2tf24make_for_each_index_taskImmmZN4mpcf22MatrixIntegrateCpuTaskINS2_15OperationL1DistIffEENS2_21Tensor1dValueIteratorINS2_6TensorINS2_3PcfIffEEEEEEE9run_asyncERNS2_8ExecutorEEUlmE_NS0_17GuidedPartitionerINS0_21DefaultClosureWrapperEEEEEDaT_T0_T1_T2_T3_EUlRNS0_7RuntimeEE_JSP_EESJ_St14__invoke_otherOSK_DpOT1_
   fun:_ZSt10__invoke_rIvRZN2tf24make_for_each_index_taskImmmZN4mpcf22MatrixIntegrateCpuTaskINS2_15OperationL1DistIffEENS2_21Tensor1dValueIteratorINS2_6TensorINS2_3PcfIffEEEEEEE9run_asyncERNS2_8ExecutorEEUlmE_NS0_17GuidedPartitionerINS0_21DefaultClosureWrapperEEEEEDaT_T0_T1_T2_T3_EUlRNS0_7RuntimeEE_JSP_EENSt9enable_ifIX16is_invocable_r_vISJ_SK_DpT1_EESJ_E4typeEOSK_DpOST_
   fun:_ZNSt17_Function_handlerIFvRN2tf7RuntimeEEZNS0_24make_for_each_index_taskImmmZN4mpcf22MatrixIntegrateCpuTaskINS5_15OperationL1DistIffEENS5_21Tensor1dValueIteratorINS5_6TensorINS5_3PcfIffEEEEEEE9run_asyncERNS5_8ExecutorEEUlmE_NS0_17GuidedPartitionerINS0_21DefaultClosureWrapperEEEEEDaT_T0_T1_T2_T3_EUlS2_E_E9_M_invokeERKSt9_Any_dataS2_
   fun:_ZNKSt8functionIFvRN2tf7RuntimeEEEclES2_
   fun:_ZN2tf8Executor25_invoke_runtime_task_implERNS_6WorkerEPNS_4NodeERSt8functionIFvRNS_7RuntimeEEE
   fun:_ZN2tf8Executor20_invoke_runtime_taskERNS_6WorkerEPNS_4NodeE
   fun:_ZN2tf8Executor7_invokeERNS_6WorkerEPNS_4NodeE
   fun:_ZN2tf8Executor13_exploit_taskERNS_6WorkerERPNS_4NodeE
   fun:_ZZN2tf8Executor6_spawnEmSt10shared_ptrINS_15WorkerInterfaceEEENKUlvE_clEv
   fun:_ZSt13__invoke_implIvZN2tf8Executor6_spawnEmSt10shared_ptrINS0_15WorkerInterfaceEEEUlvE_JEET_St14__invoke_otherOT0_DpOT1_
}
{
   <insert_a_suppression_name_here>
   Helgrind:Race
   fun:_ZZN2tf24make_for_each_index_taskImmmZN4mpcf22MatrixIntegrateCpuTaskINS1_15OperationL1DistIffEENS1_21Tensor1dValueIteratorINS1_6TensorINS1_3PcfIffEEEEEEE9run_asyncERNS1_8ExecutorEEUlmE_NS_17GuidedPartitionerINS_21DefaultClosureWrapperEEEEEDaT_T0_T1_T2_T3_ENUlRNS_7RuntimeEE_clESO_
   fun:_ZSt13__invoke_implIvRZN2tf24make_for_each_index_taskImmmZN4mpcf22MatrixIntegrateCpuTaskINS2_15OperationL1DistIffEENS2_21Tensor1dValueIteratorINS2_6TensorINS2_3PcfIffEEEEEEE9run_asyncERNS2_8ExecutorEEUlmE_NS0_17GuidedPartitionerINS0_21DefaultClosureWrapperEEEEEDaT_T0_T1_T2_T3_EUlRNS0_7RuntimeEE_JSP_EESJ_St14__invoke_otherOSK_DpOT1_
   fun:_ZSt10__invoke_rIvRZN2tf24make_for_each_index_taskImmmZN4mpcf22MatrixIntegrateCpuTaskINS2_15OperationL1DistIffEENS2_21Tensor1dValueIteratorINS2_6TensorINS2_3PcfIffEEEEEEE9run_asyncERNS2_8ExecutorEEUlmE_NS0_17GuidedPartitionerINS0_21DefaultClosureWrapperEEEEEDaT_T0_T1_T2_T3_EUlRNS0_7RuntimeEE_JSP_EENSt9enable_ifIX16is_invocable_r_vISJ_SK_DpT1_EESJ_E4typeEOSK_DpOST_
   fun:_ZNSt17_Function_handlerIFvRN2tf7RuntimeEEZNS0_24make_for_each_index_taskImmmZN4mpcf22MatrixIntegrateCpuTaskINS5_15OperationL1DistIffEENS5_21Tensor1dValueIteratorINS5_6TensorINS5_3PcfIffEEEEEEE9run_asyncERNS5_8ExecutorEEUlmE_NS0_17GuidedPartitionerINS0_21DefaultClosureWrapperEEEEEDaT_T0_T1_T2_T3_EUlS2_E_E9_M_invokeERKSt9_Any_dataS2_
   fun:_ZNKSt8functionIFvRN2tf7RuntimeEEEclES2_
   fun:_ZN2tf8Executor25_invoke_runtime_task_implERNS_6WorkerEPNS_4NodeERSt8functionIFvRNS_7RuntimeEEE
   fun:_ZN2tf8Executor20_invoke_runtime_taskERNS_6WorkerEPNS_4NodeE
   fun:_ZN2tf8Executor7_invokeERNS_6WorkerEPNS_4NodeE
   fun:_ZN2tf8Executor13_exploit_taskERNS_6WorkerERPNS_4NodeE
   fun:_ZZN2tf8Executor6_spawnEmSt10shared_ptrINS_15WorkerInterfaceEEENKUlvE_clEv
   fun:_ZSt13__invoke_implIvZN2tf8Executor6_spawnEmSt10shared_ptrINS0_15WorkerInterfaceEEEUlvE_JEET_St14__invoke_otherOT0_DpOT1_
   fun:_ZSt8__invokeIZN2tf8Executor6_spawnEmSt10shared_ptrINS0_15WorkerInterfaceEEEUlvE_JEENSt15__invoke_resultIT_JDpT0_EE4typeEOS7_DpOS8_
}
{
   <insert_a_suppression_name_here>
   Helgrind:Race
   fun:_ZZN2tf24make_for_each_index_taskImmmZN4mpcf22MatrixIntegrateCpuTaskINS1_15OperationL1DistIffEENS1_21Tensor1dValueIteratorINS1_6TensorINS1_3PcfIffEEEEEEE9run_asyncERNS1_8ExecutorEEUlmE_NS_17GuidedPartitionerINS_21DefaultClosureWrapperEEEEEDaT_T0_T1_T2_T3_ENUlRNS_7RuntimeEE_clESO_
   fun:_ZSt13__invoke_implIvRZN2tf24make_for_each_index_taskImmmZN4mpcf22MatrixIntegrateCpuTaskINS2_15OperationL1DistIffEENS2_21Tensor1dValueIteratorINS2_6TensorINS2_3PcfIffEEEEEEE9run_asyncERNS2_8ExecutorEEUlmE_NS0_17GuidedPartitionerINS0_21DefaultClosureWrapperEEEEEDaT_T0_T1_T2_T3_EUlRNS0_7RuntimeEE_JSP_EESJ_St14__invoke_otherOSK_DpOT1_
   fun:_ZSt10__invoke_rIvRZN2tf24make_for_each_index_taskImmmZN4mpcf22MatrixIntegrateCpuTaskINS2_15OperationL1DistIffEENS2_21Tensor1dValueIteratorINS2_6TensorINS2_3PcfIffEEEEEEE9run_asyncERNS2_8ExecutorEEUlmE_NS0_17GuidedPartitionerINS0_21DefaultClosureWrapperEEEEEDaT_T0_T1_T2_T3_EUlRNS0_7RuntimeEE_JSP_EENSt9enable_ifIX16is_invocable_r_vISJ_SK_DpT1_EESJ_E4typeEOSK_DpOST_
   fun:_ZNSt17_Function_handlerIFvRN2tf7RuntimeEEZNS0_24make_for_each_index_taskImmmZN4mpcf22MatrixIntegrateCpuTaskINS5_15OperationL1DistIffEENS5_21Tensor1dValueIteratorINS5_6TensorINS5_3PcfIffEEEEEEE9run_asyncERNS5_8ExecutorEEUlmE_NS0_17GuidedPartitionerINS0_21DefaultClosureWrapperEEEEEDaT_T0_T1_T2_T3_EUlS2_E_E9_M_invokeERKSt9_Any_dataS2_
   fun:_ZNKSt8functionIFvRN2tf7RuntimeEEEclES2_
   fun:_ZN2tf8Executor25_invoke_runtime_task_implERNS_6WorkerEPNS_4NodeERSt8functionIFvRNS_7RuntimeEEE
   fun:_ZN2tf8Executor20_invoke_runtime_taskERNS_6WorkerEPNS_4NodeE
   fun:_ZN2tf8Executor7_invokeERNS_6WorkerEPNS_4NodeE
   fun:_ZN2tf8Executor13_exploit_taskERNS_6WorkerERPNS_4NodeE
   fun:_ZZN2tf8Executor6_spawnEmSt10shared_ptrINS_15WorkerInterfaceEEENKUlvE_clEv
   fun:_ZSt13__invoke_implIvZN2tf8Executor6_spawnEmSt10shared_ptrINS0_15WorkerInterfaceEEEUlvE_JEET_St14__invoke_otherOT0_DpOT1_
   fun:_ZSt8__invokeIZN2tf8Executor6_spawnEmSt10shared_ptrINS0_15WorkerInterfaceEEEUlvE_JEENSt15__invoke_resultIT_JDpT0_EE4typeEOS7_DpOS8_
}
{
   <insert_a_suppression_name_here>
   Helgrind:Race
   fun:_ZN2tf7Runtime12silent_asyncINS_17DefaultTaskParamsERZZNS_24make_for_each_index_taskImmmZN4mpcf22MatrixIntegrateCpuTaskINS4_15OperationL1DistIffEENS4_21Tensor1dValueIteratorINS4_6TensorINS4_3PcfIffEEEEEEE9run_asyncERNS4_8ExecutorEEUlmE_NS_17GuidedPartitionerINS_21DefaultClosureWrapperEEEEEDaT_T0_T1_T2_T3_ENUlRS0_E_clESQ_EUlvE0_EEvOSL_OSM_
   fun:_ZN2tf7Runtime12silent_asyncIRZZNS_24make_for_each_index_taskImmmZN4mpcf22MatrixIntegrateCpuTaskINS3_15OperationL1DistIffEENS3_21Tensor1dValueIteratorINS3_6TensorINS3_3PcfIffEEEEEEE9run_asyncERNS3_8ExecutorEEUlmE_NS_17GuidedPartitionerINS_21DefaultClosureWrapperEEEEEDaT_T0_T1_T2_T3_ENUlRS0_E_clESP_EUlvE0_EEvOSK_
   fun:_ZZN2tf24make_for_each_index_taskImmmZN4mpcf22MatrixIntegrateCpuTaskINS1_15OperationL1DistIffEENS1_21Tensor1dValueIteratorINS1_6TensorINS1_3PcfIffEEEEEEE9run_asyncERNS1_8ExecutorEEUlmE_NS_17GuidedPartitionerINS_21DefaultClosureWrapperEEEEEDaT_T0_T1_T2_T3_ENUlRNS_7RuntimeEE_clESO_
   fun:_ZSt13__invoke_implIvRZN2tf24make_for_each_index_taskImmmZN4mpcf22MatrixIntegrateCpuTaskINS2_15OperationL1DistIffEENS2_21Tensor1dValueIteratorINS2_6TensorINS2_3PcfIffEEEEEEE9run_asyncERNS2_8ExecutorEEUlmE_NS0_17GuidedPartitionerINS0_21DefaultClosureWrapperEEEEEDaT_T0_T1_T2_T3_EUlRNS0_7RuntimeEE_JSP_EESJ_St14__invoke_otherOSK_DpOT1_
   fun:_ZSt10__invoke_rIvRZN2tf24make_for_each_index_taskImmmZN4mpcf22MatrixIntegrateCpuTaskINS2_15OperationL1DistIffEENS2_21Tensor1dValueIteratorINS2_6TensorINS2_3PcfIffEEEEEEE9run_asyncERNS2_8ExecutorEEUlmE_NS0_17GuidedPartitionerINS0_21DefaultClosureWrapperEEEEEDaT_T0_T1_T2_T3_EUlRNS0_7RuntimeEE_JSP_EENSt9enable_ifIX16is_invocable_r_vISJ_SK_DpT1_EESJ_E4typeEOSK_DpOST_
   fun:_ZNSt17_Function_handlerIFvRN2tf7RuntimeEEZNS0_24make_for_each_index_taskImmmZN4mpcf22MatrixIntegrateCpuTaskINS5_15OperationL1DistIffEENS5_21Tensor1dValueIteratorINS5_6TensorINS5_3PcfIffEEEEEEE9run_asyncERNS5_8ExecutorEEUlmE_NS0_17GuidedPartitionerINS0_21DefaultClosureWrapperEEEEEDaT_T0_T1_T2_T3_EUlS2_E_E9_M_invokeERKSt9_Any_dataS2_
   fun:_ZNKSt8functionIFvRN2tf7RuntimeEEEclES2_
   fun:_ZN2tf8Executor25_invoke_runtime_task_implERNS_6WorkerEPNS_4NodeERSt8functionIFvRNS_7RuntimeEEE
   fun:_ZN2tf8Executor20_invoke_runtime_taskERNS_6WorkerEPNS_4NodeE
   fun:_ZN2tf8Executor7_invokeERNS_6WorkerEPNS_4NodeE
   fun:_ZN2tf8Executor13_exploit_taskERNS_6WorkerERPNS_4NodeE
   fun:_ZZN2tf8Executor6_spawnEmSt10shared_ptrINS_15WorkerInterfaceEEENKUlvE_clEv
}
{
   <insert_a_suppression_name_here>
   Helgrind:Race
   fun:_ZNKSt10_HashtableINSt6thread2idESt4pairIKS1_PN2tf6WorkerEESaIS7_ENSt8__detail10_Select1stESt8equal_toIS1_ESt4hashIS1_ENS9_18_Mod_range_hashingENS9_20_Default_ranged_hashENS9_20_Prime_rehash_policyENS9_17_Hashtable_traitsILb0ELb0ELb1EEEE4sizeEv
   fun:_ZNSt10_HashtableINSt6thread2idESt4pairIKS1_PN2tf6WorkerEESaIS7_ENSt8__detail10_Select1stESt8equal_toIS1_ESt4hashIS1_ENS9_18_Mod_range_hashingENS9_20_Default_ranged_hashENS9_20_Prime_rehash_policyENS9_17_Hashtable_traitsILb0ELb0ELb1EEEE4findERS3_
   fun:_ZNSt13unordered_mapINSt6thread2idEPN2tf6WorkerESt4hashIS1_ESt8equal_toIS1_ESaISt4pairIKS1_S4_EEE4findERSA_
   fun:_ZN2tf8Executor11this_workerEv
   fun:_ZN2tf8Executor20_schedule_async_taskIJRKiS3_NS_17DefaultTaskParamsERPNS_8TopologyERPNS_8NodeBaseEiSt15in_place_type_tINS_4Node5AsyncEERZZNS_24make_for_each_index_taskImmmZN4mpcf22MatrixIntegrateCpuTaskINSG_15OperationL1DistIffEENSG_21Tensor1dValueIteratorINSG_6TensorINSG_3PcfIffEEEEEEE9run_asyncERNSG_8ExecutorEEUlmE_NS_17GuidedPartitionerINS_21DefaultClosureWrapperEEEEEDaT_T0_T1_T2_T3_ENUlRNS_7RuntimeEE_clES13_EUlvE0_EEEvDpOT_
   fun:_ZN2tf8Executor13_silent_asyncINS_17DefaultTaskParamsERZZNS_24make_for_each_index_taskImmmZN4mpcf22MatrixIntegrateCpuTaskINS4_15OperationL1DistIffEENS4_21Tensor1dValueIteratorINS4_6TensorINS4_3PcfIffEEEEEEE9run_asyncERNS4_8ExecutorEEUlmE_NS_17GuidedPartitionerINS_21DefaultClosureWrapperEEEEEDaT_T0_T1_T2_T3_ENUlRNS_7RuntimeEE_clESR_EUlvE0_EEvOSL_OSM_PNS_8TopologyEPNS_8NodeBaseE
   fun:_ZN2tf7Runtime12silent_asyncINS_17DefaultTaskParamsERZZNS_24make_for_each_index_taskImmmZN4mpcf22MatrixIntegrateCpuTaskINS4_15OperationL1DistIffEENS4_21Tensor1dValueIteratorINS4_6TensorINS4_3PcfIffEEEEEEE9run_asyncERNS4_8ExecutorEEUlmE_NS_17GuidedPartitionerINS_21DefaultClosureWrapperEEEEEDaT_T0_T1_T2_T3_ENUlRS0_E_clESQ_EUlvE0_EEvOSL_OSM_
   fun:_ZN2tf7Runtime12silent_asyncIRZZNS_24make_for_each_index_taskImmmZN4mpcf22MatrixIntegrateCpuTaskINS3_15OperationL1DistIffEENS3_21Tensor1dValueIteratorINS3_6TensorINS3_3PcfIffEEEEEEE9run_asyncERNS3_8ExecutorEEUlmE_NS_17GuidedPartitionerINS_21DefaultClosureWrapperEEEEEDaT_T0_T1_T2_T3_ENUlRS0_E_clESP_EUlvE0_EEvOSK_
   fun:_ZZN2tf24make_for_each_index_taskImmmZN4mpcf22MatrixIntegrateCpuTaskINS1_15OperationL1DistIffEENS1_21Tensor1dValueIteratorINS1_6TensorINS1_3PcfIffEEEEEEE9run_asyncERNS1_8ExecutorEEUlmE_NS_17GuidedPartitionerINS_21DefaultClosureWrapperEEEEEDaT_T0_T1_T2_T3_ENUlRNS_7RuntimeEE_clESO_
   fun:_ZSt13__invoke_implIvRZN2tf24make_for_each_index_taskImmmZN4mpcf22MatrixIntegrateCpuTaskINS2_15OperationL1DistIffEENS2_21Tensor1dValueIteratorINS2_6TensorINS2_3PcfIffEEEEEEE9run_asyncERNS2_8ExecutorEEUlmE_NS0_17GuidedPartitionerINS0_21DefaultClosureWrapperEEEEEDaT_T0_T1_T2_T3_EUlRNS0_7RuntimeEE_JSP_EESJ_St14__invoke_otherOSK_DpOT1_
   fun:_ZSt10__invoke_rIvRZN2tf24make_for_each_index_taskImmmZN4mpcf22MatrixIntegrateCpuTaskINS2_15OperationL1DistIffEENS2_21Tensor1dValueIteratorINS2_6TensorINS2_3PcfIffEEEEEEE9run_asyncERNS2_8ExecutorEEUlmE_NS0_17GuidedPartitionerINS0_21DefaultClosureWrapperEEEEEDaT_T0_T1_T2_T3_EUlRNS0_7RuntimeEE_JSP_EENSt9enable_ifIX16is_invocable_r_vISJ_SK_DpT1_EESJ_E4typeEOSK_DpOST_
   fun:_ZNSt17_Function_handlerIFvRN2tf7RuntimeEEZNS0_24make_for_each_index_taskImmmZN4mpcf22MatrixIntegrateCpuTaskINS5_15OperationL1DistIffEENS5_21Tensor1dValueIteratorINS5_6TensorINS5_3PcfIffEEEEEEE9run_asyncERNS5_8ExecutorEEUlmE_NS0_17GuidedPartitionerINS0_21DefaultClosureWrapperEEEEEDaT_T0_T1_T2_T3_EUlS2_E_E9_M_invokeERKSt9_Any_dataS2_
}
{
   <insert_a_suppression_name_here>
   Helgrind:Race
   fun:_ZNKSt10_HashtableINSt6thread2idESt4pairIKS1_PN2tf6WorkerEESaIS7_ENSt8__detail10_Select1stESt8equal_toIS1_ESt4hashIS1_ENS9_18_Mod_range_hashingENS9_20_Default_ranged_hashENS9_20_Prime_rehash_policyENS9_17_Hashtable_traitsILb0ELb0ELb1EEEE15_M_bucket_indexEm
   fun:_ZNSt10_HashtableINSt6thread2idESt4pairIKS1_PN2tf6WorkerEESaIS7_ENSt8__detail10_Select1stESt8equal_toIS1_ESt4hashIS1_ENS9_18_Mod_range_hashingENS9_20_Default_ranged_hashENS9_20_Prime_rehash_policyENS9_17_Hashtable_traitsILb0ELb0ELb1EEEE4findERS3_
   fun:_ZNSt13unordered_mapINSt6thread2idEPN2tf6WorkerESt4hashIS1_ESt8equal_toIS1_ESaISt4pairIKS1_S4_EEE4findERSA_
   fun:_ZN2tf8Executor11this_workerEv
   fun:_ZN2tf8Executor20_schedule_async_taskIJRKiS3_NS_17DefaultTaskParamsERPNS_8TopologyERPNS_8NodeBaseEiSt15in_place_type_tINS_4Node5AsyncEERZZNS_24make_for_each_index_taskImmmZN4mpcf22MatrixIntegrateCpuTaskINSG_15OperationL1DistIffEENSG_21Tensor1dValueIteratorINSG_6TensorINSG_3PcfIffEEEEEEE9run_asyncERNSG_8ExecutorEEUlmE_NS_17GuidedPartitionerINS_21DefaultClosureWrapperEEEEEDaT_T0_T1_T2_T3_ENUlRNS_7RuntimeEE_clES13_EUlvE0_EEEvDpOT_
   fun:_ZN2tf8Executor13_silent_asyncINS_17DefaultTaskParamsERZZNS_24make_for_each_index_taskImmmZN4mpcf22MatrixIntegrateCpuTaskINS4_15OperationL1DistIffEENS4_21Tensor1dValueIteratorINS4_6TensorINS4_3PcfIffEEEEEEE9run_asyncERNS4_8ExecutorEEUlmE_NS_17GuidedPartitionerINS_21DefaultClosureWrapperEEEEEDaT_T0_T1_T2_T3_ENUlRNS_7RuntimeEE_clESR_EUlvE0_EEvOSL_OSM_PNS_8TopologyEPNS_8NodeBaseE
   fun:_ZN2tf7Runtime12silent_asyncINS_17DefaultTaskParamsERZZNS_24make_for_each_index_taskImmmZN4mpcf22MatrixIntegrateCpuTaskINS4_15OperationL1DistIffEENS4_21Tensor1dValueIteratorINS4_6TensorINS4_3PcfIffEEEEEEE9run_asyncERNS4_8ExecutorEEUlmE_NS_17GuidedPartitionerINS_21DefaultClosureWrapperEEEEEDaT_T0_T1_T2_T3_ENUlRS0_E_clESQ_EUlvE0_EEvOSL_OSM_
   fun:_ZN2tf7Runtime12silent_asyncIRZZNS_24make_for_each_index_taskImmmZN4mpcf22MatrixIntegrateCpuTaskINS3_15OperationL1DistIffEENS3_21Tensor1dValueIteratorINS3_6TensorINS3_3PcfIffEEEEEEE9run_asyncERNS3_8ExecutorEEUlmE_NS_17GuidedPartitionerINS_21DefaultClosureWrapperEEEEEDaT_T0_T1_T2_T3_ENUlRS0_E_clESP_EUlvE0_EEvOSK_
   fun:_ZZN2tf24make_for_each_index_taskImmmZN4mpcf22MatrixIntegrateCpuTaskINS1_15OperationL1DistIffEENS1_21Tensor1dValueIteratorINS1_6TensorINS1_3PcfIffEEEEEEE9run_asyncERNS1_8ExecutorEEUlmE_NS_17GuidedPartitionerINS_21DefaultClosureWrapperEEEEEDaT_T0_T1_T2_T3_ENUlRNS_7RuntimeEE_clESO_
   fun:_ZSt13__invoke_implIvRZN2tf24make_for_each_index_taskImmmZN4mpcf22MatrixIntegrateCpuTaskINS2_15OperationL1DistIffEENS2_21Tensor1dValueIteratorINS2_6TensorINS2_3PcfIffEEEEEEE9run_asyncERNS2_8ExecutorEEUlmE_NS0_17GuidedPartitionerINS0_21DefaultClosureWrapperEEEEEDaT_T0_T1_T2_T3_EUlRNS0_7RuntimeEE_JSP_EESJ_St14__invoke_otherOSK_DpOT1_
   fun:_ZSt10__invoke_rIvRZN2tf24make_for_each_index_taskImmmZN4mpcf22MatrixIntegrateCpuTaskINS2_15OperationL1DistIffEENS2_21Tensor1dValueIteratorINS2_6TensorINS2_3PcfIffEEEEEEE9run_asyncERNS2_8ExecutorEEUlmE_NS0_17GuidedPartitionerINS0_21DefaultClosureWrapperEEEEEDaT_T0_T1_T2_T3_EUlRNS0_7RuntimeEE_JSP_EENSt9enable_ifIX16is_invocable_r_vISJ_SK_DpT1_EESJ_E4typeEOSK_DpOST_
   fun:_ZNSt17_Function_handlerIFvRN2tf7RuntimeEEZNS0_24make_for_each_index_taskImmmZN4mpcf22MatrixIntegrateCpuTaskINS5_15OperationL1DistIffEENS5_21Tensor1dValueIteratorINS5_6TensorINS5_3PcfIffEEEEEEE9run_asyncERNS5_8ExecutorEEUlmE_NS0_17GuidedPartitionerINS0_21DefaultClosureWrapperEEEEEDaT_T0_T1_T2_T3_EUlS2_E_E9_M_invokeERKSt9_Any_dataS2_
}
{
   <insert_a_suppression_name_here>
   Helgrind:Race
   fun:_ZNKSt10_HashtableINSt6thread2idESt4pairIKS1_PN2tf6WorkerEESaIS7_ENSt8__detail10_Select1stESt8equal_toIS1_ESt4hashIS1_ENS9_18_Mod_range_hashingENS9_20_Default_ranged_hashENS9_20_Prime_rehash_policyENS9_17_Hashtable_traitsILb0ELb0ELb1EEEE19_M_find_before_nodeEmRS3_m
   fun:_ZNKSt10_HashtableINSt6thread2idESt4pairIKS1_PN2tf6WorkerEESaIS7_ENSt8__detail10_Select1stESt8equal_toIS1_ESt4hashIS1_ENS9_18_Mod_range_hashingENS9_20_Default_ranged_hashENS9_20_Prime_rehash_policyENS9_17_Hashtable_traitsILb0ELb0ELb1EEEE12_M_find_nodeEmRS3_m
   fun:_ZNSt10_HashtableINSt6thread2idESt4pairIKS1_PN2tf6WorkerEESaIS7_ENSt8__detail10_Select1stESt8equal_toIS1_ESt4hashIS1_ENS9_18_Mod_range_hashingENS9_20_Default_ranged_hashENS9_20_Prime_rehash_policyENS9_17_Hashtable_traitsILb0ELb0ELb1EEEE4findERS3_
   fun:_ZNSt13unordered_mapINSt6thread2idEPN2tf6WorkerESt4hashIS1_ESt8equal_toIS1_ESaISt4pairIKS1_S4_EEE4findERSA_
   fun:_ZN2tf8Executor11this_workerEv
   fun:_ZN2tf8Executor20_schedule_async_taskIJRKiS3_NS_17DefaultTaskParamsERPNS_8TopologyERPNS_8NodeBaseEiSt15in_place_type_tINS_4Node5AsyncEERZZNS_24make_for_each_index_taskImmmZN4mpcf22MatrixIntegrateCpuTaskINSG_15OperationL1DistIffEENSG_21Tensor1dValueIteratorINSG_6TensorINSG_3PcfIffEEEEEEE9run_asyncERNSG_8ExecutorEEUlmE_NS_17GuidedPartitionerINS_21DefaultClosureWrapperEEEEEDaT_T0_T1_T2_T3_ENUlRNS_7RuntimeEE_clES13_EUlvE0_EEEvDpOT_
   fun:_ZN2tf8Executor13_silent_asyncINS_17DefaultTaskParamsERZZNS_24make_for_each_index_taskImmmZN4mpcf22MatrixIntegrateCpuTaskINS4_15OperationL1DistIffEENS4_21Tensor1dValueIteratorINS4_6TensorINS4_3PcfIffEEEEEEE9run_asyncERNS4_8ExecutorEEUlmE_NS_17GuidedPartitionerINS_21DefaultClosureWrapperEEEEEDaT_T0_T1_T2_T3_ENUlRNS_7RuntimeEE_clESR_EUlvE0_EEvOSL_OSM_PNS_8TopologyEPNS_8NodeBaseE
   fun:_ZN2tf7Runtime12silent_asyncINS_17DefaultTaskParamsERZZNS_24make_for_each_index_taskImmmZN4mpcf22MatrixIntegrateCpuTaskINS4_15OperationL1DistIffEENS4_21Tensor1dValueIteratorINS4_6TensorINS4_3PcfIffEEEEEEE9run_asyncERNS4_8ExecutorEEUlmE_NS_17GuidedPartitionerINS_21DefaultClosureWrapperEEEEEDaT_T0_T1_T2_T3_ENUlRS0_E_clESQ_EUlvE0_EEvOSL_OSM_
   fun:_ZN2tf7Runtime12silent_asyncIRZZNS_24make_for_each_index_taskImmmZN4mpcf22MatrixIntegrateCpuTaskINS3_15OperationL1DistIffEENS3_21Tensor1dValueIteratorINS3_6TensorINS3_3PcfIffEEEEEEE9run_asyncERNS3_8ExecutorEEUlmE_NS_17GuidedPartitionerINS_21DefaultClosureWrapperEEEEEDaT_T0_T1_T2_T3_ENUlRS0_E_clESP_EUlvE0_EEvOSK_
   fun:_ZZN2tf24make_for_each_index_taskImmmZN4mpcf22MatrixIntegrateCpuTaskINS1_15OperationL1DistIffEENS1_21Tensor1dValueIteratorINS1_6TensorINS1_3PcfIffEEEEEEE9run_asyncERNS1_8ExecutorEEUlmE_NS_17GuidedPartitionerINS_21DefaultClosureWrapperEEEEEDaT_T0_T1_T2_T3_ENUlRNS_7RuntimeEE_clESO_
   fun:_ZSt13__invoke_implIvRZN2tf24make_for_each_index_taskImmmZN4mpcf22MatrixIntegrateCpuTaskINS2_15OperationL1DistIffEENS2_21Tensor1dValueIteratorINS2_6TensorINS2_3PcfIffEEEEEEE9run_asyncERNS2_8ExecutorEEUlmE_NS0_17GuidedPartitionerINS0_21DefaultClosureWrapperEEEEEDaT_T0_T1_T2_T3_EUlRNS0_7RuntimeEE_JSP_EESJ_St14__invoke_otherOSK_DpOT1_
   fun:_ZSt10__invoke_rIvRZN2tf24make_for_each_index_taskImmmZN4mpcf22MatrixIntegrateCpuTaskINS2_15OperationL1DistIffEENS2_21Tensor1dValueIteratorINS2_6TensorINS2_3PcfIffEEEEEEE9run_asyncERNS2_8ExecutorEEUlmE_NS0_17GuidedPartitionerINS0_21DefaultClosureWrapperEEEEEDaT_T0_T1_T2_T3_EUlRNS0_7RuntimeEE_JSP_EENSt9enable_ifIX16is_invocable_r_vISJ_SK_DpT1_EESJ_E4typeEOSK_DpOST_
}
{
   <insert_a_suppression_name_here>
   Helgrind:Race
   fun:_ZNKSt10_HashtableINSt6thread2idESt4pairIKS1_PN2tf6WorkerEESaIS7_ENSt8__detail10_Select1stESt8equal_toIS1_ESt4hashIS1_ENS9_18_Mod_range_hashingENS9_20_Default_ranged_hashENS9_20_Prime_rehash_policyENS9_17_Hashtable_traitsILb0ELb0ELb1EEEE19_M_find_before_nodeEmRS3_m
   fun:_ZNKSt10_HashtableINSt6thread2idESt4pairIKS1_PN2tf6WorkerEESaIS7_ENSt8__detail10_Select1stESt8equal_toIS1_ESt4hashIS1_ENS9_18_Mod_range_hashingENS9_20_Default_ranged_hashENS9_20_Prime_rehash_policyENS9_17_Hashtable_traitsILb0ELb0ELb1EEEE12_M_find_nodeEmRS3_m
   fun:_ZNSt10_HashtableINSt6thread2idESt4pairIKS1_PN2tf6WorkerEESaIS7_ENSt8__detail10_Select1stESt8equal_toIS1_ESt4hashIS1_ENS9_18_Mod_range_hashingENS9_20_Default_ranged_hashENS9_20_Prime_rehash_policyENS9_17_Hashtable_traitsILb0ELb0ELb1EEEE4findERS3_
   fun:_ZNSt13unordered_mapINSt6thread2idEPN2tf6WorkerESt4hashIS1_ESt8equal_toIS1_ESaISt4pairIKS1_S4_EEE4findERSA_
   fun:_ZN2tf8Executor11this_workerEv
   fun:_ZN2tf8Executor20_schedule_async_taskIJRKiS3_NS_17DefaultTaskParamsERPNS_8TopologyERPNS_8NodeBaseEiSt15in_place_type_tINS_4Node5AsyncEERZZNS_24make_for_each_index_taskImmmZN4mpcf22MatrixIntegrateCpuTaskINSG_15OperationL1DistIffEENSG_21Tensor1dValueIteratorINSG_6TensorINSG_3PcfIffEEEEEEE9run_asyncERNSG_8ExecutorEEUlmE_NS_17GuidedPartitionerINS_21DefaultClosureWrapperEEEEEDaT_T0_T1_T2_T3_ENUlRNS_7RuntimeEE_clES13_EUlvE0_EEEvDpOT_
   fun:_ZN2tf8Executor13_silent_asyncINS_17DefaultTaskParamsERZZNS_24make_for_each_index_taskImmmZN4mpcf22MatrixIntegrateCpuTaskINS4_15OperationL1DistIffEENS4_21Tensor1dValueIteratorINS4_6TensorINS4_3PcfIffEEEEEEE9run_asyncERNS4_8ExecutorEEUlmE_NS_17GuidedPartitionerINS_21DefaultClosureWrapperEEEEEDaT_T0_T1_T2_T3_ENUlRNS_7RuntimeEE_clESR_EUlvE0_EEvOSL_OSM_PNS_8TopologyEPNS_8NodeBaseE
   fun:_ZN2tf7Runtime12silent_asyncINS_17DefaultTaskParamsERZZNS_24make_for_each_index_taskImmmZN4mpcf22MatrixIntegrateCpuTaskINS4_15OperationL1DistIffEENS4_21Tensor1dValueIteratorINS4_6TensorINS4_3PcfIffEEEEEEE9run_asyncERNS4_8ExecutorEEUlmE_NS_17GuidedPartitionerINS_21DefaultClosureWrapperEEEEEDaT_T0_T1_T2_T3_ENUlRS0_E_clESQ_EUlvE0_EEvOSL_OSM_
   fun:_ZN2tf7Runtime12silent_asyncIRZZNS_24make_for_each_index_taskImmmZN4mpcf22MatrixIntegrateCpuTaskINS3_15OperationL1DistIffEENS3_21Tensor1dValueIteratorINS3_6TensorINS3_3PcfIffEEEEEEE9run_asyncERNS3_8ExecutorEEUlmE_NS_17GuidedPartitionerINS_21DefaultClosureWrapperEEEEEDaT_T0_T1_T2_T3_ENUlRS0_E_clESP_EUlvE0_EEvOSK_
   fun:_ZZN2tf24make_for_each_index_taskImmmZN4mpcf22MatrixIntegrateCpuTaskINS1_15OperationL1DistIffEENS1_21Tensor1dValueIteratorINS1_6TensorINS1_3PcfIffEEEEEEE9run_asyncERNS1_8ExecutorEEUlmE_NS_17GuidedPartitionerINS_21DefaultClosureWrapperEEEEEDaT_T0_T1_T2_T3_ENUlRNS_7RuntimeEE_clESO_
   fun:_ZSt13__invoke_implIvRZN2tf24make_for_each_index_taskImmmZN4mpcf22MatrixIntegrateCpuTaskINS2_15OperationL1DistIffEENS2_21Tensor1dValueIteratorINS2_6TensorINS2_3PcfIffEEEEEEE9run_asyncERNS2_8ExecutorEEUlmE_NS0_17GuidedPartitionerINS0_21DefaultClosureWrapperEEEEEDaT_T0_T1_T2_T3_EUlRNS0_7RuntimeEE_JSP_EESJ_St14__invoke_otherOSK_DpOT1_
   fun:_ZSt10__invoke_rIvRZN2tf24make_for_each_index_taskImmmZN4mpcf22MatrixIntegrateCpuTaskINS2_15OperationL1DistIffEENS2_21Tensor1dValueIteratorINS2_6TensorINS2_3PcfIffEEEEEEE9run_asyncERNS2_8ExecutorEEUlmE_NS0_17GuidedPartitionerINS0_21DefaultClosureWrapperEEEEEDaT_T0_T1_T2_T3_EUlRNS0_7RuntimeEE_JSP_EENSt9enable_ifIX16is_invocable_r_vISJ_SK_DpT1_EESJ_E4typeEOSK_DpOST_
}
{
   <insert_a_suppression_name_here>
   Helgrind:Race
   fun:_ZNKSt10_HashtableINSt6thread2idESt4pairIKS1_PN2tf6WorkerEESaIS7_ENSt8__detail10_Select1stESt8equal_toIS1_ESt4hashIS1_ENS9_18_Mod_range_hashingENS9_20_Default_ranged_hashENS9_20_Prime_rehash_policyENS9_17_Hashtable_traitsILb0ELb0ELb1EEEE19_M_find_before_nodeEmRS3_m
   fun:_ZNKSt10_HashtableINSt6thread2idESt4pairIKS1_PN2tf6WorkerEESaIS7_ENSt8__detail10_Select1stESt8equal_toIS1_ESt4hashIS1_ENS9_18_Mod_range_hashingENS9_20_Default_ranged_hashENS9_20_Prime_rehash_policyENS9_17_Hashtable_traitsILb0ELb0ELb1EEEE12_M_find_nodeEmRS3_m
   fun:_ZNSt10_HashtableINSt6thread2idESt4pairIKS1_PN2tf6WorkerEESaIS7_ENSt8__detail10_Select1stESt8equal_toIS1_ESt4hashIS1_ENS9_18_Mod_range_hashingENS9_20_Default_ranged_hashENS9_20_Prime_rehash_policyENS9_17_Hashtable_traitsILb0ELb0ELb1EEEE4findERS3_
   fun:_ZNSt13unordered_mapINSt6thread2idEPN2tf6WorkerESt4hashIS1_ESt8equal_toIS1_ESaISt4pairIKS1_S4_EEE4findERSA_
   fun:_ZN2tf8Executor11this_workerEv
   fun:_ZN2tf8Executor20_schedule_async_taskIJRKiS3_NS_17DefaultTaskParamsERPNS_8TopologyERPNS_8NodeBaseEiSt15in_place_type_tINS_4Node5AsyncEERZZNS_24make_for_each_index_taskImmmZN4mpcf22MatrixIntegrateCpuTaskINSG_15OperationL1DistIffEENSG_21Tensor1dValueIteratorINSG_6TensorINSG_3PcfIffEEEEEEE9run_asyncERNSG_8ExecutorEEUlmE_NS_17GuidedPartitionerINS_21DefaultClosureWrapperEEEEEDaT_T0_T1_T2_T3_ENUlRNS_7RuntimeEE_clES13_EUlvE0_EEEvDpOT_
   fun:_ZN2tf8Executor13_silent_asyncINS_17DefaultTaskParamsERZZNS_24make_for_each_index_taskImmmZN4mpcf22MatrixIntegrateCpuTaskINS4_15OperationL1DistIffEENS4_21Tensor1dValueIteratorINS4_6TensorINS4_3PcfIffEEEEEEE9run_asyncERNS4_8ExecutorEEUlmE_NS_17GuidedPartitionerINS_21DefaultClosureWrapperEEEEEDaT_T0_T1_T2_T3_ENUlRNS_7RuntimeEE_clESR_EUlvE0_EEvOSL_OSM_PNS_8TopologyEPNS_8NodeBaseE
   fun:_ZN2tf7Runtime12silent_asyncINS_17DefaultTaskParamsERZZNS_24make_for_each_index_taskImmmZN4mpcf22MatrixIntegrateCpuTaskINS4_15OperationL1DistIffEENS4_21Tensor1dValueIteratorINS4_6TensorINS4_3PcfIffEEEEEEE9run_asyncERNS4_8ExecutorEEUlmE_NS_17GuidedPartitionerINS_21DefaultClosureWrapperEEEEEDaT_T0_T1_T2_T3_ENUlRS0_E_clESQ_EUlvE0_EEvOSL_OSM_
   fun:_ZN2tf7Runtime12silent_asyncIRZZNS_24make_for_each_index_taskImmmZN4mpcf22MatrixIntegrateCpuTaskINS3_15OperationL1DistIffEENS3_21Tensor1dValueIteratorINS3_6TensorINS3_3PcfIffEEEEEEE9run_asyncERNS3_8ExecutorEEUlmE_NS_17GuidedPartitionerINS_21DefaultClosureWrapperEEEEEDaT_T0_T1_T2_T3_ENUlRS0_E_clESP_EUlvE0_EEvOSK_
   fun:_ZZN2tf24make_for_each_index_taskImmmZN4mpcf22MatrixIntegrateCpuTaskINS1_15OperationL1DistIffEENS1_21Tensor1dValueIteratorINS1_6TensorINS1_3PcfIffEEEEEEE9run_asyncERNS1_8ExecutorEEUlmE_NS_17GuidedPartitionerINS_21DefaultClosureWrapperEEEEEDaT_T0_T1_T2_T3_ENUlRNS_7RuntimeEE_clESO_
   fun:_ZSt13__invoke_implIvRZN2tf24make_for_each_index_taskImmmZN4mpcf22MatrixIntegrateCpuTaskINS2_15OperationL1DistIffEENS2_21Tensor1dValueIteratorINS2_6TensorINS2_3PcfIffEEEEEEE9run_asyncERNS2_8ExecutorEEUlmE_NS0_17GuidedPartitionerINS0_21DefaultClosureWrapperEEEEEDaT_T0_T1_T2_T3_EUlRNS0_7RuntimeEE_JSP_EESJ_St14__invoke_otherOSK_DpOT1_
   fun:_ZSt10__invoke_rIvRZN2tf24make_for_each_index_taskImmmZN4mpcf22MatrixIntegrateCpuTaskINS2_15OperationL1DistIffEENS2_21Tensor1dValueIteratorINS2_6TensorINS2_3PcfIffEEEEEEE9run_asyncERNS2_8ExecutorEEUlmE_NS0_17GuidedPartitionerINS0_21DefaultClosureWrapperEEEEEDaT_T0_T1_T2_T3_EUlRNS0_7RuntimeEE_JSP_EENSt9enable_ifIX16is_invocable_r_vISJ_SK_DpT1_EESJ_E4typeEOSK_DpOST_
}
{
   <insert_a_suppression_name_here>
   Helgrind:Race
   fun:_ZNKSt8equal_toINSt6thread2idEEclERKS1_S4_
   fun:_ZNKSt8__detail15_Hashtable_baseINSt6thread2idESt4pairIKS2_PN2tf6WorkerEENS_10_Select1stESt8equal_toIS2_ESt4hashIS2_ENS_18_Mod_range_hashingENS_20_Default_ranged_hashENS_17_Hashtable_traitsILb0ELb0ELb1EEEE13_M_key_equalsERS4_RKNS_16_Hash_node_valueIS8_Lb0EEE
   fun:_ZNKSt8__detail15_Hashtable_baseINSt6thread2idESt4pairIKS2_PN2tf6WorkerEENS_10_Select1stESt8equal_toIS2_ESt4hashIS2_ENS_18_Mod_range_hashingENS_20_Default_ranged_hashENS_17_Hashtable_traitsILb0ELb0ELb1EEEE9_M_equalsERS4_mRKNS_16_Hash_node_valueIS8_Lb0EEE
   fun:_ZNKSt10_HashtableINSt6thread2idESt4pairIKS1_PN2tf6WorkerEESaIS7_ENSt8__detail10_Select1stESt8equal_toIS1_ESt4hashIS1_ENS9_18_Mod_range_hashingENS9_20_Default_ranged_hashENS9_20_Prime_rehash_policyENS9_17_Hashtable_traitsILb0ELb0ELb1EEEE19_M_find_before_nodeEmRS3_m
   fun:_ZNKSt10_HashtableINSt6thread2idESt4pairIKS1_PN2tf6WorkerEESaIS7_ENSt8__detail10_Select1stESt8equal_toIS1_ESt4hashIS1_ENS9_18_Mod_range_hashingENS9_20_Default_ranged_hashENS9_20_Prime_rehash_policyENS9_17_Hashtable_traitsILb0ELb0ELb1EEEE12_M_find_nodeEmRS3_m
   fun:_ZNSt10_HashtableINSt6thread2idESt4pairIKS1_PN2tf6WorkerEESaIS7_ENSt8__detail10_Select1stESt8equal_toIS1_ESt4hashIS1_ENS9_18_Mod_range_hashingENS9_20_Default_ranged_hashENS9_20_Prime_rehash_policyENS9_17_Hashtable_traitsILb0ELb0ELb1EEEE4findERS3_
   fun:_ZNSt13unordered_mapINSt6thread2idEPN2tf6WorkerESt4hashIS1_ESt8equal_toIS1_ESaISt4pairIKS1_S4_EEE4findERSA_
   fun:_ZN2tf8Executor11this_workerEv
   fun:_ZN2tf8Executor20_schedule_async_taskIJRKiS3_NS_17DefaultTaskParamsERPNS_8TopologyERPNS_8NodeBaseEiSt15in_place_type_tINS_4Node5AsyncEERZZNS_24make_for_each_index_taskImmmZN4mpcf22MatrixIntegrateCpuTaskINSG_15OperationL1DistIffEENSG_21Tensor1dValueIteratorINSG_6TensorINSG_3PcfIffEEEEEEE9run_asyncERNSG_8ExecutorEEUlmE_NS_17GuidedPartitionerINS_21DefaultClosureWrapperEEEEEDaT_T0_T1_T2_T3_ENUlRNS_7RuntimeEE_clES13_EUlvE0_EEEvDpOT_
   fun:_ZN2tf8Executor13_silent_asyncINS_17DefaultTaskParamsERZZNS_24make_for_each_index_taskImmmZN4mpcf22MatrixIntegrateCpuTaskINS4_15OperationL1DistIffEENS4_21Tensor1dValueIteratorINS4_6TensorINS4_3PcfIffEEEEEEE9run_asyncERNS4_8ExecutorEEUlmE_NS_17GuidedPartitionerINS_21DefaultClosureWrapperEEEEEDaT_T0_T1_T2_T3_ENUlRNS_7RuntimeEE_clESR_EUlvE0_EEvOSL_OSM_PNS_8TopologyEPNS_8NodeBaseE
   fun:_ZN2tf7Runtime12silent_asyncINS_17DefaultTaskParamsERZZNS_24make_for_each_index_taskImmmZN4mpcf22MatrixIntegrateCpuTaskINS4_15OperationL1DistIffEENS4_21Tensor1dValueIteratorINS4_6TensorINS4_3PcfIffEEEEEEE9run_asyncERNS4_8ExecutorEEUlmE_NS_17GuidedPartitionerINS_21DefaultClosureWrapperEEEEEDaT_T0_T1_T2_T3_ENUlRS0_E_clESQ_EUlvE0_EEvOSL_OSM_
   fun:_ZN2tf7Runtime12silent_asyncIRZZNS_24make_for_each_index_taskImmmZN4mpcf22MatrixIntegrateCpuTaskINS3_15OperationL1DistIffEENS3_21Tensor1dValueIteratorINS3_6TensorINS3_3PcfIffEEEEEEE9run_asyncERNS3_8ExecutorEEUlmE_NS_17GuidedPartitionerINS_21DefaultClosureWrapperEEEEEDaT_T0_T1_T2_T3_ENUlRS0_E_clESP_EUlvE0_EEvOSK_
}
{
   <insert_a_suppression_name_here>
   Helgrind:Race
   fun:_ZNKSt10_HashtableINSt6thread2idESt4pairIKS1_PN2tf6WorkerEESaIS7_ENSt8__detail10_Select1stESt8equal_toIS1_ESt4hashIS1_ENS9_18_Mod_range_hashingENS9_20_Default_ranged_hashENS9_20_Prime_rehash_policyENS9_17_Hashtable_traitsILb0ELb0ELb1EEEE19_M_find_before_nodeEmRS3_m
   fun:_ZNKSt10_HashtableINSt6thread2idESt4pairIKS1_PN2tf6WorkerEESaIS7_ENSt8__detail10_Select1stESt8equal_toIS1_ESt4hashIS1_ENS9_18_Mod_range_hashingENS9_20_Default_ranged_hashENS9_20_Prime_rehash_policyENS9_17_Hashtable_traitsILb0ELb0ELb1EEEE12_M_find_nodeEmRS3_m
   fun:_ZNSt10_HashtableINSt6thread2idESt4pairIKS1_PN2tf6WorkerEESaIS7_ENSt8__detail10_Select1stESt8equal_toIS1_ESt4hashIS1_ENS9_18_Mod_range_hashingENS9_20_Default_ranged_hashENS9_20_Prime_rehash_policyENS9_17_Hashtable_traitsILb0ELb0ELb1EEEE4findERS3_
   fun:_ZNSt13unordered_mapINSt6thread2idEPN2tf6WorkerESt4hashIS1_ESt8equal_toIS1_ESaISt4pairIKS1_S4_EEE4findERSA_
   fun:_ZN2tf8Executor11this_workerEv
   fun:_ZN2tf8Executor20_schedule_async_taskIJRKiS3_NS_17DefaultTaskParamsERPNS_8TopologyERPNS_8NodeBaseEiSt15in_place_type_tINS_4Node5AsyncEERZZNS_24make_for_each_index_taskImmmZN4mpcf22MatrixIntegrateCpuTaskINSG_15OperationL1DistIffEENSG_21Tensor1dValueIteratorINSG_6TensorINSG_3PcfIffEEEEEEE9run_asyncERNSG_8ExecutorEEUlmE_NS_17GuidedPartitionerINS_21DefaultClosureWrapperEEEEEDaT_T0_T1_T2_T3_ENUlRNS_7RuntimeEE_clES13_EUlvE0_EEEvDpOT_
   fun:_ZN2tf8Executor13_silent_asyncINS_17DefaultTaskParamsERZZNS_24make_for_each_index_taskImmmZN4mpcf22MatrixIntegrateCpuTaskINS4_15OperationL1DistIffEENS4_21Tensor1dValueIteratorINS4_6TensorINS4_3PcfIffEEEEEEE9run_asyncERNS4_8ExecutorEEUlmE_NS_17GuidedPartitionerINS_21DefaultClosureWrapperEEEEEDaT_T0_T1_T2_T3_ENUlRNS_7RuntimeEE_clESR_EUlvE0_EEvOSL_OSM_PNS_8TopologyEPNS_8NodeBaseE
   fun:_ZN2tf7Runtime12silent_asyncINS_17DefaultTaskParamsERZZNS_24make_for_each_index_taskImmmZN4mpcf22MatrixIntegrateCpuTaskINS4_15OperationL1DistIffEENS4_21Tensor1dValueIteratorINS4_6TensorINS4_3PcfIffEEEEEEE9run_asyncERNS4_8ExecutorEEUlmE_NS_17GuidedPartitionerINS_21DefaultClosureWrapperEEEEEDaT_T0_T1_T2_T3_ENUlRS0_E_clESQ_EUlvE0_EEvOSL_OSM_
   fun:_ZN2tf7Runtime12silent_asyncIRZZNS_24make_for_each_index_taskImmmZN4mpcf22MatrixIntegrateCpuTaskINS3_15OperationL1DistIffEENS3_21Tensor1dValueIteratorINS3_6TensorINS3_3PcfIffEEEEEEE9run_asyncERNS3_8ExecutorEEUlmE_NS_17GuidedPartitionerINS_21DefaultClosureWrapperEEEEEDaT_T0_T1_T2_T3_ENUlRS0_E_clESP_EUlvE0_EEvOSK_
   fun:_ZZN2tf24make_for_each_index_taskImmmZN4mpcf22MatrixIntegrateCpuTaskINS1_15OperationL1DistIffEENS1_21Tensor1dValueIteratorINS1_6TensorINS1_3PcfIffEEEEEEE9run_asyncERNS1_8ExecutorEEUlmE_NS_17GuidedPartitionerINS_21DefaultClosureWrapperEEEEEDaT_T0_T1_T2_T3_ENUlRNS_7RuntimeEE_clESO_
   fun:_ZSt13__invoke_implIvRZN2tf24make_for_each_index_taskImmmZN4mpcf22MatrixIntegrateCpuTaskINS2_15OperationL1DistIffEENS2_21Tensor1dValueIteratorINS2_6TensorINS2_3PcfIffEEEEEEE9run_asyncERNS2_8ExecutorEEUlmE_NS0_17GuidedPartitionerINS0_21DefaultClosureWrapperEEEEEDaT_T0_T1_T2_T3_EUlRNS0_7RuntimeEE_JSP_EESJ_St14__invoke_otherOSK_DpOT1_
   fun:_ZSt10__invoke_rIvRZN2tf24make_for_each_index_taskImmmZN4mpcf22MatrixIntegrateCpuTaskINS2_15OperationL1DistIffEENS2_21Tensor1dValueIteratorINS2_6TensorINS2_3PcfIffEEEEEEE9run_asyncERNS2_8ExecutorEEUlmE_NS0_17GuidedPartitionerINS0_21DefaultClosureWrapperEEEEEDaT_T0_T1_T2_T3_EUlRNS0_7RuntimeEE_JSP_EENSt9enable_ifIX16is_invocable_r_vISJ_SK_DpT1_EESJ_E4typeEOSK_DpOST_
}
{
   <insert_a_suppression_name_here>
   Helgrind:Race
   fun:_ZSt11_Hash_bytesPKvmm
   fun:_ZNSt10_Hash_impl4hashEPKvmm
   fun:_ZNSt10_Hash_impl4hashImEEmRKT_
   fun:_ZNKSt4hashINSt6thread2idEEclERKS1_
   fun:_ZNKSt8__detail15_Hash_code_baseINSt6thread2idESt4pairIKS2_PN2tf6WorkerEENS_10_Select1stESt4hashIS2_ENS_18_Mod_range_hashingENS_20_Default_ranged_hashELb0EE12_M_hash_codeERS4_
   fun:_ZNKSt8__detail15_Hash_code_baseINSt6thread2idESt4pairIKS2_PN2tf6WorkerEENS_10_Select1stESt4hashIS2_ENS_18_Mod_range_hashingENS_20_Default_ranged_hashELb0EE15_M_bucket_indexERKNS_16_Hash_node_valueIS8_Lb0EEEm
   fun:_ZNKSt10_HashtableINSt6thread2idESt4pairIKS1_PN2tf6WorkerEESaIS7_ENSt8__detail10_Select1stESt8equal_toIS1_ESt4hashIS1_ENS9_18_Mod_range_hashingENS9_20_Default_ranged_hashENS9_20_Prime_rehash_policyENS9_17_Hashtable_traitsILb0ELb0ELb1EEEE15_M_bucket_indexERKNS9_16_Hash_node_valueIS7_Lb0EEE
   fun:_ZNKSt10_HashtableINSt6thread2idESt4pairIKS1_PN2tf6WorkerEESaIS7_ENSt8__detail10_Select1stESt8equal_toIS1_ESt4hashIS1_ENS9_18_Mod_range_hashingENS9_20_Default_ranged_hashENS9_20_Prime_rehash_policyENS9_17_Hashtable_traitsILb0ELb0ELb1EEEE19_M_find_before_nodeEmRS3_m
   fun:_ZNKSt10_HashtableINSt6thread2idESt4pairIKS1_PN2tf6WorkerEESaIS7_ENSt8__detail10_Select1stESt8equal_toIS1_ESt4hashIS1_ENS9_18_Mod_range_hashingENS9_20_Default_ranged_hashENS9_20_Prime_rehash_policyENS9_17_Hashtable_traitsILb0ELb0ELb1EEEE12_M_find_nodeEmRS3_m
   fun:_ZNSt10_HashtableINSt6thread2idESt4pairIKS1_PN2tf6WorkerEESaIS7_ENSt8__detail10_Select1stESt8equal_toIS1_ESt4hashIS1_ENS9_18_Mod_range_hashingENS9_20_Default_ranged_hashENS9_20_Prime_rehash_policyENS9_17_Hashtable_traitsILb0ELb0ELb1EEEE4findERS3_
   fun:_ZNSt13unordered_mapINSt6thread2idEPN2tf6WorkerESt4hashIS1_ESt8equal_toIS1_ESaISt4pairIKS1_S4_EEE4findERSA_
   fun:_ZN2tf8Executor11this_workerEv
}
{
   <insert_a_suppression_name_here>
   Helgrind:Race
   fun:_ZN2tf8Executor11this_workerEv
   fun:_ZN2tf8Executor20_schedule_async_taskIJRKiS3_NS_17DefaultTaskParamsERPNS_8TopologyERPNS_8NodeBaseEiSt15in_place_type_tINS_4Node5AsyncEERZZNS_24make_for_each_index_taskImmmZN4mpcf22MatrixIntegrateCpuTaskINSG_15OperationL1DistIffEENSG_21Tensor1dValueIteratorINSG_6TensorINSG_3PcfIffEEEEEEE9run_asyncERNSG_8ExecutorEEUlmE_NS_17GuidedPartitionerINS_21DefaultClosureWrapperEEEEEDaT_T0_T1_T2_T3_ENUlRNS_7RuntimeEE_clES13_EUlvE0_EEEvDpOT_
   fun:_ZN2tf8Executor13_silent_asyncINS_17DefaultTaskParamsERZZNS_24make_for_each_index_taskImmmZN4mpcf22MatrixIntegrateCpuTaskINS4_15OperationL1DistIffEENS4_21Tensor1dValueIteratorINS4_6TensorINS4_3PcfIffEEEEEEE9run_asyncERNS4_8ExecutorEEUlmE_NS_17GuidedPartitionerINS_21DefaultClosureWrapperEEEEEDaT_T0_T1_T2_T3_ENUlRNS_7RuntimeEE_clESR_EUlvE0_EEvOSL_OSM_PNS_8TopologyEPNS_8NodeBaseE
   fun:_ZN2tf7Runtime12silent_asyncINS_17DefaultTaskParamsERZZNS_24make_for_each_index_taskImmmZN4mpcf22MatrixIntegrateCpuTaskINS4_15OperationL1DistIffEENS4_21Tensor1dValueIteratorINS4_6TensorINS4_3PcfIffEEEEEEE9run_asyncERNS4_8ExecutorEEUlmE_NS_17GuidedPartitionerINS_21DefaultClosureWrapperEEEEEDaT_T0_T1_T2_T3_ENUlRS0_E_clESQ_EUlvE0_EEvOSL_OSM_
   fun:_ZN2tf7Runtime12silent_asyncIRZZNS_24make_for_each_index_taskImmmZN4mpcf22MatrixIntegrateCpuTaskINS3_15OperationL1DistIffEENS3_21Tensor1dValueIteratorINS3_6TensorINS3_3PcfIffEEEEEEE9run_asyncERNS3_8ExecutorEEUlmE_NS_17GuidedPartitionerINS_21DefaultClosureWrapperEEEEEDaT_T0_T1_T2_T3_ENUlRS0_E_clESP_EUlvE0_EEvOSK_
   fun:_ZZN2tf24make_for_each_index_taskImmmZN4mpcf22MatrixIntegrateCpuTaskINS1_15OperationL1DistIffEENS1_21Tensor1dValueIteratorINS1_6TensorINS1_3PcfIffEEEEEEE9run_asyncERNS1_8ExecutorEEUlmE_NS_17GuidedPartitionerINS_21DefaultClosureWrapperEEEEEDaT_T0_T1_T2_T3_ENUlRNS_7RuntimeEE_clESO_
   fun:_ZSt13__invoke_implIvRZN2tf24make_for_each_index_taskImmmZN4mpcf22MatrixIntegrateCpuTaskINS2_15OperationL1DistIffEENS2_21Tensor1dValueIteratorINS2_6TensorINS2_3PcfIffEEEEEEE9run_asyncERNS2_8ExecutorEEUlmE_NS0_17GuidedPartitionerINS0_21DefaultClosureWrapperEEEEEDaT_T0_T1_T2_T3_EUlRNS0_7RuntimeEE_JSP_EESJ_St14__invoke_otherOSK_DpOT1_
   fun:_ZSt10__invoke_rIvRZN2tf24make_for_each_index_taskImmmZN4mpcf22MatrixIntegrateCpuTaskINS2_15OperationL1DistIffEENS2_21Tensor1dValueIteratorINS2_6TensorINS2_3PcfIffEEEEEEE9run_asyncERNS2_8ExecutorEEUlmE_NS0_17GuidedPartitionerINS0_21DefaultClosureWrapperEEEEEDaT_T0_T1_T2_T3_EUlRNS0_7RuntimeEE_JSP_EENSt9enable_ifIX16is_invocable_r_vISJ_SK_DpT1_EESJ_E4typeEOSK_DpOST_
   fun:_ZNSt17_Function_handlerIFvRN2tf7RuntimeEEZNS0_24make_for_each_index_taskImmmZN4mpcf22MatrixIntegrateCpuTaskINS5_15OperationL1DistIffEENS5_21Tensor1dValueIteratorINS5_6TensorINS5_3PcfIffEEEEEEE9run_asyncERNS5_8ExecutorEEUlmE_NS0_17GuidedPartitionerINS0_21DefaultClosureWrapperEEEEEDaT_T0_T1_T2_T3_EUlS2_E_E9_M_invokeERKSt9_Any_dataS2_
   fun:_ZNKSt8functionIFvRN2tf7RuntimeEEEclES2_
   fun:_ZN2tf8Executor25_invoke_runtime_task_implERNS_6WorkerEPNS_4NodeERSt8functionIFvRNS_7RuntimeEEE
   fun:_ZN2tf8Executor20_invoke_runtime_taskERNS_6WorkerEPNS_4NodeE
}
{
   <insert_a_suppression_name_here>
   Helgrind:Race
   fun:load
   fun:_ZNK2tf4Node20_is_parent_cancelledEv
   fun:_ZN2tf8Executor7_invokeERNS_6WorkerEPNS_4NodeE
   fun:_ZN2tf8Executor13_exploit_taskERNS_6WorkerERPNS_4NodeE
   fun:_ZZN2tf8Executor6_spawnEmSt10shared_ptrINS_15WorkerInterfaceEEENKUlvE_clEv
   fun:_ZSt13__invoke_implIvZN2tf8Executor6_spawnEmSt10shared_ptrINS0_15WorkerInterfaceEEEUlvE_JEET_St14__invoke_otherOT0_DpOT1_
   fun:_ZSt8__invokeIZN2tf8Executor6_spawnEmSt10shared_ptrINS0_15WorkerInterfaceEEEUlvE_JEENSt15__invoke_resultIT_JDpT0_EE4typeEOS7_DpOS8_
   fun:_ZNSt6thread8_InvokerISt5tupleIJZN2tf8Executor6_spawnEmSt10shared_ptrINS2_15WorkerInterfaceEEEUlvE_EEE9_M_invokeIJLm0EEEEvSt12_Index_tupleIJXspT_EEE
   fun:_ZNSt6thread8_InvokerISt5tupleIJZN2tf8Executor6_spawnEmSt10shared_ptrINS2_15WorkerInterfaceEEEUlvE_EEEclEv
   fun:_ZNSt6thread11_State_implINS_8_InvokerISt5tupleIJZN2tf8Executor6_spawnEmSt10shared_ptrINS3_15WorkerInterfaceEEEUlvE_EEEEE6_M_runEv
   obj:/usr/lib/x86_64-linux-gnu/libstdc++.so.6.0.33
   obj:/usr/libexec/valgrind/vgpreload_helgrind-amd64-linux.so
   fun:start_thread
}
{
   <insert_a_suppression_name_here>
   Helgrind:Race
   fun:_ZNKSt8functionIFvvEEclEv
   fun:_ZN2tf8Executor18_invoke_async_taskERNS_6WorkerEPNS_4NodeE
   fun:_ZN2tf8Executor7_invokeERNS_6WorkerEPNS_4NodeE
   fun:_ZN2tf8Executor13_exploit_taskERNS_6WorkerERPNS_4NodeE
   fun:_ZZN2tf8Executor6_spawnEmSt10shared_ptrINS_15WorkerInterfaceEEENKUlvE_clEv
   fun:_ZSt13__invoke_implIvZN2tf8Executor6_spawnEmSt10shared_ptrINS0_15WorkerInterfaceEEEUlvE_JEET_St14__invoke_otherOT0_DpOT1_
   fun:_ZSt8__invokeIZN2tf8Executor6_spawnEmSt10shared_ptrINS0_15WorkerInterfaceEEEUlvE_JEENSt15__invoke_resultIT_JDpT0_EE4typeEOS7_DpOS8_
   fun:_ZNSt6thread8_InvokerISt5tupleIJZN2tf8Executor6_spawnEmSt10shared_ptrINS2_15WorkerInterfaceEEEUlvE_EEE9_M_invokeIJLm0EEEEvSt12_Index_tupleIJXspT_EEE
   fun:_ZNSt6thread8_InvokerISt5tupleIJZN2tf8Executor6_spawnEmSt10shared_ptrINS2_15WorkerInterfaceEEEUlvE_EEEclEv
   fun:_ZNSt6thread11_State_implINS_8_InvokerISt5tupleIJZN2tf8Executor6_spawnEmSt10shared_ptrINS3_15WorkerInterfaceEEEUlvE_EEEEE6_M_runEv
   obj:/usr/lib/x86_64-linux-gnu/libstdc++.so.6.0.33
   obj:/usr/libexec/valgrind/vgpreload_helgrind-amd64-linux.so
}
{
   <insert_a_suppression_name_here>
   Helgrind:Race
   fun:_ZNSt14_Function_base13_Base_managerIZZN2tf24make_for_each_index_taskImmmZN4mpcf22MatrixIntegrateCpuTaskINS3_15OperationL1DistIffEENS3_21Tensor1dValueIteratorINS3_6TensorINS3_3PcfIffEEEEEEE9run_asyncERNS3_8ExecutorEEUlmE_NS1_17GuidedPartitionerINS1_21DefaultClosureWrapperEEEEEDaT_T0_T1_T2_T3_ENUlRNS1_7RuntimeEE_clESQ_EUlvE0_E14_M_get_pointerERKSt9_Any_data
   fun:_ZNSt17_Function_handlerIFvvEZZN2tf24make_for_each_index_taskImmmZN4mpcf22MatrixIntegrateCpuTaskINS3_15OperationL1DistIffEENS3_21Tensor1dValueIteratorINS3_6TensorINS3_3PcfIffEEEEEEE9run_asyncERNS3_8ExecutorEEUlmE_NS1_17GuidedPartitionerINS1_21DefaultClosureWrapperEEEEEDaT_T0_T1_T2_T3_ENUlRNS1_7RuntimeEE_clESQ_EUlvE0_E9_M_invokeERKSt9_Any_data
   fun:_ZNKSt8functionIFvvEEclEv
   fun:_ZN2tf8Executor18_invoke_async_taskERNS_6WorkerEPNS_4NodeE
   fun:_ZN2tf8Executor7_invokeERNS_6WorkerEPNS_4NodeE
   fun:_ZN2tf8Executor13_exploit_taskERNS_6WorkerERPNS_4NodeE
   fun:_ZZN2tf8Executor6_spawnEmSt10shared_ptrINS_15WorkerInterfaceEEENKUlvE_clEv
   fun:_ZSt13__invoke_implIvZN2tf8Executor6_spawnEmSt10shared_ptrINS0_15WorkerInterfaceEEEUlvE_JEET_St14__invoke_otherOT0_DpOT1_
   fun:_ZSt8__invokeIZN2tf8Executor6_spawnEmSt10shared_ptrINS0_15WorkerInterfaceEEEUlvE_JEENSt15__invoke_resultIT_JDpT0_EE4typeEOS7_DpOS8_
   fun:_ZNSt6thread8_InvokerISt5tupleIJZN2tf8Executor6_spawnEmSt10shared_ptrINS2_15WorkerInterfaceEEEUlvE_EEE9_M_invokeIJLm0EEEEvSt12_Index_tupleIJXspT_EEE
   fun:_ZNSt6thread8_InvokerISt5tupleIJZN2tf8Executor6_spawnEmSt10shared_ptrINS2_15WorkerInterfaceEEEUlvE_EEEclEv
   fun:_ZNSt6thread11_State_implINS_8_InvokerISt5tupleIJZN2tf8Executor6_spawnEmSt10shared_ptrINS3_15WorkerInterfaceEEEUlvE_EEEEE6_M_runEv
}
{
   <insert_a_suppression_name_here>
   Helgrind:Race
   fun:_ZZZN2tf24make_for_each_index_taskImmmZN4mpcf22MatrixIntegrateCpuTaskINS1_15OperationL1DistIffEENS1_21Tensor1dValueIteratorINS1_6TensorINS1_3PcfIffEEEEEEE9run_asyncERNS1_8ExecutorEEUlmE_NS_17GuidedPartitionerINS_21DefaultClosureWrapperEEEEEDaT_T0_T1_T2_T3_ENUlRNS_7RuntimeEE_clESO_ENUlvE0_clEv
   fun:_ZSt13__invoke_implIvRZZN2tf24make_for_each_index_taskImmmZN4mpcf22MatrixIntegrateCpuTaskINS2_15OperationL1DistIffEENS2_21Tensor1dValueIteratorINS2_6TensorINS2_3PcfIffEEEEEEE9run_asyncERNS2_8ExecutorEEUlmE_NS0_17GuidedPartitionerINS0_21DefaultClosureWrapperEEEEEDaT_T0_T1_T2_T3_ENUlRNS0_7RuntimeEE_clESP_EUlvE0_JEESJ_St14__invoke_otherOSK_DpOT1_
   fun:_ZSt10__invoke_rIvRZZN2tf24make_for_each_index_taskImmmZN4mpcf22MatrixIntegrateCpuTaskINS2_15OperationL1DistIffEENS2_21Tensor1dValueIteratorINS2_6TensorINS2_3PcfIffEEEEEEE9run_asyncERNS2_8ExecutorEEUlmE_NS0_17GuidedPartitionerINS0_21DefaultClosureWrapperEEEEEDaT_T0_T1_T2_T3_ENUlRNS0_7RuntimeEE_clESP_EUlvE0_JEENSt9enable_ifIX16is_invocable_r_vISJ_SK_DpT1_EESJ_E4typeEOSK_DpOSU_
   fun:_ZNSt17_Function_handlerIFvvEZZN2tf24make_for_each_index_taskImmmZN4mpcf22MatrixIntegrateCpuTaskINS3_15OperationL1DistIffEENS3_21Tensor1dValueIteratorINS3_6TensorINS3_3PcfIffEEEEEEE9run_asyncERNS3_8ExecutorEEUlmE_NS1_17GuidedPartitionerINS1_21DefaultClosureWrapperEEEEEDaT_T0_T1_T2_T3_ENUlRNS1_7RuntimeEE_clESQ_EUlvE0_E9_M_invokeERKSt9_Any_data
   fun:_ZNKSt8functionIFvvEEclEv
   fun:_ZN2tf8Executor18_invoke_async_taskERNS_6WorkerEPNS_4NodeE
   fun:_ZN2tf8Executor7_invokeERNS_6WorkerEPNS_4NodeE
   fun:_ZN2tf8Executor13_exploit_taskERNS_6WorkerERPNS_4NodeE
   fun:_ZZN2tf8Executor6_spawnEmSt10shared_ptrINS_15WorkerInterfaceEEENKUlvE_clEv
   fun:_ZSt13__invoke_implIvZN2tf8Executor6_spawnEmSt10shared_ptrINS0_15WorkerInterfaceEEEUlvE_JEET_St14__invoke_otherOT0_DpOT1_
   fun:_ZSt8__invokeIZN2tf8Executor6_spawnEmSt10shared_ptrINS0_15WorkerInterfaceEEEUlvE_JEENSt15__invoke_resultIT_JDpT0_EE4typeEOS7_DpOS8_
   fun:_ZNSt6thread8_InvokerISt5tupleIJZN2tf8Executor6_spawnEmSt10shared_ptrINS2_15WorkerInterfaceEEEUlvE_EEE9_M_invokeIJLm0EEEEvSt12_Index_tupleIJXspT_EEE
}
{
   <insert_a_suppression_name_here>
   Helgrind:Race
   fun:_ZZZN2tf24make_for_each_index_taskImmmZN4mpcf22MatrixIntegrateCpuTaskINS1_15OperationL1DistIffEENS1_21Tensor1dValueIteratorINS1_6TensorINS1_3PcfIffEEEEEEE9run_asyncERNS1_8ExecutorEEUlmE_NS_17GuidedPartitionerINS_21DefaultClosureWrapperEEEEEDaT_T0_T1_T2_T3_ENUlRNS_7RuntimeEE_clESO_ENUlvE0_clEv
   fun:_ZSt13__invoke_implIvRZZN2tf24make_for_each_index_taskImmmZN4mpcf22MatrixIntegrateCpuTaskINS2_15OperationL1DistIffEENS2_21Tensor1dValueIteratorINS2_6TensorINS2_3PcfIffEEEEEEE9run_asyncERNS2_8ExecutorEEUlmE_NS0_17GuidedPartitionerINS0_21DefaultClosureWrapperEEEEEDaT_T0_T1_T2_T3_ENUlRNS0_7RuntimeEE_clESP_EUlvE0_JEESJ_St14__invoke_otherOSK_DpOT1_
   fun:_ZSt10__invoke_rIvRZZN2tf24make_for_each_index_taskImmmZN4mpcf22MatrixIntegrateCpuTaskINS2_15OperationL1DistIffEENS2_21Tensor1dValueIteratorINS2_6TensorINS2_3PcfIffEEEEEEE9run_asyncERNS2_8ExecutorEEUlmE_NS0_17GuidedPartitionerINS0_21DefaultClosureWrapperEEEEEDaT_T0_T1_T2_T3_ENUlRNS0_7RuntimeEE_clESP_EUlvE0_JEENSt9enable_ifIX16is_invocable_r_vISJ_SK_DpT1_EESJ_E4typeEOSK_DpOSU_
   fun:_ZNSt17_Function_handlerIFvvEZZN2tf24make_for_each_index_taskImmmZN4mpcf22MatrixIntegrateCpuTaskINS3_15OperationL1DistIffEENS3_21Tensor1dValueIteratorINS3_6TensorINS3_3PcfIffEEEEEEE9run_asyncERNS3_8ExecutorEEUlmE_NS1_17GuidedPartitionerINS1_21DefaultClosureWrapperEEEEEDaT_T0_T1_T2_T3_ENUlRNS1_7RuntimeEE_clESQ_EUlvE0_E9_M_invokeERKSt9_Any_data
   fun:_ZNKSt8functionIFvvEEclEv
   fun:_ZN2tf8Executor18_invoke_async_taskERNS_6WorkerEPNS_4NodeE
   fun:_ZN2tf8Executor7_invokeERNS_6WorkerEPNS_4NodeE
   fun:_ZN2tf8Executor13_exploit_taskERNS_6WorkerERPNS_4NodeE
   fun:_ZZN2tf8Executor6_spawnEmSt10shared_ptrINS_15WorkerInterfaceEEENKUlvE_clEv
   fun:_ZSt13__invoke_implIvZN2tf8Executor6_spawnEmSt10shared_ptrINS0_15WorkerInterfaceEEEUlvE_JEET_St14__invoke_otherOT0_DpOT1_
   fun:_ZSt8__invokeIZN2tf8Executor6_spawnEmSt10shared_ptrINS0_15WorkerInterfaceEEEUlvE_JEENSt15__invoke_resultIT_JDpT0_EE4typeEOS7_DpOS8_
   fun:_ZNSt6thread8_InvokerISt5tupleIJZN2tf8Executor6_spawnEmSt10shared_ptrINS2_15WorkerInterfaceEEEUlvE_EEE9_M_invokeIJLm0EEEEvSt12_Index_tupleIJXspT_EEE
}
{
   <insert_a_suppression_name_here>
   Helgrind:Race
   fun:_ZZZN2tf24make_for_each_index_taskImmmZN4mpcf22MatrixIntegrateCpuTaskINS1_15OperationL1DistIffEENS1_21Tensor1dValueIteratorINS1_6TensorINS1_3PcfIffEEEEEEE9run_asyncERNS1_8ExecutorEEUlmE_NS_17GuidedPartitionerINS_21DefaultClosureWrapperEEEEEDaT_T0_T1_T2_T3_ENUlRNS_7RuntimeEE_clESO_ENUlvE0_clEv
   fun:_ZSt13__invoke_implIvRZZN2tf24make_for_each_index_taskImmmZN4mpcf22MatrixIntegrateCpuTaskINS2_15OperationL1DistIffEENS2_21Tensor1dValueIteratorINS2_6TensorINS2_3PcfIffEEEEEEE9run_asyncERNS2_8ExecutorEEUlmE_NS0_17GuidedPartitionerINS0_21DefaultClosureWrapperEEEEEDaT_T0_T1_T2_T3_ENUlRNS0_7RuntimeEE_clESP_EUlvE0_JEESJ_St14__invoke_otherOSK_DpOT1_
   fun:_ZSt10__invoke_rIvRZZN2tf24make_for_each_index_taskImmmZN4mpcf22MatrixIntegrateCpuTaskINS2_15OperationL1DistIffEENS2_21Tensor1dValueIteratorINS2_6TensorINS2_3PcfIffEEEEEEE9run_asyncERNS2_8ExecutorEEUlmE_NS0_17GuidedPartitionerINS0_21DefaultClosureWrapperEEEEEDaT_T0_T1_T2_T3_ENUlRNS0_7RuntimeEE_clESP_EUlvE0_JEENSt9enable_ifIX16is_invocable_r_vISJ_SK_DpT1_EESJ_E4typeEOSK_DpOSU_
   fun:_ZNSt17_Function_handlerIFvvEZZN2tf24make_for_each_index_taskImmmZN4mpcf22MatrixIntegrateCpuTaskINS3_15OperationL1DistIffEENS3_21Tensor1dValueIteratorINS3_6TensorINS3_3PcfIffEEEEEEE9run_asyncERNS3_8ExecutorEEUlmE_NS1_17GuidedPartitionerINS1_21DefaultClosureWrapperEEEEEDaT_T0_T1_T2_T3_ENUlRNS1_7RuntimeEE_clESQ_EUlvE0_E9_M_invokeERKSt9_Any_data
   fun:_ZNKSt8functionIFvvEEclEv
   fun:_ZN2tf8Executor18_invoke_async_taskERNS_6WorkerEPNS_4NodeE
   fun:_ZN2tf8Executor7_invokeERNS_6WorkerEPNS_4NodeE
   fun:_ZN2tf8Executor13_exploit_taskERNS_6WorkerERPNS_4NodeE
   fun:_ZZN2tf8Executor6_spawnEmSt10shared_ptrINS_15WorkerInterfaceEEENKUlvE_clEv
   fun:_ZSt13__invoke_implIvZN2tf8Executor6_spawnEmSt10shared_ptrINS0_15WorkerInterfaceEEEUlvE_JEET_St14__invoke_otherOT0_DpOT1_
   fun:_ZSt8__invokeIZN2tf8Executor6_spawnEmSt10shared_ptrINS0_15WorkerInterfaceEEEUlvE_JEENSt15__invoke_resultIT_JDpT0_EE4typeEOS7_DpOS8_
   fun:_ZNSt6thread8_InvokerISt5tupleIJZN2tf8Executor6_spawnEmSt10shared_ptrINS2_15WorkerInterfaceEEEUlvE_EEE9_M_invokeIJLm0EEEEvSt12_Index_tupleIJXspT_EEE
}
{
   <insert_a_suppression_name_here>
   Helgrind:Race
   fun:_ZNKSt12__shared_ptrISt6atomicImELN9__gnu_cxx12_Lock_policyE2EE3getEv
   fun:_ZNKSt19__shared_ptr_accessISt6atomicImELN9__gnu_cxx12_Lock_policyE2ELb0ELb0EE6_M_getEv
   fun:_ZNKSt19__shared_ptr_accessISt6atomicImELN9__gnu_cxx12_Lock_policyE2ELb0ELb0EEdeEv
   fun:_ZZZN2tf24make_for_each_index_taskImmmZN4mpcf22MatrixIntegrateCpuTaskINS1_15OperationL1DistIffEENS1_21Tensor1dValueIteratorINS1_6TensorINS1_3PcfIffEEEEEEE9run_asyncERNS1_8ExecutorEEUlmE_NS_17GuidedPartitionerINS_21DefaultClosureWrapperEEEEEDaT_T0_T1_T2_T3_ENUlRNS_7RuntimeEE_clESO_ENUlvE0_clEv
   fun:_ZSt13__invoke_implIvRZZN2tf24make_for_each_index_taskImmmZN4mpcf22MatrixIntegrateCpuTaskINS2_15OperationL1DistIffEENS2_21Tensor1dValueIteratorINS2_6TensorINS2_3PcfIffEEEEEEE9run_asyncERNS2_8ExecutorEEUlmE_NS0_17GuidedPartitionerINS0_21DefaultClosureWrapperEEEEEDaT_T0_T1_T2_T3_ENUlRNS0_7RuntimeEE_clESP_EUlvE0_JEESJ_St14__invoke_otherOSK_DpOT1_
   fun:_ZSt10__invoke_rIvRZZN2tf24make_for_each_index_taskImmmZN4mpcf22MatrixIntegrateCpuTaskINS2_15OperationL1DistIffEENS2_21Tensor1dValueIteratorINS2_6TensorINS2_3PcfIffEEEEEEE9run_asyncERNS2_8ExecutorEEUlmE_NS0_17GuidedPartitionerINS0_21DefaultClosureWrapperEEEEEDaT_T0_T1_T2_T3_ENUlRNS0_7RuntimeEE_clESP_EUlvE0_JEENSt9enable_ifIX16is_invocable_r_vISJ_SK_DpT1_EESJ_E4typeEOSK_DpOSU_
   fun:_ZNSt17_Function_handlerIFvvEZZN2tf24make_for_each_index_taskImmmZN4mpcf22MatrixIntegrateCpuTaskINS3_15OperationL1DistIffEENS3_21Tensor1dValueIteratorINS3_6TensorINS3_3PcfIffEEEEEEE9run_asyncERNS3_8ExecutorEEUlmE_NS1_17GuidedPartitionerINS1_21DefaultClosureWrapperEEEEEDaT_T0_T1_T2_T3_ENUlRNS1_7RuntimeEE_clESQ_EUlvE0_E9_M_invokeERKSt9_Any_data
   fun:_ZNKSt8functionIFvvEEclEv
   fun:_ZN2tf8Executor18_invoke_async_taskERNS_6WorkerEPNS_4NodeE
   fun:_ZN2tf8Executor7_invokeERNS_6WorkerEPNS_4NodeE
   fun:_ZN2tf8Executor13_exploit_taskERNS_6WorkerERPNS_4NodeE
   fun:_ZZN2tf8Executor6_spawnEmSt10shared_ptrINS_15WorkerInterfaceEEENKUlvE_clEv
}
{
   <insert_a_suppression_name_here>
   Helgrind:Race
   fun:_ZZZN2tf24make_for_each_index_taskImmmZN4mpcf22MatrixIntegrateCpuTaskINS1_15OperationL1DistIffEENS1_21Tensor1dValueIteratorINS1_6TensorINS1_3PcfIffEEEEEEE9run_asyncERNS1_8ExecutorEEUlmE_NS_17GuidedPartitionerINS_21DefaultClosureWrapperEEEEEDaT_T0_T1_T2_T3_ENUlRNS_7RuntimeEE_clESO_ENUlvE0_clEv
   fun:_ZSt13__invoke_implIvRZZN2tf24make_for_each_index_taskImmmZN4mpcf22MatrixIntegrateCpuTaskINS2_15OperationL1DistIffEENS2_21Tensor1dValueIteratorINS2_6TensorINS2_3PcfIffEEEEEEE9run_asyncERNS2_8ExecutorEEUlmE_NS0_17GuidedPartitionerINS0_21DefaultClosureWrapperEEEEEDaT_T0_T1_T2_T3_ENUlRNS0_7RuntimeEE_clESP_EUlvE0_JEESJ_St14__invoke_otherOSK_DpOT1_
   fun:_ZSt10__invoke_rIvRZZN2tf24make_for_each_index_taskImmmZN4mpcf22MatrixIntegrateCpuTaskINS2_15OperationL1DistIffEENS2_21Tensor1dValueIteratorINS2_6TensorINS2_3PcfIffEEEEEEE9run_asyncERNS2_8ExecutorEEUlmE_NS0_17GuidedPartitionerINS0_21DefaultClosureWrapperEEEEEDaT_T0_T1_T2_T3_ENUlRNS0_7RuntimeEE_clESP_EUlvE0_JEENSt9enable_ifIX16is_invocable_r_vISJ_SK_DpT1_EESJ_E4typeEOSK_DpOSU_
   fun:_ZNSt17_Function_handlerIFvvEZZN2tf24make_for_each_index_taskImmmZN4mpcf22MatrixIntegrateCpuTaskINS3_15OperationL1DistIffEENS3_21Tensor1dValueIteratorINS3_6TensorINS3_3PcfIffEEEEEEE9run_asyncERNS3_8ExecutorEEUlmE_NS1_17GuidedPartitionerINS1_21DefaultClosureWrapperEEEEEDaT_T0_T1_T2_T3_ENUlRNS1_7RuntimeEE_clESQ_EUlvE0_E9_M_invokeERKSt9_Any_data
   fun:_ZNKSt8functionIFvvEEclEv
   fun:_ZN2tf8Executor18_invoke_async_taskERNS_6WorkerEPNS_4NodeE
   fun:_ZN2tf8Executor7_invokeERNS_6WorkerEPNS_4NodeE
   fun:_ZN2tf8Executor13_exploit_taskERNS_6WorkerERPNS_4NodeE
   fun:_ZZN2tf8Executor6_spawnEmSt10shared_ptrINS_15WorkerInterfaceEEENKUlvE_clEv
   fun:_ZSt13__invoke_implIvZN2tf8Executor6_spawnEmSt10shared_ptrINS0_15WorkerInterfaceEEEUlvE_JEET_St14__invoke_otherOT0_DpOT1_
   fun:_ZSt8__invokeIZN2tf8Executor6_spawnEmSt10shared_ptrINS0_15WorkerInterfaceEEEUlvE_JEENSt15__invoke_resultIT_JDpT0_EE4typeEOS7_DpOS8_
   fun:_ZNSt6thread8_InvokerISt5tupleIJZN2tf8Executor6_spawnEmSt10shared_ptrINS2_15WorkerInterfaceEEEUlvE_EEE9_M_invokeIJLm0EEEEvSt12_Index_tupleIJXspT_EEE
}
{
   <insert_a_suppression_name_here>
   Helgrind:Race
   fun:_ZZZN2tf24make_for_each_index_taskImmmZN4mpcf22MatrixIntegrateCpuTaskINS1_15OperationL1DistIffEENS1_21Tensor1dValueIteratorINS1_6TensorINS1_3PcfIffEEEEEEE9run_asyncERNS1_8ExecutorEEUlmE_NS_17GuidedPartitionerINS_21DefaultClosureWrapperEEEEEDaT_T0_T1_T2_T3_ENUlRNS_7RuntimeEE_clESO_ENUlvE0_clEv
   fun:_ZSt13__invoke_implIvRZZN2tf24make_for_each_index_taskImmmZN4mpcf22MatrixIntegrateCpuTaskINS2_15OperationL1DistIffEENS2_21Tensor1dValueIteratorINS2_6TensorINS2_3PcfIffEEEEEEE9run_asyncERNS2_8ExecutorEEUlmE_NS0_17GuidedPartitionerINS0_21DefaultClosureWrapperEEEEEDaT_T0_T1_T2_T3_ENUlRNS0_7RuntimeEE_clESP_EUlvE0_JEESJ_St14__invoke_otherOSK_DpOT1_
   fun:_ZSt10__invoke_rIvRZZN2tf24make_for_each_index_taskImmmZN4mpcf22MatrixIntegrateCpuTaskINS2_15OperationL1DistIffEENS2_21Tensor1dValueIteratorINS2_6TensorINS2_3PcfIffEEEEEEE9run_asyncERNS2_8ExecutorEEUlmE_NS0_17GuidedPartitionerINS0_21DefaultClosureWrapperEEEEEDaT_T0_T1_T2_T3_ENUlRNS0_7RuntimeEE_clESP_EUlvE0_JEENSt9enable_ifIX16is_invocable_r_vISJ_SK_DpT1_EESJ_E4typeEOSK_DpOSU_
   fun:_ZNSt17_Function_handlerIFvvEZZN2tf24make_for_each_index_taskImmmZN4mpcf22MatrixIntegrateCpuTaskINS3_15OperationL1DistIffEENS3_21Tensor1dValueIteratorINS3_6TensorINS3_3PcfIffEEEEEEE9run_asyncERNS3_8ExecutorEEUlmE_NS1_17GuidedPartitionerINS1_21DefaultClosureWrapperEEEEEDaT_T0_T1_T2_T3_ENUlRNS1_7RuntimeEE_clESQ_EUlvE0_E9_M_invokeERKSt9_Any_data
   fun:_ZNKSt8functionIFvvEEclEv
   fun:_ZN2tf8Executor18_invoke_async_taskERNS_6WorkerEPNS_4NodeE
   fun:_ZN2tf8Executor7_invokeERNS_6WorkerEPNS_4NodeE
   fun:_ZN2tf8Executor13_exploit_taskERNS_6WorkerERPNS_4NodeE
   fun:_ZZN2tf8Executor6_spawnEmSt10shared_ptrINS_15WorkerInterfaceEEENKUlvE_clEv
   fun:_ZSt13__invoke_implIvZN2tf8Executor6_spawnEmSt10shared_ptrINS0_15WorkerInterfaceEEEUlvE_JEET_St14__invoke_otherOT0_DpOT1_
   fun:_ZSt8__invokeIZN2tf8Executor6_spawnEmSt10shared_ptrINS0_15WorkerInterfaceEEEUlvE_JEENSt15__invoke_resultIT_JDpT0_EE4typeEOS7_DpOS8_
   fun:_ZNSt6thread8_InvokerISt5tupleIJZN2tf8Executor6_spawnEmSt10shared_ptrINS2_15WorkerInterfaceEEEUlvE_EEE9_M_invokeIJLm0EEEEvSt12_Index_tupleIJXspT_EEE
}
{
   <insert_a_suppression_name_here>
   Helgrind:Race
   fun:_ZNK2tf17GuidedPartitionerINS_21DefaultClosureWrapperEE4loopIZZZNS_24make_for_each_index_taskImmmZN4mpcf22MatrixIntegrateCpuTaskINS5_15OperationL1DistIffEENS5_21Tensor1dValueIteratorINS5_6TensorINS5_3PcfIffEEEEEEE9run_asyncERNS5_8ExecutorEEUlmE_S2_EEDaT_T0_T1_T2_T3_ENUlRNS_7RuntimeEE_clESP_ENUlvE0_clEvEUlmmE_LPv0EEEvmmRSt6atomicImEOSJ_
   fun:_ZZZN2tf24make_for_each_index_taskImmmZN4mpcf22MatrixIntegrateCpuTaskINS1_15OperationL1DistIffEENS1_21Tensor1dValueIteratorINS1_6TensorINS1_3PcfIffEEEEEEE9run_asyncERNS1_8ExecutorEEUlmE_NS_17GuidedPartitionerINS_21DefaultClosureWrapperEEEEEDaT_T0_T1_T2_T3_ENUlRNS_7RuntimeEE_clESO_ENUlvE0_clEv
   fun:_ZSt13__invoke_implIvRZZN2tf24make_for_each_index_taskImmmZN4mpcf22MatrixIntegrateCpuTaskINS2_15OperationL1DistIffEENS2_21Tensor1dValueIteratorINS2_6TensorINS2_3PcfIffEEEEEEE9run_asyncERNS2_8ExecutorEEUlmE_NS0_17GuidedPartitionerINS0_21DefaultClosureWrapperEEEEEDaT_T0_T1_T2_T3_ENUlRNS0_7RuntimeEE_clESP_EUlvE0_JEESJ_St14__invoke_otherOSK_DpOT1_
   fun:_ZSt10__invoke_rIvRZZN2tf24make_for_each_index_taskImmmZN4mpcf22MatrixIntegrateCpuTaskINS2_15OperationL1DistIffEENS2_21Tensor1dValueIteratorINS2_6TensorINS2_3PcfIffEEEEEEE9run_asyncERNS2_8ExecutorEEUlmE_NS0_17GuidedPartitionerINS0_21DefaultClosureWrapperEEEEEDaT_T0_T1_T2_T3_ENUlRNS0_7RuntimeEE_clESP_EUlvE0_JEENSt9enable_ifIX16is_invocable_r_vISJ_SK_DpT1_EESJ_E4typeEOSK_DpOSU_
   fun:_ZNSt17_Function_handlerIFvvEZZN2tf24make_for_each_index_taskImmmZN4mpcf22MatrixIntegrateCpuTaskINS3_15OperationL1DistIffEENS3_21Tensor1dValueIteratorINS3_6TensorINS3_3PcfIffEEEEEEE9run_asyncERNS3_8ExecutorEEUlmE_NS1_17GuidedPartitionerINS1_21DefaultClosureWrapperEEEEEDaT_T0_T1_T2_T3_ENUlRNS1_7RuntimeEE_clESQ_EUlvE0_E9_M_invokeERKSt9_Any_data
   fun:_ZNKSt8functionIFvvEEclEv
   fun:_ZN2tf8Executor18_invoke_async_taskERNS_6WorkerEPNS_4NodeE
   fun:_ZN2tf8Executor7_invokeERNS_6WorkerEPNS_4NodeE
   fun:_ZN2tf8Executor13_exploit_taskERNS_6WorkerERPNS_4NodeE
   fun:_ZZN2tf8Executor6_spawnEmSt10shared_ptrINS_15WorkerInterfaceEEENKUlvE_clEv
   fun:_ZSt13__invoke_implIvZN2tf8Executor6_spawnEmSt10shared_ptrINS0_15WorkerInterfaceEEEUlvE_JEET_St14__invoke_otherOT0_DpOT1_
   fun:_ZSt8__invokeIZN2tf8Executor6_spawnEmSt10shared_ptrINS0_15WorkerInterfaceEEEUlvE_JEENSt15__invoke_resultIT_JDpT0_EE4typeEOS7_DpOS8_
}
{
   <insert_a_suppression_name_here>
   Helgrind:Race
   fun:load
   fun:_ZNK2tf17GuidedPartitionerINS_21DefaultClosureWrapperEE4loopIZZZNS_24make_for_each_index_taskImmmZN4mpcf22MatrixIntegrateCpuTaskINS5_15OperationL1DistIffEENS5_21Tensor1dValueIteratorINS5_6TensorINS5_3PcfIffEEEEEEE9run_asyncERNS5_8ExecutorEEUlmE_S2_EEDaT_T0_T1_T2_T3_ENUlRNS_7RuntimeEE_clESP_ENUlvE0_clEvEUlmmE_LPv0EEEvmmRSt6atomicImEOSJ_
   fun:_ZZZN2tf24make_for_each_index_taskImmmZN4mpcf22MatrixIntegrateCpuTaskINS1_15OperationL1DistIffEENS1_21Tensor1dValueIteratorINS1_6TensorINS1_3PcfIffEEEEEEE9run_asyncERNS1_8ExecutorEEUlmE_NS_17GuidedPartitionerINS_21DefaultClosureWrapperEEEEEDaT_T0_T1_T2_T3_ENUlRNS_7RuntimeEE_clESO_ENUlvE0_clEv
   fun:_ZSt13__invoke_implIvRZZN2tf24make_for_each_index_taskImmmZN4mpcf22MatrixIntegrateCpuTaskINS2_15OperationL1DistIffEENS2_21Tensor1dValueIteratorINS2_6TensorINS2_3PcfIffEEEEEEE9run_asyncERNS2_8ExecutorEEUlmE_NS0_17GuidedPartitionerINS0_21DefaultClosureWrapperEEEEEDaT_T0_T1_T2_T3_ENUlRNS0_7RuntimeEE_clESP_EUlvE0_JEESJ_St14__invoke_otherOSK_DpOT1_
   fun:_ZSt10__invoke_rIvRZZN2tf24make_for_each_index_taskImmmZN4mpcf22MatrixIntegrateCpuTaskINS2_15OperationL1DistIffEENS2_21Tensor1dValueIteratorINS2_6TensorINS2_3PcfIffEEEEEEE9run_asyncERNS2_8ExecutorEEUlmE_NS0_17GuidedPartitionerINS0_21DefaultClosureWrapperEEEEEDaT_T0_T1_T2_T3_ENUlRNS0_7RuntimeEE_clESP_EUlvE0_JEENSt9enable_ifIX16is_invocable_r_vISJ_SK_DpT1_EESJ_E4typeEOSK_DpOSU_
   fun:_ZNSt17_Function_handlerIFvvEZZN2tf24make_for_each_index_taskImmmZN4mpcf22MatrixIntegrateCpuTaskINS3_15OperationL1DistIffEENS3_21Tensor1dValueIteratorINS3_6TensorINS3_3PcfIffEEEEEEE9run_asyncERNS3_8ExecutorEEUlmE_NS1_17GuidedPartitionerINS1_21DefaultClosureWrapperEEEEEDaT_T0_T1_T2_T3_ENUlRNS1_7RuntimeEE_clESQ_EUlvE0_E9_M_invokeERKSt9_Any_data
   fun:_ZNKSt8functionIFvvEEclEv
   fun:_ZN2tf8Executor18_invoke_async_taskERNS_6WorkerEPNS_4NodeE
   fun:_ZN2tf8Executor7_invokeERNS_6WorkerEPNS_4NodeE
   fun:_ZN2tf8Executor13_exploit_taskERNS_6WorkerERPNS_4NodeE
   fun:_ZZN2tf8Executor6_spawnEmSt10shared_ptrINS_15WorkerInterfaceEEENKUlvE_clEv
   fun:_ZSt13__invoke_implIvZN2tf8Executor6_spawnEmSt10shared_ptrINS0_15WorkerInterfaceEEEUlvE_JEET_St14__invoke_otherOT0_DpOT1_
   fun:_ZSt8__invokeIZN2tf8Executor6_spawnEmSt10shared_ptrINS0_15WorkerInterfaceEEEUlvE_JEENSt15__invoke_resultIT_JDpT0_EE4typeEOS7_DpOS8_
}
{
   <insert_a_suppression_name_here>
   Helgrind:Race
   fun:_ZNKSt6vectorIN4mpcf3PcfIffEESaIS2_EE4sizeEv
   fun:_ZN4mpcf22MatrixIntegrateCpuTaskINS_15OperationL1DistIffEENS_21Tensor1dValueIteratorINS_6TensorINS_3PcfIffEEEEEEE11compute_rowEm
   fun:_ZZN4mpcf22MatrixIntegrateCpuTaskINS_15OperationL1DistIffEENS_21Tensor1dValueIteratorINS_6TensorINS_3PcfIffEEEEEEE9run_asyncERNS_8ExecutorEENKUlmE_clEm
   fun:_ZZZZN2tf24make_for_each_index_taskImmmZN4mpcf22MatrixIntegrateCpuTaskINS1_15OperationL1DistIffEENS1_21Tensor1dValueIteratorINS1_6TensorINS1_3PcfIffEEEEEEE9run_asyncERNS1_8ExecutorEEUlmE_NS_17GuidedPartitionerINS_21DefaultClosureWrapperEEEEEDaT_T0_T1_T2_T3_ENUlRNS_7RuntimeEE_clESO_ENUlvE0_clEvENUlmmE_clEmm
   fun:_ZNK2tf17GuidedPartitionerINS_21DefaultClosureWrapperEE4loopIZZZNS_24make_for_each_index_taskImmmZN4mpcf22MatrixIntegrateCpuTaskINS5_15OperationL1DistIffEENS5_21Tensor1dValueIteratorINS5_6TensorINS5_3PcfIffEEEEEEE9run_asyncERNS5_8ExecutorEEUlmE_S2_EEDaT_T0_T1_T2_T3_ENUlRNS_7RuntimeEE_clESP_ENUlvE0_clEvEUlmmE_LPv0EEEvmmRSt6atomicImEOSJ_
   fun:_ZZZN2tf24make_for_each_index_taskImmmZN4mpcf22MatrixIntegrateCpuTaskINS1_15OperationL1DistIffEENS1_21Tensor1dValueIteratorINS1_6TensorINS1_3PcfIffEEEEEEE9run_asyncERNS1_8ExecutorEEUlmE_NS_17GuidedPartitionerINS_21DefaultClosureWrapperEEEEEDaT_T0_T1_T2_T3_ENUlRNS_7RuntimeEE_clESO_ENUlvE0_clEv
   fun:_ZSt13__invoke_implIvRZZN2tf24make_for_each_index_taskImmmZN4mpcf22MatrixIntegrateCpuTaskINS2_15OperationL1DistIffEENS2_21Tensor1dValueIteratorINS2_6TensorINS2_3PcfIffEEEEEEE9run_asyncERNS2_8ExecutorEEUlmE_NS0_17GuidedPartitionerINS0_21DefaultClosureWrapperEEEEEDaT_T0_T1_T2_T3_ENUlRNS0_7RuntimeEE_clESP_EUlvE0_JEESJ_St14__invoke_otherOSK_DpOT1_
   fun:_ZSt10__invoke_rIvRZZN2tf24make_for_each_index_taskImmmZN4mpcf22MatrixIntegrateCpuTaskINS2_15OperationL1DistIffEENS2_21Tensor1dValueIteratorINS2_6TensorINS2_3PcfIffEEEEEEE9run_asyncERNS2_8ExecutorEEUlmE_NS0_17GuidedPartitionerINS0_21DefaultClosureWrapperEEEEEDaT_T0_T1_T2_T3_ENUlRNS0_7RuntimeEE_clESP_EUlvE0_JEENSt9enable_ifIX16is_invocable_r_vISJ_SK_DpT1_EESJ_E4typeEOSK_DpOSU_
   fun:_ZNSt17_Function_handlerIFvvEZZN2tf24make_for_each_index_taskImmmZN4mpcf22MatrixIntegrateCpuTaskINS3_15OperationL1DistIffEENS3_21Tensor1dValueIteratorINS3_6TensorINS3_3PcfIffEEEEEEE9run_asyncERNS3_8ExecutorEEUlmE_NS1_17GuidedPartitionerINS1_21DefaultClosureWrapperEEEEEDaT_T0_T1_T2_T3_ENUlRNS1_7RuntimeEE_clESQ_EUlvE0_E9_M_invokeERKSt9_Any_data
   fun:_ZNKSt8functionIFvvEEclEv
   fun:_ZN2tf8Executor18_invoke_async_taskERNS_6WorkerEPNS_4NodeE
   fun:_ZN2tf8Executor7_invokeERNS_6WorkerEPNS_4NodeE
}
{
   <insert_a_suppression_name_here>
   Helgrind:Race
   fun:_ZNKSt6vectorIN4mpcf3PcfIffEESaIS2_EE4sizeEv
   fun:_ZN4mpcf22MatrixIntegrateCpuTaskINS_15OperationL1DistIffEENS_21Tensor1dValueIteratorINS_6TensorINS_3PcfIffEEEEEEE11compute_rowEm
   fun:_ZZN4mpcf22MatrixIntegrateCpuTaskINS_15OperationL1DistIffEENS_21Tensor1dValueIteratorINS_6TensorINS_3PcfIffEEEEEEE9run_asyncERNS_8ExecutorEENKUlmE_clEm
   fun:_ZZZZN2tf24make_for_each_index_taskImmmZN4mpcf22MatrixIntegrateCpuTaskINS1_15OperationL1DistIffEENS1_21Tensor1dValueIteratorINS1_6TensorINS1_3PcfIffEEEEEEE9run_asyncERNS1_8ExecutorEEUlmE_NS_17GuidedPartitionerINS_21DefaultClosureWrapperEEEEEDaT_T0_T1_T2_T3_ENUlRNS_7RuntimeEE_clESO_ENUlvE0_clEvENUlmmE_clEmm
   fun:_ZNK2tf17GuidedPartitionerINS_21DefaultClosureWrapperEE4loopIZZZNS_24make_for_each_index_taskImmmZN4mpcf22MatrixIntegrateCpuTaskINS5_15OperationL1DistIffEENS5_21Tensor1dValueIteratorINS5_6TensorINS5_3PcfIffEEEEEEE9run_asyncERNS5_8ExecutorEEUlmE_S2_EEDaT_T0_T1_T2_T3_ENUlRNS_7RuntimeEE_clESP_ENUlvE0_clEvEUlmmE_LPv0EEEvmmRSt6atomicImEOSJ_
   fun:_ZZZN2tf24make_for_each_index_taskImmmZN4mpcf22MatrixIntegrateCpuTaskINS1_15OperationL1DistIffEENS1_21Tensor1dValueIteratorINS1_6TensorINS1_3PcfIffEEEEEEE9run_asyncERNS1_8ExecutorEEUlmE_NS_17GuidedPartitionerINS_21DefaultClosureWrapperEEEEEDaT_T0_T1_T2_T3_ENUlRNS_7RuntimeEE_clESO_ENUlvE0_clEv
   fun:_ZSt13__invoke_implIvRZZN2tf24make_for_each_index_taskImmmZN4mpcf22MatrixIntegrateCpuTaskINS2_15OperationL1DistIffEENS2_21Tensor1dValueIteratorINS2_6TensorINS2_3PcfIffEEEEEEE9run_asyncERNS2_8ExecutorEEUlmE_NS0_17GuidedPartitionerINS0_21DefaultClosureWrapperEEEEEDaT_T0_T1_T2_T3_ENUlRNS0_7RuntimeEE_clESP_EUlvE0_JEESJ_St14__invoke_otherOSK_DpOT1_
   fun:_ZSt10__invoke_rIvRZZN2tf24make_for_each_index_taskImmmZN4mpcf22MatrixIntegrateCpuTaskINS2_15OperationL1DistIffEENS2_21Tensor1dValueIteratorINS2_6TensorINS2_3PcfIffEEEEEEE9run_asyncERNS2_8ExecutorEEUlmE_NS0_17GuidedPartitionerINS0_21DefaultClosureWrapperEEEEEDaT_T0_T1_T2_T3_ENUlRNS0_7RuntimeEE_clESP_EUlvE0_JEENSt9enable_ifIX16is_invocable_r_vISJ_SK_DpT1_EESJ_E4typeEOSK_DpOSU_
   fun:_ZNSt17_Function_handlerIFvvEZZN2tf24make_for_each_index_taskImmmZN4mpcf22MatrixIntegrateCpuTaskINS3_15OperationL1DistIffEENS3_21Tensor1dValueIteratorINS3_6TensorINS3_3PcfIffEEEEEEE9run_asyncERNS3_8ExecutorEEUlmE_NS1_17GuidedPartitionerINS1_21DefaultClosureWrapperEEEEEDaT_T0_T1_T2_T3_ENUlRNS1_7RuntimeEE_clESQ_EUlvE0_E9_M_invokeERKSt9_Any_data
   fun:_ZNKSt8functionIFvvEEclEv
   fun:_ZN2tf8Executor18_invoke_async_taskERNS_6WorkerEPNS_4NodeE
   fun:_ZN2tf8Executor7_invokeERNS_6WorkerEPNS_4NodeE
}
{
   <insert_a_suppression_name_here>
   Helgrind:Race
   fun:_ZN9__gnu_cxx17__normal_iteratorIPKN4mpcf5PointIffEESt6vectorIS3_SaIS3_EEEC1ERKS5_
   fun:_ZNKSt6vectorIN4mpcf5PointIffEESaIS2_EE3endEv
   fun:_ZN4mpcf18iterate_rectanglesINS_5PointIffEEZNS_9integrateIffZNS_22MatrixIntegrateCpuTaskINS_15OperationL1DistIffEENS_21Tensor1dValueIteratorINS_6TensorINS_3PcfIffEEEEEEE11compute_rowEmEUlRKNS_9RectangleIffEEE_EET0_RKNS9_IT_SJ_EESN_T1_SK_SK_EUlSH_E_EEvRKSt6vectorISK_SaISK_EESU_SJ_NSK_9time_typeESV_
   fun:_ZN4mpcf9integrateIffZNS_22MatrixIntegrateCpuTaskINS_15OperationL1DistIffEENS_21Tensor1dValueIteratorINS_6TensorINS_3PcfIffEEEEEEE11compute_rowEmEUlRKNS_9RectangleIffEEE_EET0_RKNS6_IT_SG_EESK_T1_SH_SH_
   fun:_ZN4mpcf22MatrixIntegrateCpuTaskINS_15OperationL1DistIffEENS_21Tensor1dValueIteratorINS_6TensorINS_3PcfIffEEEEEEE11compute_rowEm
   fun:_ZZN4mpcf22MatrixIntegrateCpuTaskINS_15OperationL1DistIffEENS_21Tensor1dValueIteratorINS_6TensorINS_3PcfIffEEEEEEE9run_asyncERNS_8ExecutorEENKUlmE_clEm
   fun:_ZZZZN2tf24make_for_each_index_taskImmmZN4mpcf22MatrixIntegrateCpuTaskINS1_15OperationL1DistIffEENS1_21Tensor1dValueIteratorINS1_6TensorINS1_3PcfIffEEEEEEE9run_asyncERNS1_8ExecutorEEUlmE_NS_17GuidedPartitionerINS_21DefaultClosureWrapperEEEEEDaT_T0_T1_T2_T3_ENUlRNS_7RuntimeEE_clESO_ENUlvE0_clEvENUlmmE_clEmm
   fun:_ZNK2tf17GuidedPartitionerINS_21DefaultClosureWrapperEE4loopIZZZNS_24make_for_each_index_taskImmmZN4mpcf22MatrixIntegrateCpuTaskINS5_15OperationL1DistIffEENS5_21Tensor1dValueIteratorINS5_6TensorINS5_3PcfIffEEEEEEE9run_asyncERNS5_8ExecutorEEUlmE_S2_EEDaT_T0_T1_T2_T3_ENUlRNS_7RuntimeEE_clESP_ENUlvE0_clEvEUlmmE_LPv0EEEvmmRSt6atomicImEOSJ_
   fun:_ZZZN2tf24make_for_each_index_taskImmmZN4mpcf22MatrixIntegrateCpuTaskINS1_15OperationL1DistIffEENS1_21Tensor1dValueIteratorINS1_6TensorINS1_3PcfIffEEEEEEE9run_asyncERNS1_8ExecutorEEUlmE_NS_17GuidedPartitionerINS_21DefaultClosureWrapperEEEEEDaT_T0_T1_T2_T3_ENUlRNS_7RuntimeEE_clESO_ENUlvE0_clEv
   fun:_ZSt13__invoke_implIvRZZN2tf24make_for_each_index_taskImmmZN4mpcf22MatrixIntegrateCpuTaskINS2_15OperationL1DistIffEENS2_21Tensor1dValueIteratorINS2_6TensorINS2_3PcfIffEEEEEEE9run_asyncERNS2_8ExecutorEEUlmE_NS0_17GuidedPartitionerINS0_21DefaultClosureWrapperEEEEEDaT_T0_T1_T2_T3_ENUlRNS0_7RuntimeEE_clESP_EUlvE0_JEESJ_St14__invoke_otherOSK_DpOT1_
   fun:_ZSt10__invoke_rIvRZZN2tf24make_for_each_index_taskImmmZN4mpcf22MatrixIntegrateCpuTaskINS2_15OperationL1DistIffEENS2_21Tensor1dValueIteratorINS2_6TensorINS2_3PcfIffEEEEEEE9run_asyncERNS2_8ExecutorEEUlmE_NS0_17GuidedPartitionerINS0_21DefaultClosureWrapperEEEEEDaT_T0_T1_T2_T3_ENUlRNS0_7RuntimeEE_clESP_EUlvE0_JEENSt9enable_ifIX16is_invocable_r_vISJ_SK_DpT1_EESJ_E4typeEOSK_DpOSU_
   fun:_ZNSt17_Function_handlerIFvvEZZN2tf24make_for_each_index_taskImmmZN4mpcf22MatrixIntegrateCpuTaskINS3_15OperationL1DistIffEENS3_21Tensor1dValueIteratorINS3_6TensorINS3_3PcfIffEEEEEEE9run_asyncERNS3_8ExecutorEEUlmE_NS1_17GuidedPartitionerINS1_21DefaultClosureWrapperEEEEEDaT_T0_T1_T2_T3_ENUlRNS1_7RuntimeEE_clESQ_EUlvE0_E9_M_invokeERKSt9_Any_data
}
{
   <insert_a_suppression_name_here>
   Helgrind:Race
   fun:_ZN9__gnu_cxx17__normal_iteratorIPKN4mpcf5PointIffEESt6vectorIS3_SaIS3_EEEC1ERKS5_
   fun:_ZNKSt6vectorIN4mpcf5PointIffEESaIS2_EE5beginEv
   fun:_ZN4mpcf18iterate_rectanglesINS_5PointIffEEZNS_9integrateIffZNS_22MatrixIntegrateCpuTaskINS_15OperationL1DistIffEENS_21Tensor1dValueIteratorINS_6TensorINS_3PcfIffEEEEEEE11compute_rowEmEUlRKNS_9RectangleIffEEE_EET0_RKNS9_IT_SJ_EESN_T1_SK_SK_EUlSH_E_EEvRKSt6vectorISK_SaISK_EESU_SJ_NSK_9time_typeESV_
   fun:_ZN4mpcf9integrateIffZNS_22MatrixIntegrateCpuTaskINS_15OperationL1DistIffEENS_21Tensor1dValueIteratorINS_6TensorINS_3PcfIffEEEEEEE11compute_rowEmEUlRKNS_9RectangleIffEEE_EET0_RKNS6_IT_SG_EESK_T1_SH_SH_
   fun:_ZN4mpcf22MatrixIntegrateCpuTaskINS_15OperationL1DistIffEENS_21Tensor1dValueIteratorINS_6TensorINS_3PcfIffEEEEEEE11compute_rowEm
   fun:_ZZN4mpcf22MatrixIntegrateCpuTaskINS_15OperationL1DistIffEENS_21Tensor1dValueIteratorINS_6TensorINS_3PcfIffEEEEEEE9run_asyncERNS_8ExecutorEENKUlmE_clEm
   fun:_ZZZZN2tf24make_for_each_index_taskImmmZN4mpcf22MatrixIntegrateCpuTaskINS1_15OperationL1DistIffEENS1_21Tensor1dValueIteratorINS1_6TensorINS1_3PcfIffEEEEEEE9run_asyncERNS1_8ExecutorEEUlmE_NS_17GuidedPartitionerINS_21DefaultClosureWrapperEEEEEDaT_T0_T1_T2_T3_ENUlRNS_7RuntimeEE_clESO_ENUlvE0_clEvENUlmmE_clEmm
   fun:_ZNK2tf17GuidedPartitionerINS_21DefaultClosureWrapperEE4loopIZZZNS_24make_for_each_index_taskImmmZN4mpcf22MatrixIntegrateCpuTaskINS5_15OperationL1DistIffEENS5_21Tensor1dValueIteratorINS5_6TensorINS5_3PcfIffEEEEEEE9run_asyncERNS5_8ExecutorEEUlmE_S2_EEDaT_T0_T1_T2_T3_ENUlRNS_7RuntimeEE_clESP_ENUlvE0_clEvEUlmmE_LPv0EEEvmmRSt6atomicImEOSJ_
   fun:_ZZZN2tf24make_for_each_index_taskImmmZN4mpcf22MatrixIntegrateCpuTaskINS1_15OperationL1DistIffEENS1_21Tensor1dValueIteratorINS1_6TensorINS1_3PcfIffEEEEEEE9run_asyncERNS1_8ExecutorEEUlmE_NS_17GuidedPartitionerINS_21DefaultClosureWrapperEEEEEDaT_T0_T1_T2_T3_ENUlRNS_7RuntimeEE_clESO_ENUlvE0_clEv
   fun:_ZSt13__invoke_implIvRZZN2tf24make_for_each_index_taskImmmZN4mpcf22MatrixIntegrateCpuTaskINS2_15OperationL1DistIffEENS2_21Tensor1dValueIteratorINS2_6TensorINS2_3PcfIffEEEEEEE9run_asyncERNS2_8ExecutorEEUlmE_NS0_17GuidedPartitionerINS0_21DefaultClosureWrapperEEEEEDaT_T0_T1_T2_T3_ENUlRNS0_7RuntimeEE_clESP_EUlvE0_JEESJ_St14__invoke_otherOSK_DpOT1_
   fun:_ZSt10__invoke_rIvRZZN2tf24make_for_each_index_taskImmmZN4mpcf22MatrixIntegrateCpuTaskINS2_15OperationL1DistIffEENS2_21Tensor1dValueIteratorINS2_6TensorINS2_3PcfIffEEEEEEE9run_asyncERNS2_8ExecutorEEUlmE_NS0_17GuidedPartitionerINS0_21DefaultClosureWrapperEEEEEDaT_T0_T1_T2_T3_ENUlRNS0_7RuntimeEE_clESP_EUlvE0_JEENSt9enable_ifIX16is_invocable_r_vISJ_SK_DpT1_EESJ_E4typeEOSK_DpOSU_
   fun:_ZNSt17_Function_handlerIFvvEZZN2tf24make_for_each_index_taskImmmZN4mpcf22MatrixIntegrateCpuTaskINS3_15OperationL1DistIffEENS3_21Tensor1dValueIteratorINS3_6TensorINS3_3PcfIffEEEEEEE9run_asyncERNS3_8ExecutorEEUlmE_NS1_17GuidedPartitionerINS1_21DefaultClosureWrapperEEEEEDaT_T0_T1_T2_T3_ENUlRNS1_7RuntimeEE_clESQ_EUlvE0_E9_M_invokeERKSt9_Any_data
}
{
   <insert_a_suppression_name_here>
   Helgrind:Race
   fun:_ZZN4mpcf26max_time_iterator_prior_toIN9__gnu_cxx17__normal_iteratorIPKNS_5PointIffEESt6vectorIS4_SaIS4_EEEEEET_SB_SB_NSt15iterator_traitsISB_E10value_type9time_typeEENKUlfRS5_E_clEfSG_
   fun:_ZN9__gnu_cxx5__ops14_Val_comp_iterIZN4mpcf26max_time_iterator_prior_toINS_17__normal_iteratorIPKNS2_5PointIffEESt6vectorIS6_SaIS6_EEEEEET_SD_SD_NSt15iterator_traitsISD_E10value_type9time_typeEEUlfRS7_E_EclIKfSC_EEbRSD_T0_
   fun:_ZSt13__upper_boundIN9__gnu_cxx17__normal_iteratorIPKN4mpcf5PointIffEESt6vectorIS4_SaIS4_EEEEfNS0_5__ops14_Val_comp_iterIZNS2_26max_time_iterator_prior_toISA_EET_SE_SE_NSt15iterator_traitsISE_E10value_type9time_typeEEUlfRS5_E_EEESE_SE_SE_RKT0_T1_
   fun:_ZSt11upper_boundIN9__gnu_cxx17__normal_iteratorIPKN4mpcf5PointIffEESt6vectorIS4_SaIS4_EEEEfZNS2_26max_time_iterator_prior_toISA_EET_SC_SC_NSt15iterator_traitsISC_E10value_type9time_typeEEUlfRS5_E_ESC_SC_SC_RKT0_T1_
   fun:_ZN4mpcf26max_time_iterator_prior_toIN9__gnu_cxx17__normal_iteratorIPKNS_5PointIffEESt6vectorIS4_SaIS4_EEEEEET_SB_SB_NSt15iterator_traitsISB_E10value_type9time_typeE
   fun:_ZN4mpcf18iterate_rectanglesINS_5PointIffEEZNS_9integrateIffZNS_22MatrixIntegrateCpuTaskINS_15OperationL1DistIffEENS_21Tensor1dValueIteratorINS_6TensorINS_3PcfIffEEEEEEE11compute_rowEmEUlRKNS_9RectangleIffEEE_EET0_RKNS9_IT_SJ_EESN_T1_SK_SK_EUlSH_E_EEvRKSt6vectorISK_SaISK_EESU_SJ_NSK_9time_typeESV_
   fun:_ZN4mpcf9integrateIffZNS_22MatrixIntegrateCpuTaskINS_15OperationL1DistIffEENS_21Tensor1dValueIteratorINS_6TensorINS_3PcfIffEEEEEEE11compute_rowEmEUlRKNS_9RectangleIffEEE_EET0_RKNS6_IT_SG_EESK_T1_SH_SH_
   fun:_ZN4mpcf22MatrixIntegrateCpuTaskINS_15OperationL1DistIffEENS_21Tensor1dValueIteratorINS_6TensorINS_3PcfIffEEEEEEE11compute_rowEm
   fun:_ZZN4mpcf22MatrixIntegrateCpuTaskINS_15OperationL1DistIffEENS_21Tensor1dValueIteratorINS_6TensorINS_3PcfIffEEEEEEE9run_asyncERNS_8ExecutorEENKUlmE_clEm
   fun:_ZZZZN2tf24make_for_each_index_taskImmmZN4mpcf22MatrixIntegrateCpuTaskINS1_15OperationL1DistIffEENS1_21Tensor1dValueIteratorINS1_6TensorINS1_3PcfIffEEEEEEE9run_asyncERNS1_8ExecutorEEUlmE_NS_17GuidedPartitionerINS_21DefaultClosureWrapperEEEEEDaT_T0_T1_T2_T3_ENUlRNS_7RuntimeEE_clESO_ENUlvE0_clEvENUlmmE_clEmm
   fun:_ZNK2tf17GuidedPartitionerINS_21DefaultClosureWrapperEE4loopIZZZNS_24make_for_each_index_taskImmmZN4mpcf22MatrixIntegrateCpuTaskINS5_15OperationL1DistIffEENS5_21Tensor1dValueIteratorINS5_6TensorINS5_3PcfIffEEEEEEE9run_asyncERNS5_8ExecutorEEUlmE_S2_EEDaT_T0_T1_T2_T3_ENUlRNS_7RuntimeEE_clESP_ENUlvE0_clEvEUlmmE_LPv0EEEvmmRSt6atomicImEOSJ_
   fun:_ZZZN2tf24make_for_each_index_taskImmmZN4mpcf22MatrixIntegrateCpuTaskINS1_15OperationL1DistIffEENS1_21Tensor1dValueIteratorINS1_6TensorINS1_3PcfIffEEEEEEE9run_asyncERNS1_8ExecutorEEUlmE_NS_17GuidedPartitionerINS_21DefaultClosureWrapperEEEEEDaT_T0_T1_T2_T3_ENUlRNS_7RuntimeEE_clESO_ENUlvE0_clEv
}
{
   <insert_a_suppression_name_here>
   Helgrind:Race
   fun:_ZN4mpcf18iterate_rectanglesINS_5PointIffEEZNS_9integrateIffZNS_22MatrixIntegrateCpuTaskINS_15OperationL1DistIffEENS_21Tensor1dValueIteratorINS_6TensorINS_3PcfIffEEEEEEE11compute_rowEmEUlRKNS_9RectangleIffEEE_EET0_RKNS9_IT_SJ_EESN_T1_SK_SK_EUlSH_E_EEvRKSt6vectorISK_SaISK_EESU_SJ_NSK_9time_typeESV_
   fun:_ZN4mpcf9integrateIffZNS_22MatrixIntegrateCpuTaskINS_15OperationL1DistIffEENS_21Tensor1dValueIteratorINS_6TensorINS_3PcfIffEEEEEEE11compute_rowEmEUlRKNS_9RectangleIffEEE_EET0_RKNS6_IT_SG_EESK_T1_SH_SH_
   fun:_ZN4mpcf22MatrixIntegrateCpuTaskINS_15OperationL1DistIffEENS_21Tensor1dValueIteratorINS_6TensorINS_3PcfIffEEEEEEE11compute_rowEm
   fun:_ZZN4mpcf22MatrixIntegrateCpuTaskINS_15OperationL1DistIffEENS_21Tensor1dValueIteratorINS_6TensorINS_3PcfIffEEEEEEE9run_asyncERNS_8ExecutorEENKUlmE_clEm
   fun:_ZZZZN2tf24make_for_each_index_taskImmmZN4mpcf22MatrixIntegrateCpuTaskINS1_15OperationL1DistIffEENS1_21Tensor1dValueIteratorINS1_6TensorINS1_3PcfIffEEEEEEE9run_asyncERNS1_8ExecutorEEUlmE_NS_17GuidedPartitionerINS_21DefaultClosureWrapperEEEEEDaT_T0_T1_T2_T3_ENUlRNS_7RuntimeEE_clESO_ENUlvE0_clEvENUlmmE_clEmm
   fun:_ZNK2tf17GuidedPartitionerINS_21DefaultClosureWrapperEE4loopIZZZNS_24make_for_each_index_taskImmmZN4mpcf22MatrixIntegrateCpuTaskINS5_15OperationL1DistIffEENS5_21Tensor1dValueIteratorINS5_6TensorINS5_3PcfIffEEEEEEE9run_asyncERNS5_8ExecutorEEUlmE_S2_EEDaT_T0_T1_T2_T3_ENUlRNS_7RuntimeEE_clESP_ENUlvE0_clEvEUlmmE_LPv0EEEvmmRSt6atomicImEOSJ_
   fun:_ZZZN2tf24make_for_each_index_taskImmmZN4mpcf22MatrixIntegrateCpuTaskINS1_15OperationL1DistIffEENS1_21Tensor1dValueIteratorINS1_6TensorINS1_3PcfIffEEEEEEE9run_asyncERNS1_8ExecutorEEUlmE_NS_17GuidedPartitionerINS_21DefaultClosureWrapperEEEEEDaT_T0_T1_T2_T3_ENUlRNS_7RuntimeEE_clESO_ENUlvE0_clEv
   fun:_ZSt13__invoke_implIvRZZN2tf24make_for_each_index_taskImmmZN4mpcf22MatrixIntegrateCpuTaskINS2_15OperationL1DistIffEENS2_21Tensor1dValueIteratorINS2_6TensorINS2_3PcfIffEEEEEEE9run_asyncERNS2_8ExecutorEEUlmE_NS0_17GuidedPartitionerINS0_21DefaultClosureWrapperEEEEEDaT_T0_T1_T2_T3_ENUlRNS0_7RuntimeEE_clESP_EUlvE0_JEESJ_St14__invoke_otherOSK_DpOT1_
   fun:_ZSt10__invoke_rIvRZZN2tf24make_for_each_index_taskImmmZN4mpcf22MatrixIntegrateCpuTaskINS2_15OperationL1DistIffEENS2_21Tensor1dValueIteratorINS2_6TensorINS2_3PcfIffEEEEEEE9run_asyncERNS2_8ExecutorEEUlmE_NS0_17GuidedPartitionerINS0_21DefaultClosureWrapperEEEEEDaT_T0_T1_T2_T3_ENUlRNS0_7RuntimeEE_clESP_EUlvE0_JEENSt9enable_ifIX16is_invocable_r_vISJ_SK_DpT1_EESJ_E4typeEOSK_DpOSU_
   fun:_ZNSt17_Function_handlerIFvvEZZN2tf24make_for_each_index_taskImmmZN4mpcf22MatrixIntegrateCpuTaskINS3_15OperationL1DistIffEENS3_21Tensor1dValueIteratorINS3_6TensorINS3_3PcfIffEEEEEEE9run_asyncERNS3_8ExecutorEEUlmE_NS1_17GuidedPartitionerINS1_21DefaultClosureWrapperEEEEEDaT_T0_T1_T2_T3_ENUlRNS1_7RuntimeEE_clESQ_EUlvE0_E9_M_invokeERKSt9_Any_data
   fun:_ZNKSt8functionIFvvEEclEv
   fun:_ZN2tf8Executor18_invoke_async_taskERNS_6WorkerEPNS_4NodeE
}
{
   <insert_a_suppression_name_here>
   Helgrind:Race
   fun:_ZN4mpcf22MatrixIntegrateCpuTaskINS_15OperationL1DistIffEENS_21Tensor1dValueIteratorINS_6TensorINS_3PcfIffEEEEEEE11compute_rowEm
   fun:_ZZN4mpcf22MatrixIntegrateCpuTaskINS_15OperationL1DistIffEENS_21Tensor1dValueIteratorINS_6TensorINS_3PcfIffEEEEEEE9run_asyncERNS_8ExecutorEENKUlmE_clEm
   fun:_ZZZZN2tf24make_for_each_index_taskImmmZN4mpcf22MatrixIntegrateCpuTaskINS1_15OperationL1DistIffEENS1_21Tensor1dValueIteratorINS1_6TensorINS1_3PcfIffEEEEEEE9run_asyncERNS1_8ExecutorEEUlmE_NS_17GuidedPartitionerINS_21DefaultClosureWrapperEEEEEDaT_T0_T1_T2_T3_ENUlRNS_7RuntimeEE_clESO_ENUlvE0_clEvENUlmmE_clEmm
   fun:_ZNK2tf17GuidedPartitionerINS_21DefaultClosureWrapperEE4loopIZZZNS_24make_for_each_index_taskImmmZN4mpcf22MatrixIntegrateCpuTaskINS5_15OperationL1DistIffEENS5_21Tensor1dValueIteratorINS5_6TensorINS5_3PcfIffEEEEEEE9run_asyncERNS5_8ExecutorEEUlmE_S2_EEDaT_T0_T1_T2_T3_ENUlRNS_7RuntimeEE_clESP_ENUlvE0_clEvEUlmmE_LPv0EEEvmmRSt6atomicImEOSJ_
   fun:_ZZZN2tf24make_for_each_index_taskImmmZN4mpcf22MatrixIntegrateCpuTaskINS1_15OperationL1DistIffEENS1_21Tensor1dValueIteratorINS1_6TensorINS1_3PcfIffEEEEEEE9run_asyncERNS1_8ExecutorEEUlmE_NS_17GuidedPartitionerINS_21DefaultClosureWrapperEEEEEDaT_T0_T1_T2_T3_ENUlRNS_7RuntimeEE_clESO_ENUlvE0_clEv
   fun:_ZSt13__invoke_implIvRZZN2tf24make_for_each_index_taskImmmZN4mpcf22MatrixIntegrateCpuTaskINS2_15OperationL1DistIffEENS2_21Tensor1dValueIteratorINS2_6TensorINS2_3PcfIffEEEEEEE9run_asyncERNS2_8ExecutorEEUlmE_NS0_17GuidedPartitionerINS0_21DefaultClosureWrapperEEEEEDaT_T0_T1_T2_T3_ENUlRNS0_7RuntimeEE_clESP_EUlvE0_JEESJ_St14__invoke_otherOSK_DpOT1_
   fun:_ZSt10__invoke_rIvRZZN2tf24make_for_each_index_taskImmmZN4mpcf22MatrixIntegrateCpuTaskINS2_15OperationL1DistIffEENS2_21Tensor1dValueIteratorINS2_6TensorINS2_3PcfIffEEEEEEE9run_asyncERNS2_8ExecutorEEUlmE_NS0_17GuidedPartitionerINS0_21DefaultClosureWrapperEEEEEDaT_T0_T1_T2_T3_ENUlRNS0_7RuntimeEE_clESP_EUlvE0_JEENSt9enable_ifIX16is_invocable_r_vISJ_SK_DpT1_EESJ_E4typeEOSK_DpOSU_
   fun:_ZNSt17_Function_handlerIFvvEZZN2tf24make_for_each_index_taskImmmZN4mpcf22MatrixIntegrateCpuTaskINS3_15OperationL1DistIffEENS3_21Tensor1dValueIteratorINS3_6TensorINS3_3PcfIffEEEEEEE9run_asyncERNS3_8ExecutorEEUlmE_NS1_17GuidedPartitionerINS1_21DefaultClosureWrapperEEEEEDaT_T0_T1_T2_T3_ENUlRNS1_7RuntimeEE_clESQ_EUlvE0_E9_M_invokeERKSt9_Any_data
   fun:_ZNKSt8functionIFvvEEclEv
   fun:_ZN2tf8Executor18_invoke_async_taskERNS_6WorkerEPNS_4NodeE
   fun:_ZN2tf8Executor7_invokeERNS_6WorkerEPNS_4NodeE
   fun:_ZN2tf8Executor13_exploit_taskERNS_6WorkerERPNS_4NodeE
}
{
   <insert_a_suppression_name_here>
   Helgrind:Race
   fun:_ZN4mpcf22MatrixIntegrateCpuTaskINS_15OperationL1DistIffEENS_21Tensor1dValueIteratorINS_6TensorINS_3PcfIffEEEEEEE11compute_rowEm
   fun:_ZZN4mpcf22MatrixIntegrateCpuTaskINS_15OperationL1DistIffEENS_21Tensor1dValueIteratorINS_6TensorINS_3PcfIffEEEEEEE9run_asyncERNS_8ExecutorEENKUlmE_clEm
   fun:_ZZZZN2tf24make_for_each_index_taskImmmZN4mpcf22MatrixIntegrateCpuTaskINS1_15OperationL1DistIffEENS1_21Tensor1dValueIteratorINS1_6TensorINS1_3PcfIffEEEEEEE9run_asyncERNS1_8ExecutorEEUlmE_NS_17GuidedPartitionerINS_21DefaultClosureWrapperEEEEEDaT_T0_T1_T2_T3_ENUlRNS_7RuntimeEE_clESO_ENUlvE0_clEvENUlmmE_clEmm
   fun:_ZNK2tf17GuidedPartitionerINS_21DefaultClosureWrapperEE4loopIZZZNS_24make_for_each_index_taskImmmZN4mpcf22MatrixIntegrateCpuTaskINS5_15OperationL1DistIffEENS5_21Tensor1dValueIteratorINS5_6TensorINS5_3PcfIffEEEEEEE9run_asyncERNS5_8ExecutorEEUlmE_S2_EEDaT_T0_T1_T2_T3_ENUlRNS_7RuntimeEE_clESP_ENUlvE0_clEvEUlmmE_LPv0EEEvmmRSt6atomicImEOSJ_
   fun:_ZZZN2tf24make_for_each_index_taskImmmZN4mpcf22MatrixIntegrateCpuTaskINS1_15OperationL1DistIffEENS1_21Tensor1dValueIteratorINS1_6TensorINS1_3PcfIffEEEEEEE9run_asyncERNS1_8ExecutorEEUlmE_NS_17GuidedPartitionerINS_21DefaultClosureWrapperEEEEEDaT_T0_T1_T2_T3_ENUlRNS_7RuntimeEE_clESO_ENUlvE0_clEv
   fun:_ZSt13__invoke_implIvRZZN2tf24make_for_each_index_taskImmmZN4mpcf22MatrixIntegrateCpuTaskINS2_15OperationL1DistIffEENS2_21Tensor1dValueIteratorINS2_6TensorINS2_3PcfIffEEEEEEE9run_asyncERNS2_8ExecutorEEUlmE_NS0_17GuidedPartitionerINS0_21DefaultClosureWrapperEEEEEDaT_T0_T1_T2_T3_ENUlRNS0_7RuntimeEE_clESP_EUlvE0_JEESJ_St14__invoke_otherOSK_DpOT1_
   fun:_ZSt10__invoke_rIvRZZN2tf24make_for_each_index_taskImmmZN4mpcf22MatrixIntegrateCpuTaskINS2_15OperationL1DistIffEENS2_21Tensor1dValueIteratorINS2_6TensorINS2_3PcfIffEEEEEEE9run_asyncERNS2_8ExecutorEEUlmE_NS0_17GuidedPartitionerINS0_21DefaultClosureWrapperEEEEEDaT_T0_T1_T2_T3_ENUlRNS0_7RuntimeEE_clESP_EUlvE0_JEENSt9enable_ifIX16is_invocable_r_vISJ_SK_DpT1_EESJ_E4typeEOSK_DpOSU_
   fun:_ZNSt17_Function_handlerIFvvEZZN2tf24make_for_each_index_taskImmmZN4mpcf22MatrixIntegrateCpuTaskINS3_15OperationL1DistIffEENS3_21Tensor1dValueIteratorINS3_6TensorINS3_3PcfIffEEEEEEE9run_asyncERNS3_8ExecutorEEUlmE_NS1_17GuidedPartitionerINS1_21DefaultClosureWrapperEEEEEDaT_T0_T1_T2_T3_ENUlRNS1_7RuntimeEE_clESQ_EUlvE0_E9_M_invokeERKSt9_Any_data
   fun:_ZNKSt8functionIFvvEEclEv
   fun:_ZN2tf8Executor18_invoke_async_taskERNS_6WorkerEPNS_4NodeE
   fun:_ZN2tf8Executor7_invokeERNS_6WorkerEPNS_4NodeE
   fun:_ZN2tf8Executor13_exploit_taskERNS_6WorkerERPNS_4NodeE
}
{
   <insert_a_suppression_name_here>
   Helgrind:Race
   fun:_ZN4mpcf18iterate_rectanglesINS_5PointIffEEZNS_9integrateIffZNS_22MatrixIntegrateCpuTaskINS_15OperationL1DistIffEENS_21Tensor1dValueIteratorINS_6TensorINS_3PcfIffEEEEEEE11compute_rowEmEUlRKNS_9RectangleIffEEE_EET0_RKNS9_IT_SJ_EESN_T1_SK_SK_EUlSH_E_EEvRKSt6vectorISK_SaISK_EESU_SJ_NSK_9time_typeESV_
   fun:_ZN4mpcf9integrateIffZNS_22MatrixIntegrateCpuTaskINS_15OperationL1DistIffEENS_21Tensor1dValueIteratorINS_6TensorINS_3PcfIffEEEEEEE11compute_rowEmEUlRKNS_9RectangleIffEEE_EET0_RKNS6_IT_SG_EESK_T1_SH_SH_
   fun:_ZN4mpcf22MatrixIntegrateCpuTaskINS_15OperationL1DistIffEENS_21Tensor1dValueIteratorINS_6TensorINS_3PcfIffEEEEEEE11compute_rowEm
   fun:_ZZN4mpcf22MatrixIntegrateCpuTaskINS_15OperationL1DistIffEENS_21Tensor1dValueIteratorINS_6TensorINS_3PcfIffEEEEEEE9run_asyncERNS_8ExecutorEENKUlmE_clEm
   fun:_ZZZZN2tf24make_for_each_index_taskImmmZN4mpcf22MatrixIntegrateCpuTaskINS1_15OperationL1DistIffEENS1_21Tensor1dValueIteratorINS1_6TensorINS1_3PcfIffEEEEEEE9run_asyncERNS1_8ExecutorEEUlmE_NS_17GuidedPartitionerINS_21DefaultClosureWrapperEEEEEDaT_T0_T1_T2_T3_ENUlRNS_7RuntimeEE_clESO_ENUlvE0_clEvENUlmmE_clEmm
   fun:_ZNK2tf17GuidedPartitionerINS_21DefaultClosureWrapperEE4loopIZZZNS_24make_for_each_index_taskImmmZN4mpcf22MatrixIntegrateCpuTaskINS5_15OperationL1DistIffEENS5_21Tensor1dValueIteratorINS5_6TensorINS5_3PcfIffEEEEEEE9run_asyncERNS5_8ExecutorEEUlmE_S2_EEDaT_T0_T1_T2_T3_ENUlRNS_7RuntimeEE_clESP_ENUlvE0_clEvEUlmmE_LPv0EEEvmmRSt6atomicImEOSJ_
   fun:_ZZZN2tf24make_for_each_index_taskImmmZN4mpcf22MatrixIntegrateCpuTaskINS1_15OperationL1DistIffEENS1_21Tensor1dValueIteratorINS1_6TensorINS1_3PcfIffEEEEEEE9run_asyncERNS1_8ExecutorEEUlmE_NS_17GuidedPartitionerINS_21DefaultClosureWrapperEEEEEDaT_T0_T1_T2_T3_ENUlRNS_7RuntimeEE_clESO_ENUlvE0_clEv
   fun:_ZSt13__invoke_implIvRZZN2tf24make_for_each_index_taskImmmZN4mpcf22MatrixIntegrateCpuTaskINS2_15OperationL1DistIffEENS2_21Tensor1dValueIteratorINS2_6TensorINS2_3PcfIffEEEEEEE9run_asyncERNS2_8ExecutorEEUlmE_NS0_17GuidedPartitionerINS0_21DefaultClosureWrapperEEEEEDaT_T0_T1_T2_T3_ENUlRNS0_7RuntimeEE_clESP_EUlvE0_JEESJ_St14__invoke_otherOSK_DpOT1_
   fun:_ZSt10__invoke_rIvRZZN2tf24make_for_each_index_taskImmmZN4mpcf22MatrixIntegrateCpuTaskINS2_15OperationL1DistIffEENS2_21Tensor1dValueIteratorINS2_6TensorINS2_3PcfIffEEEEEEE9run_asyncERNS2_8ExecutorEEUlmE_NS0_17GuidedPartitionerINS0_21DefaultClosureWrapperEEEEEDaT_T0_T1_T2_T3_ENUlRNS0_7RuntimeEE_clESP_EUlvE0_JEENSt9enable_ifIX16is_invocable_r_vISJ_SK_DpT1_EESJ_E4typeEOSK_DpOSU_
   fun:_ZNSt17_Function_handlerIFvvEZZN2tf24make_for_each_index_taskImmmZN4mpcf22MatrixIntegrateCpuTaskINS3_15OperationL1DistIffEENS3_21Tensor1dValueIteratorINS3_6TensorINS3_3PcfIffEEEEEEE9run_asyncERNS3_8ExecutorEEUlmE_NS1_17GuidedPartitionerINS1_21DefaultClosureWrapperEEEEEDaT_T0_T1_T2_T3_ENUlRNS1_7RuntimeEE_clESQ_EUlvE0_E9_M_invokeERKSt9_Any_data
   fun:_ZNKSt8functionIFvvEEclEv
   fun:_ZN2tf8Executor18_invoke_async_taskERNS_6WorkerEPNS_4NodeE
}
{
   <insert_a_suppression_name_here>
   Helgrind:Race
   fun:_ZN2tf8Executor16_tear_down_asyncERNS_6WorkerEPNS_4NodeERS4_
   fun:_ZN2tf8Executor7_invokeERNS_6WorkerEPNS_4NodeE
   fun:_ZN2tf8Executor13_exploit_taskERNS_6WorkerERPNS_4NodeE
   fun:_ZZN2tf8Executor6_spawnEmSt10shared_ptrINS_15WorkerInterfaceEEENKUlvE_clEv
   fun:_ZSt13__invoke_implIvZN2tf8Executor6_spawnEmSt10shared_ptrINS0_15WorkerInterfaceEEEUlvE_JEET_St14__invoke_otherOT0_DpOT1_
   fun:_ZSt8__invokeIZN2tf8Executor6_spawnEmSt10shared_ptrINS0_15WorkerInterfaceEEEUlvE_JEENSt15__invoke_resultIT_JDpT0_EE4typeEOS7_DpOS8_
   fun:_ZNSt6thread8_InvokerISt5tupleIJZN2tf8Executor6_spawnEmSt10shared_ptrINS2_15WorkerInterfaceEEEUlvE_EEE9_M_invokeIJLm0EEEEvSt12_Index_tupleIJXspT_EEE
   fun:_ZNSt6thread8_InvokerISt5tupleIJZN2tf8Executor6_spawnEmSt10shared_ptrINS2_15WorkerInterfaceEEEUlvE_EEEclEv
   fun:_ZNSt6thread11_State_implINS_8_InvokerISt5tupleIJZN2tf8Executor6_spawnEmSt10shared_ptrINS3_15WorkerInterfaceEEEUlvE_EEEEE6_M_runEv
   obj:/usr/lib/x86_64-linux-gnu/libstdc++.so.6.0.33
   obj:/usr/libexec/valgrind/vgpreload_helgrind-amd64-linux.so
   fun:start_thread
}
{
   <insert_a_suppression_name_here>
   Helgrind:Race
   fun:fetch_sub
   fun:_ZN2tf8Executor16_tear_down_asyncERNS_6WorkerEPNS_4NodeERS4_
   fun:_ZN2tf8Executor7_invokeERNS_6WorkerEPNS_4NodeE
   fun:_ZN2tf8Executor13_exploit_taskERNS_6WorkerERPNS_4NodeE
   fun:_ZZN2tf8Executor6_spawnEmSt10shared_ptrINS_15WorkerInterfaceEEENKUlvE_clEv
   fun:_ZSt13__invoke_implIvZN2tf8Executor6_spawnEmSt10shared_ptrINS0_15WorkerInterfaceEEEUlvE_JEET_St14__invoke_otherOT0_DpOT1_
   fun:_ZSt8__invokeIZN2tf8Executor6_spawnEmSt10shared_ptrINS0_15WorkerInterfaceEEEUlvE_JEENSt15__invoke_resultIT_JDpT0_EE4typeEOS7_DpOS8_
   fun:_ZNSt6thread8_InvokerISt5tupleIJZN2tf8Executor6_spawnEmSt10shared_ptrINS2_15WorkerInterfaceEEEUlvE_EEE9_M_invokeIJLm0EEEEvSt12_Index_tupleIJXspT_EEE
   fun:_ZNSt6thread8_InvokerISt5tupleIJZN2tf8Executor6_spawnEmSt10shared_ptrINS2_15WorkerInterfaceEEEUlvE_EEEclEv
   fun:_ZNSt6thread11_State_implINS_8_InvokerISt5tupleIJZN2tf8Executor6_spawnEmSt10shared_ptrINS3_15WorkerInterfaceEEEUlvE_EEEEE6_M_runEv
   obj:/usr/lib/x86_64-linux-gnu/libstdc++.so.6.0.33
   obj:/usr/libexec/valgrind/vgpreload_helgrind-amd64-linux.so
   fun:start_thread
}
{
   <insert_a_suppression_name_here>
   Helgrind:Race
   fun:_ZNSt14__shared_countILN9__gnu_cxx12_Lock_policyE2EED1Ev
   fun:_ZNSt12__shared_ptrISt6atomicImELN9__gnu_cxx12_Lock_policyE2EED1Ev
   fun:_ZNSt10shared_ptrISt6atomicImEED1Ev
   fun:_ZZZN2tf24make_for_each_index_taskImmmZN4mpcf22MatrixIntegrateCpuTaskINS1_15OperationL1DistIffEENS1_21Tensor1dValueIteratorINS1_6TensorINS1_3PcfIffEEEEEEE9run_asyncERNS1_8ExecutorEEUlmE_NS_17GuidedPartitionerINS_21DefaultClosureWrapperEEEEEDaT_T0_T1_T2_T3_ENUlRNS_7RuntimeEE_clESO_ENUlvE0_D1Ev
   fun:_ZNSt14_Function_base13_Base_managerIZZN2tf24make_for_each_index_taskImmmZN4mpcf22MatrixIntegrateCpuTaskINS3_15OperationL1DistIffEENS3_21Tensor1dValueIteratorINS3_6TensorINS3_3PcfIffEEEEEEE9run_asyncERNS3_8ExecutorEEUlmE_NS1_17GuidedPartitionerINS1_21DefaultClosureWrapperEEEEEDaT_T0_T1_T2_T3_ENUlRNS1_7RuntimeEE_clESQ_EUlvE0_E10_M_destroyERSt9_Any_dataSt17integral_constantIbLb0EE
   fun:_ZNSt14_Function_base13_Base_managerIZZN2tf24make_for_each_index_taskImmmZN4mpcf22MatrixIntegrateCpuTaskINS3_15OperationL1DistIffEENS3_21Tensor1dValueIteratorINS3_6TensorINS3_3PcfIffEEEEEEE9run_asyncERNS3_8ExecutorEEUlmE_NS1_17GuidedPartitionerINS1_21DefaultClosureWrapperEEEEEDaT_T0_T1_T2_T3_ENUlRNS1_7RuntimeEE_clESQ_EUlvE0_E10_M_managerERSt9_Any_dataRKSU_St18_Manager_operation
   fun:_ZNSt17_Function_handlerIFvvEZZN2tf24make_for_each_index_taskImmmZN4mpcf22MatrixIntegrateCpuTaskINS3_15OperationL1DistIffEENS3_21Tensor1dValueIteratorINS3_6TensorINS3_3PcfIffEEEEEEE9run_asyncERNS3_8ExecutorEEUlmE_NS1_17GuidedPartitionerINS1_21DefaultClosureWrapperEEEEEDaT_T0_T1_T2_T3_ENUlRNS1_7RuntimeEE_clESQ_EUlvE0_E10_M_managerERSt9_Any_dataRKSU_St18_Manager_operation
   fun:_ZNSt14_Function_baseD1Ev
   fun:_ZNSt8functionIFvvEED1Ev
   fun:_ZSt10destroy_atISt8functionIFvvEEEvPT_
   fun:_ZSt8_DestroyISt8functionIFvvEEEvPT_
   fun:_ZZNSt8__detail9__variant16_Variant_storageILb0EJSt8functionIFvvEES2_IFvRN2tf7RuntimeEEES2_IFvS7_bEEEE8_M_resetEvENUlOT_E_clIRS4_EEDaSE_
}
{
   <insert_a_suppression_name_here>
   Helgrind:Race
   fun:_ZZN2tf24make_for_each_index_taskImmmZN4mpcf22MatrixIntegrateCpuTaskINS1_15OperationL1DistIffEENS1_21Tensor1dValueIteratorINS1_6TensorINS1_3PcfIffEEEEEEE9run_asyncERNS1_8ExecutorEEUlmE_NS_17GuidedPartitionerINS_21DefaultClosureWrapperEEEEEDaT_T0_T1_T2_T3_ENUlRNS_7RuntimeEE_clESO_
   fun:_ZSt13__invoke_implIvRZN2tf24make_for_each_index_taskImmmZN4mpcf22MatrixIntegrateCpuTaskINS2_15OperationL1DistIffEENS2_21Tensor1dValueIteratorINS2_6TensorINS2_3PcfIffEEEEEEE9run_asyncERNS2_8ExecutorEEUlmE_NS0_17GuidedPartitionerINS0_21DefaultClosureWrapperEEEEEDaT_T0_T1_T2_T3_EUlRNS0_7RuntimeEE_JSP_EESJ_St14__invoke_otherOSK_DpOT1_
   fun:_ZSt10__invoke_rIvRZN2tf24make_for_each_index_taskImmmZN4mpcf22MatrixIntegrateCpuTaskINS2_15OperationL1DistIffEENS2_21Tensor1dValueIteratorINS2_6TensorINS2_3PcfIffEEEEEEE9run_asyncERNS2_8ExecutorEEUlmE_NS0_17GuidedPartitionerINS0_21DefaultClosureWrapperEEEEEDaT_T0_T1_T2_T3_EUlRNS0_7RuntimeEE_JSP_EENSt9enable_ifIX16is_invocable_r_vISJ_SK_DpT1_EESJ_E4typeEOSK_DpOST_
   fun:_ZNSt17_Function_handlerIFvRN2tf7RuntimeEEZNS0_24make_for_each_index_taskImmmZN4mpcf22MatrixIntegrateCpuTaskINS5_15OperationL1DistIffEENS5_21Tensor1dValueIteratorINS5_6TensorINS5_3PcfIffEEEEEEE9run_asyncERNS5_8ExecutorEEUlmE_NS0_17GuidedPartitionerINS0_21DefaultClosureWrapperEEEEEDaT_T0_T1_T2_T3_EUlS2_E_E9_M_invokeERKSt9_Any_dataS2_
   fun:_ZNKSt8functionIFvRN2tf7RuntimeEEEclES2_
   fun:_ZN2tf8Executor25_invoke_runtime_task_implERNS_6WorkerEPNS_4NodeERSt8functionIFvRNS_7RuntimeEEE
   fun:_ZN2tf8Executor20_invoke_runtime_taskERNS_6WorkerEPNS_4NodeE
   fun:_ZN2tf8Executor7_invokeERNS_6WorkerEPNS_4NodeE
   fun:_ZN2tf8Executor13_exploit_taskERNS_6WorkerERPNS_4NodeE
   fun:_ZZN2tf8Executor6_spawnEmSt10shared_ptrINS_15WorkerInterfaceEEENKUlvE_clEv
   fun:_ZSt13__invoke_implIvZN2tf8Executor6_spawnEmSt10shared_ptrINS0_15WorkerInterfaceEEEUlvE_JEET_St14__invoke_otherOT0_DpOT1_
   fun:_ZSt8__invokeIZN2tf8Executor6_spawnEmSt10shared_ptrINS0_15WorkerInterfaceEEEUlvE_JEENSt15__invoke_resultIT_JDpT0_EE4typeEOS7_DpOS8_
}
{
   <insert_a_suppression_name_here>
   Helgrind:Race
   fun:fetch_add
